# Linker from Snapdragon LLVM ARM Compiler Version 4.0.17
# Linker based on LLVM version: 4.0
# Notable linker command/script options:
# CPU Architecture Version: 
# Target triple environment for the link: gnueabi
# Maximum GP size: 8
# Link type: Static
# ABI Page Size: 0x4
# CommandLine : C:\Users\2166772\Downloads\snapdragon_sd_llvm_arm.win.4.0_installer_41720.103-16-22_11_46_50\Snapdragon_SD_LLVM_ARM_WIN_4_0_Installer_41720_1\Snapdragon-llvm-4.0.17-windows64\bin\ld.qcld.exe -X --eh-frame-hdr -m armelf_linux_eabi -dynamic-linker /lib/ld-musl-arm.so.1 -o bin\aware_client_v1.elf -lc++ -mno-unaligned-access -entry=0x43000000 src\build\aware_client\txm_module_preamble_llvm.o -Tsrc\aware_client\aware_client.ld -Map=bin\aware_client_v1.map -gc-sections -gc-sections src\build\aware_client\app_config.o src\build\aware_client\app_msg_q.o src\build\aware_client\app_thread.o src\build\aware_client\app_utils_list.o src\build\aware_client\app_utils_log.o src\build\aware_client\app_utils_mem.o src\build\aware_client\app_utils_str.o src\build\aware_client\app_utils_time.o src\build\aware_client\aware_app.o src\build\aware_client\aware_app_state.o src\build\aware_client\aware_device_info.o src\build\aware_client\aware_health_check.o src\build\aware_client\aware_log.o src\build\aware_client\aware_main_thread.o src\build\aware_client\aware_psm.o src\build\aware_client\aware_utils.o src\build\aware_client\cfg_mgr_util.o src\build\aware_client\cJSON.o src\build\aware_client\config_parser.o src\build\aware_client\data_mgr.o src\build\aware_client\data_mgr_coap.o src\build\aware_client\data_mgr_device_info.o src\build\aware_client\data_mgr_dss.o src\build\aware_client\data_mgr_queue.o src\build\aware_client\data_mgr_thread.o src\build\aware_client\data_mgr_utils.o src\build\aware_client\device_common_config.o src\build\aware_client\device_general_config.o src\build\aware_client\device_unique_config.o src\build\aware_client\dictionary.o src\build\aware_client\fota_client.o src\build\aware_client\fota_dam_download.o src\build\aware_client\fota_dam_swapping.o src\build\aware_client\fota_thread.o src\build\aware_client\gnss_worker_sm.o src\build\aware_client\gnss_worker_thread.o src\build\aware_client\gnss_worker_utils.o src\build\aware_client\led_config.o src\build\aware_client\location.pb.o src\build\aware_client\pb_common.o src\build\aware_client\pb_decode.o src\build\aware_client\pb_encode.o src\build\aware_client\qapi_loc_callbacks.o src\build\aware_client\qapi_loc_wrapper.o src\build\aware_client\runtime_config.o src\build\aware_client\sensor_config.o src\build\aware_client\sensor_mgr.o src\build\aware_client\sensor_mgr_thread.o src\build\aware_client\sensor_mgr_utils.o src\build\aware_client\transport_config.o src\build\aware_client\txm_module_preamble_llvm.o src\build\aware_client\version_config.o common\libs\diag_dam_lib.lib common\libs\qapi_dam.lib common\libs\qapi_psm_lib.lib common\libs\timer_dam_lib.lib common\libs\txm_lib.lib -LC:\Users\2166772\Downloads\snapdragon_sd_llvm_arm.win.4.0_installer_41720.103-16-22_11_46_50\Snapdragon_SD_LLVM_ARM_WIN_4_0_Installer_41720_1\Snapdragon-llvm-4.0.17-windows64\armv7m-none-eabi\libc\lib -LC:\Users\2166772\Downloads\snapdragon_sd_llvm_arm.win.4.0_installer_41720.103-16-22_11_46_50\Snapdragon_SD_LLVM_ARM_WIN_4_0_Installer_41720_1\Snapdragon-llvm-4.0.17-windows64\armv7m-none-eabi\lib --start-group -lunwind -lc++ -lc++abi --end-group -LC:\Users\2166772\Downloads\snapdragon_sd_llvm_arm.win.4.0_installer_41720.103-16-22_11_46_50\Snapdragon_SD_LLVM_ARM_WIN_4_0_Installer_41720_1\Snapdragon-llvm-4.0.17-windows64\lib\clang\4.0.17\lib\baremetal --start-group -lc -lclang_rt.builtins-armv7m --end-group -lm -lc 
Archive member included because of file (symbol)
common\libs\qapi_psm_lib.lib(qapi_psm_user.o)
		src\build\aware_client\aware_psm.o (psm_user_space_dispatcher)
common\libs\timer_dam_lib.lib(qapi_timer_user.o)
		src\build\aware_client\app_utils_time.o (qapi_Timer_Def)
common\libs\txm_lib.lib(txm_module_thread_shell_entry.o)
		src\build\aware_client\txm_module_preamble_llvm.o (_txm_module_thread_shell_entry)
common\libs\txm_lib.lib(txm_module_callback_request_thread_entry.o)
		src\build\aware_client\txm_module_preamble_llvm.o (_txm_module_callback_request_thread_entry)
common\libs\txm_lib.lib(txm_module_system_call11.o)
		src\build\aware_client\app_config.o (_txm_module_system_call11)
common\libs\txm_lib.lib(txm_module_system_call12.o)
		src\build\aware_client\aware_device_info.o (_txm_module_system_call12)
common\libs\txm_lib.lib(txm_byte_pool_create.o)
		src\build\aware_client\app_utils_mem.o (_txe_byte_pool_create)
common\libs\txm_lib.lib(txm_byte_allocate.o)
		src\build\aware_client\app_utils_mem.o (_txe_byte_allocate)
common\libs\txm_lib.lib(txm_byte_release.o)
		src\build\aware_client\app_utils_mem.o (_txe_byte_release)
common\libs\txm_lib.lib(txm_event_flags_create.o)
		src\build\aware_client\app_thread.o (_txe_event_flags_create)
common\libs\txm_lib.lib(txm_event_flags_delete.o)
		src\build\aware_client\app_thread.o (_txe_event_flags_delete)
common\libs\txm_lib.lib(txm_event_flags_get.o)
		src\build\aware_client\app_thread.o (_txe_event_flags_get)
common\libs\txm_lib.lib(txm_event_flags_info_get.o)
		src\build\aware_client\data_mgr_utils.o (_txe_event_flags_info_get)
common\libs\txm_lib.lib(txm_event_flags_set.o)
		src\build\aware_client\app_thread.o (_txe_event_flags_set)
common\libs\txm_lib.lib(txm_module_object_allocate.o)
		src\build\aware_client\app_thread.o (_txm_module_object_allocate)
common\libs\txm_lib.lib(txm_module_object_deallocate.o)
		src\build\aware_client\app_thread.o (_txm_module_object_deallocate)
common\libs\txm_lib.lib(txm_module_thread_system_suspend.o)
		common\libs\txm_lib.lib(txm_module_thread_shell_entry.o) (_txm_module_thread_system_suspend)
common\libs\txm_lib.lib(txm_mutex_create.o)
		src\build\aware_client\app_thread.o (_txe_mutex_create)
common\libs\txm_lib.lib(txm_mutex_delete.o)
		src\build\aware_client\app_thread.o (_txe_mutex_delete)
common\libs\txm_lib.lib(txm_mutex_get.o)
		src\build\aware_client\app_thread.o (_txe_mutex_get)
common\libs\txm_lib.lib(txm_mutex_put.o)
		src\build\aware_client\app_thread.o (_txe_mutex_put)
common\libs\txm_lib.lib(txm_queue_receive.o)
		common\libs\txm_lib.lib(txm_module_callback_request_thread_entry.o) (_txe_queue_receive)
common\libs\txm_lib.lib(txm_thread_create.o)
		src\build\aware_client\app_thread.o (_txe_thread_create)
common\libs\txm_lib.lib(txm_thread_delete.o)
		src\build\aware_client\app_thread.o (_txe_thread_delete)
common\libs\txm_lib.lib(txm_thread_identify.o)
		src\build\aware_client\app_thread.o (_tx_thread_identify)
common\libs\txm_lib.lib(txm_thread_preemption_change.o)
		src\build\aware_client\app_thread.o (_txe_thread_preemption_change)
common\libs\txm_lib.lib(txm_thread_resume.o)
		common\libs\txm_lib.lib(txm_module_thread_shell_entry.o) (_txe_thread_resume)
common\libs\txm_lib.lib(txm_thread_sleep.o)
		src\build\aware_client\app_thread.o (_tx_thread_sleep)
common\libs\txm_lib.lib(txm_thread_terminate.o)
		src\build\aware_client\app_thread.o (_txe_thread_terminate)
common\libs\txm_lib.lib(txm_time_get.o)
		src\build\aware_client\data_mgr_queue.o (_tx_time_get)
C:\Users\2166772\Downloads\snapdragon_sd_llvm_arm.win.4.0_installer_41720.103-16-22_11_46_50\Snapdragon_SD_LLVM_ARM_WIN_4_0_Installer_41720_1\Snapdragon-llvm-4.0.17-windows64\armv7m-none-eabi\libc\lib/libc.a(malloc.o)
		src\build\aware_client\cJSON.o (malloc)
C:\Users\2166772\Downloads\snapdragon_sd_llvm_arm.win.4.0_installer_41720.103-16-22_11_46_50\Snapdragon_SD_LLVM_ARM_WIN_4_0_Installer_41720_1\Snapdragon-llvm-4.0.17-windows64\armv7m-none-eabi\libc\lib/libc.a(floor.o)
		src\build\aware_client\cJSON.o (floor)
C:\Users\2166772\Downloads\snapdragon_sd_llvm_arm.win.4.0_installer_41720.103-16-22_11_46_50\Snapdragon_SD_LLVM_ARM_WIN_4_0_Installer_41720_1\Snapdragon-llvm-4.0.17-windows64\armv7m-none-eabi\libc\lib/libc.a(pow.o)
		src\build\aware_client\cJSON.o (pow)
C:\Users\2166772\Downloads\snapdragon_sd_llvm_arm.win.4.0_installer_41720.103-16-22_11_46_50\Snapdragon_SD_LLVM_ARM_WIN_4_0_Installer_41720_1\Snapdragon-llvm-4.0.17-windows64\armv7m-none-eabi\libc\lib/libc.a(scalbn.o)
		C:\Users\2166772\Downloads\snapdragon_sd_llvm_arm.win.4.0_installer_41720.103-16-22_11_46_50\Snapdragon_SD_LLVM_ARM_WIN_4_0_Installer_41720_1\Snapdragon-llvm-4.0.17-windows64\armv7m-none-eabi\libc\lib/libc.a(pow.o) (scalbn)
C:\Users\2166772\Downloads\snapdragon_sd_llvm_arm.win.4.0_installer_41720.103-16-22_11_46_50\Snapdragon_SD_LLVM_ARM_WIN_4_0_Installer_41720_1\Snapdragon-llvm-4.0.17-windows64\armv7m-none-eabi\libc\lib/libc.a(madvise.o)
		C:\Users\2166772\Downloads\snapdragon_sd_llvm_arm.win.4.0_installer_41720.103-16-22_11_46_50\Snapdragon_SD_LLVM_ARM_WIN_4_0_Installer_41720_1\Snapdragon-llvm-4.0.17-windows64\armv7m-none-eabi\libc\lib/libc.a(malloc.o) (__madvise)
C:\Users\2166772\Downloads\snapdragon_sd_llvm_arm.win.4.0_installer_41720.103-16-22_11_46_50\Snapdragon_SD_LLVM_ARM_WIN_4_0_Installer_41720_1\Snapdragon-llvm-4.0.17-windows64\armv7m-none-eabi\libc\lib/libc.a(mremap.o)
		C:\Users\2166772\Downloads\snapdragon_sd_llvm_arm.win.4.0_installer_41720.103-16-22_11_46_50\Snapdragon_SD_LLVM_ARM_WIN_4_0_Installer_41720_1\Snapdragon-llvm-4.0.17-windows64\armv7m-none-eabi\libc\lib/libc.a(malloc.o) (__mremap)
C:\Users\2166772\Downloads\snapdragon_sd_llvm_arm.win.4.0_installer_41720.103-16-22_11_46_50\Snapdragon_SD_LLVM_ARM_WIN_4_0_Installer_41720_1\Snapdragon-llvm-4.0.17-windows64\armv7m-none-eabi\libc\lib/libc.a(munmap.o)
		C:\Users\2166772\Downloads\snapdragon_sd_llvm_arm.win.4.0_installer_41720.103-16-22_11_46_50\Snapdragon_SD_LLVM_ARM_WIN_4_0_Installer_41720_1\Snapdragon-llvm-4.0.17-windows64\armv7m-none-eabi\libc\lib/libc.a(malloc.o) (__munmap)
C:\Users\2166772\Downloads\snapdragon_sd_llvm_arm.win.4.0_installer_41720.103-16-22_11_46_50\Snapdragon_SD_LLVM_ARM_WIN_4_0_Installer_41720_1\Snapdragon-llvm-4.0.17-windows64\armv7m-none-eabi\libc\lib/libc.a(vfprintf.o)
		src\build\aware_client\aware_log.o (vsnprintf)
C:\Users\2166772\Downloads\snapdragon_sd_llvm_arm.win.4.0_installer_41720.103-16-22_11_46_50\Snapdragon_SD_LLVM_ARM_WIN_4_0_Installer_41720_1\Snapdragon-llvm-4.0.17-windows64\armv7m-none-eabi\libc\lib/libc.a(fwrite.o)
		C:\Users\2166772\Downloads\snapdragon_sd_llvm_arm.win.4.0_installer_41720.103-16-22_11_46_50\Snapdragon_SD_LLVM_ARM_WIN_4_0_Installer_41720_1\Snapdragon-llvm-4.0.17-windows64\armv7m-none-eabi\libc\lib/libc.a(vfprintf.o) (__fwritex)
C:\Users\2166772\Downloads\snapdragon_sd_llvm_arm.win.4.0_installer_41720.103-16-22_11_46_50\Snapdragon_SD_LLVM_ARM_WIN_4_0_Installer_41720_1\Snapdragon-llvm-4.0.17-windows64\armv7m-none-eabi\libc\lib/libc.a(snprintf.o)
		src\build\aware_client\aware_main_thread.o (snprintf)
C:\Users\2166772\Downloads\snapdragon_sd_llvm_arm.win.4.0_installer_41720.103-16-22_11_46_50\Snapdragon_SD_LLVM_ARM_WIN_4_0_Installer_41720_1\Snapdragon-llvm-4.0.17-windows64\armv7m-none-eabi\libc\lib/libc.a(vsnprintf.o)
		C:\Users\2166772\Downloads\snapdragon_sd_llvm_arm.win.4.0_installer_41720.103-16-22_11_46_50\Snapdragon_SD_LLVM_ARM_WIN_4_0_Installer_41720_1\Snapdragon-llvm-4.0.17-windows64\armv7m-none-eabi\libc\lib/libc.a(vfprintf.o) (vsnprintf_full)
C:\Users\2166772\Downloads\snapdragon_sd_llvm_arm.win.4.0_installer_41720.103-16-22_11_46_50\Snapdragon_SD_LLVM_ARM_WIN_4_0_Installer_41720_1\Snapdragon-llvm-4.0.17-windows64\armv7m-none-eabi\libc\lib/libc.a(atof.o)
		src\build\aware_client\config_parser.o (atof)
C:\Users\2166772\Downloads\snapdragon_sd_llvm_arm.win.4.0_installer_41720.103-16-22_11_46_50\Snapdragon_SD_LLVM_ARM_WIN_4_0_Installer_41720_1\Snapdragon-llvm-4.0.17-windows64\armv7m-none-eabi\libc\lib/libc.a(atoi.o)
		src\build\aware_client\app_config.o (atoi)
C:\Users\2166772\Downloads\snapdragon_sd_llvm_arm.win.4.0_installer_41720.103-16-22_11_46_50\Snapdragon_SD_LLVM_ARM_WIN_4_0_Installer_41720_1\Snapdragon-llvm-4.0.17-windows64\armv7m-none-eabi\libc\lib/libc.a(strtod.o)
		C:\Users\2166772\Downloads\snapdragon_sd_llvm_arm.win.4.0_installer_41720.103-16-22_11_46_50\Snapdragon_SD_LLVM_ARM_WIN_4_0_Installer_41720_1\Snapdragon-llvm-4.0.17-windows64\armv7m-none-eabi\libc\lib/libc.a(atof.o) (strtod)
C:\Users\2166772\Downloads\snapdragon_sd_llvm_arm.win.4.0_installer_41720.103-16-22_11_46_50\Snapdragon_SD_LLVM_ARM_WIN_4_0_Installer_41720_1\Snapdragon-llvm-4.0.17-windows64\armv7m-none-eabi\libc\lib/libc.a(strtol.o)
		src\build\aware_client\config_parser.o (strtol)
C:\Users\2166772\Downloads\snapdragon_sd_llvm_arm.win.4.0_installer_41720.103-16-22_11_46_50\Snapdragon_SD_LLVM_ARM_WIN_4_0_Installer_41720_1\Snapdragon-llvm-4.0.17-windows64\armv7m-none-eabi\libc\lib/libc.a(__aeabi_memclr.o)
		C:\Users\2166772\Downloads\snapdragon_sd_llvm_arm.win.4.0_installer_41720.103-16-22_11_46_50\Snapdragon_SD_LLVM_ARM_WIN_4_0_Installer_41720_1\Snapdragon-llvm-4.0.17-windows64\armv7m-none-eabi\libc\lib/libc.a(vfprintf.o) (__aeabi_memclr4)
C:\Users\2166772\Downloads\snapdragon_sd_llvm_arm.win.4.0_installer_41720.103-16-22_11_46_50\Snapdragon_SD_LLVM_ARM_WIN_4_0_Installer_41720_1\Snapdragon-llvm-4.0.17-windows64\armv7m-none-eabi\libc\lib/libc.a(__aeabi_memcpy.o)
		C:\Users\2166772\Downloads\snapdragon_sd_llvm_arm.win.4.0_installer_41720.103-16-22_11_46_50\Snapdragon_SD_LLVM_ARM_WIN_4_0_Installer_41720_1\Snapdragon-llvm-4.0.17-windows64\armv7m-none-eabi\libc\lib/libc.a(vsnprintf.o) (__aeabi_memcpy8)
C:\Users\2166772\Downloads\snapdragon_sd_llvm_arm.win.4.0_installer_41720.103-16-22_11_46_50\Snapdragon_SD_LLVM_ARM_WIN_4_0_Installer_41720_1\Snapdragon-llvm-4.0.17-windows64\armv7m-none-eabi\libc\lib/libc.a(memcpy_le.o)
		src\build\aware_client\app_thread.o (memcpy)
C:\Users\2166772\Downloads\snapdragon_sd_llvm_arm.win.4.0_installer_41720.103-16-22_11_46_50\Snapdragon_SD_LLVM_ARM_WIN_4_0_Installer_41720_1\Snapdragon-llvm-4.0.17-windows64\armv7m-none-eabi\libc\lib/libc.a(memset_nofp_armv7.o)
		src\build\aware_client\app_utils_mem.o (memset)
C:\Users\2166772\Downloads\snapdragon_sd_llvm_arm.win.4.0_installer_41720.103-16-22_11_46_50\Snapdragon_SD_LLVM_ARM_WIN_4_0_Installer_41720_1\Snapdragon-llvm-4.0.17-windows64\armv7m-none-eabi\libc\lib/libc.a(memchr.o)
		src\build\aware_client\cJSON.o (memchr)
C:\Users\2166772\Downloads\snapdragon_sd_llvm_arm.win.4.0_installer_41720.103-16-22_11_46_50\Snapdragon_SD_LLVM_ARM_WIN_4_0_Installer_41720_1\Snapdragon-llvm-4.0.17-windows64\armv7m-none-eabi\libc\lib/libc.a(strcasecmp.o)
		src\build\aware_client\app_config.o (strcasecmp)
C:\Users\2166772\Downloads\snapdragon_sd_llvm_arm.win.4.0_installer_41720.103-16-22_11_46_50\Snapdragon_SD_LLVM_ARM_WIN_4_0_Installer_41720_1\Snapdragon-llvm-4.0.17-windows64\armv7m-none-eabi\libc\lib/libc.a(strchr.o)
		src\build\aware_client\aware_health_check.o (strchr)
C:\Users\2166772\Downloads\snapdragon_sd_llvm_arm.win.4.0_installer_41720.103-16-22_11_46_50\Snapdragon_SD_LLVM_ARM_WIN_4_0_Installer_41720_1\Snapdragon-llvm-4.0.17-windows64\armv7m-none-eabi\libc\lib/libc.a(strchrnul.o)
		C:\Users\2166772\Downloads\snapdragon_sd_llvm_arm.win.4.0_installer_41720.103-16-22_11_46_50\Snapdragon_SD_LLVM_ARM_WIN_4_0_Installer_41720_1\Snapdragon-llvm-4.0.17-windows64\armv7m-none-eabi\libc\lib/libc.a(strchr.o) (__strchrnul)
C:\Users\2166772\Downloads\snapdragon_sd_llvm_arm.win.4.0_installer_41720.103-16-22_11_46_50\Snapdragon_SD_LLVM_ARM_WIN_4_0_Installer_41720_1\Snapdragon-llvm-4.0.17-windows64\armv7m-none-eabi\libc\lib/libc.a(strlcpy.o)
		src\build\aware_client\aware_device_info.o (strlcpy)
C:\Users\2166772\Downloads\snapdragon_sd_llvm_arm.win.4.0_installer_41720.103-16-22_11_46_50\Snapdragon_SD_LLVM_ARM_WIN_4_0_Installer_41720_1\Snapdragon-llvm-4.0.17-windows64\armv7m-none-eabi\libc\lib/libc.a(strlen.o)
		src\build\aware_client\app_utils_str.o (strlen)
C:\Users\2166772\Downloads\snapdragon_sd_llvm_arm.win.4.0_installer_41720.103-16-22_11_46_50\Snapdragon_SD_LLVM_ARM_WIN_4_0_Installer_41720_1\Snapdragon-llvm-4.0.17-windows64\armv7m-none-eabi\libc\lib/libc.a(strncmp.o)
		src\build\aware_client\cJSON.o (strncmp)
C:\Users\2166772\Downloads\snapdragon_sd_llvm_arm.win.4.0_installer_41720.103-16-22_11_46_50\Snapdragon_SD_LLVM_ARM_WIN_4_0_Installer_41720_1\Snapdragon-llvm-4.0.17-windows64\armv7m-none-eabi\libc\lib/libc.a(strspn.o)
		src\build\aware_client\aware_utils.o (strspn)
C:\Users\2166772\Downloads\snapdragon_sd_llvm_arm.win.4.0_installer_41720.103-16-22_11_46_50\Snapdragon_SD_LLVM_ARM_WIN_4_0_Installer_41720_1\Snapdragon-llvm-4.0.17-windows64\armv7m-none-eabi\libc\lib/libc.a(strstr.o)
		src\build\aware_client\aware_main_thread.o (strstr)
C:\Users\2166772\Downloads\snapdragon_sd_llvm_arm.win.4.0_installer_41720.103-16-22_11_46_50\Snapdragon_SD_LLVM_ARM_WIN_4_0_Installer_41720_1\Snapdragon-llvm-4.0.17-windows64\armv7m-none-eabi\libc\lib/libc.a(__wait.o)
		C:\Users\2166772\Downloads\snapdragon_sd_llvm_arm.win.4.0_installer_41720.103-16-22_11_46_50\Snapdragon_SD_LLVM_ARM_WIN_4_0_Installer_41720_1\Snapdragon-llvm-4.0.17-windows64\armv7m-none-eabi\libc\lib/libc.a(malloc.o) (__wait)
C:\Users\2166772\Downloads\snapdragon_sd_llvm_arm.win.4.0_installer_41720.103-16-22_11_46_50\Snapdragon_SD_LLVM_ARM_WIN_4_0_Installer_41720_1\Snapdragon-llvm-4.0.17-windows64\armv7m-none-eabi\libc\lib/libc.a(tolower.o)
		C:\Users\2166772\Downloads\snapdragon_sd_llvm_arm.win.4.0_installer_41720.103-16-22_11_46_50\Snapdragon_SD_LLVM_ARM_WIN_4_0_Installer_41720_1\Snapdragon-llvm-4.0.17-windows64\armv7m-none-eabi\libc\lib/libc.a(strcasecmp.o) (tolower)
C:\Users\2166772\Downloads\snapdragon_sd_llvm_arm.win.4.0_installer_41720.103-16-22_11_46_50\Snapdragon_SD_LLVM_ARM_WIN_4_0_Installer_41720_1\Snapdragon-llvm-4.0.17-windows64\armv7m-none-eabi\libc\lib/libc.a(__errno_location.o)
		C:\Users\2166772\Downloads\snapdragon_sd_llvm_arm.win.4.0_installer_41720.103-16-22_11_46_50\Snapdragon_SD_LLVM_ARM_WIN_4_0_Installer_41720_1\Snapdragon-llvm-4.0.17-windows64\armv7m-none-eabi\libc\lib/libc.a(malloc.o) (__errno_location)
C:\Users\2166772\Downloads\snapdragon_sd_llvm_arm.win.4.0_installer_41720.103-16-22_11_46_50\Snapdragon_SD_LLVM_ARM_WIN_4_0_Installer_41720_1\Snapdragon-llvm-4.0.17-windows64\armv7m-none-eabi\libc\lib/libc.a(strerror.o)
		C:\Users\2166772\Downloads\snapdragon_sd_llvm_arm.win.4.0_installer_41720.103-16-22_11_46_50\Snapdragon_SD_LLVM_ARM_WIN_4_0_Installer_41720_1\Snapdragon-llvm-4.0.17-windows64\armv7m-none-eabi\libc\lib/libc.a(vfprintf.o) (strerror)
C:\Users\2166772\Downloads\snapdragon_sd_llvm_arm.win.4.0_installer_41720.103-16-22_11_46_50\Snapdragon_SD_LLVM_ARM_WIN_4_0_Installer_41720_1\Snapdragon-llvm-4.0.17-windows64\armv7m-none-eabi\libc\lib/libc.a(floatscan.o)
		C:\Users\2166772\Downloads\snapdragon_sd_llvm_arm.win.4.0_installer_41720.103-16-22_11_46_50\Snapdragon_SD_LLVM_ARM_WIN_4_0_Installer_41720_1\Snapdragon-llvm-4.0.17-windows64\armv7m-none-eabi\libc\lib/libc.a(strtod.o) (__floatscan)
C:\Users\2166772\Downloads\snapdragon_sd_llvm_arm.win.4.0_installer_41720.103-16-22_11_46_50\Snapdragon_SD_LLVM_ARM_WIN_4_0_Installer_41720_1\Snapdragon-llvm-4.0.17-windows64\armv7m-none-eabi\libc\lib/libc.a(intscan.o)
		C:\Users\2166772\Downloads\snapdragon_sd_llvm_arm.win.4.0_installer_41720.103-16-22_11_46_50\Snapdragon_SD_LLVM_ARM_WIN_4_0_Installer_41720_1\Snapdragon-llvm-4.0.17-windows64\armv7m-none-eabi\libc\lib/libc.a(strtol.o) (__intscan)
C:\Users\2166772\Downloads\snapdragon_sd_llvm_arm.win.4.0_installer_41720.103-16-22_11_46_50\Snapdragon_SD_LLVM_ARM_WIN_4_0_Installer_41720_1\Snapdragon-llvm-4.0.17-windows64\armv7m-none-eabi\libc\lib/libc.a(libc.o)
		C:\Users\2166772\Downloads\snapdragon_sd_llvm_arm.win.4.0_installer_41720.103-16-22_11_46_50\Snapdragon_SD_LLVM_ARM_WIN_4_0_Installer_41720_1\Snapdragon-llvm-4.0.17-windows64\armv7m-none-eabi\libc\lib/libc.a(malloc.o) (__libc)
C:\Users\2166772\Downloads\snapdragon_sd_llvm_arm.win.4.0_installer_41720.103-16-22_11_46_50\Snapdragon_SD_LLVM_ARM_WIN_4_0_Installer_41720_1\Snapdragon-llvm-4.0.17-windows64\armv7m-none-eabi\libc\lib/libc.a(shgetc.o)
		C:\Users\2166772\Downloads\snapdragon_sd_llvm_arm.win.4.0_installer_41720.103-16-22_11_46_50\Snapdragon_SD_LLVM_ARM_WIN_4_0_Installer_41720_1\Snapdragon-llvm-4.0.17-windows64\armv7m-none-eabi\libc\lib/libc.a(strtod.o) (__shlim)
C:\Users\2166772\Downloads\snapdragon_sd_llvm_arm.win.4.0_installer_41720.103-16-22_11_46_50\Snapdragon_SD_LLVM_ARM_WIN_4_0_Installer_41720_1\Snapdragon-llvm-4.0.17-windows64\armv7m-none-eabi\libc\lib/libc.a(syscall_ret.o)
		C:\Users\2166772\Downloads\snapdragon_sd_llvm_arm.win.4.0_installer_41720.103-16-22_11_46_50\Snapdragon_SD_LLVM_ARM_WIN_4_0_Installer_41720_1\Snapdragon-llvm-4.0.17-windows64\armv7m-none-eabi\libc\lib/libc.a(madvise.o) (__syscall_ret)
C:\Users\2166772\Downloads\snapdragon_sd_llvm_arm.win.4.0_installer_41720.103-16-22_11_46_50\Snapdragon_SD_LLVM_ARM_WIN_4_0_Installer_41720_1\Snapdragon-llvm-4.0.17-windows64\armv7m-none-eabi\libc\lib/libc.a(__lctrans.o)
		C:\Users\2166772\Downloads\snapdragon_sd_llvm_arm.win.4.0_installer_41720.103-16-22_11_46_50\Snapdragon_SD_LLVM_ARM_WIN_4_0_Installer_41720_1\Snapdragon-llvm-4.0.17-windows64\armv7m-none-eabi\libc\lib/libc.a(strerror.o) (__lctrans)
C:\Users\2166772\Downloads\snapdragon_sd_llvm_arm.win.4.0_installer_41720.103-16-22_11_46_50\Snapdragon_SD_LLVM_ARM_WIN_4_0_Installer_41720_1\Snapdragon-llvm-4.0.17-windows64\armv7m-none-eabi\libc\lib/libc.a(expand_heap.o)
		C:\Users\2166772\Downloads\snapdragon_sd_llvm_arm.win.4.0_installer_41720.103-16-22_11_46_50\Snapdragon_SD_LLVM_ARM_WIN_4_0_Installer_41720_1\Snapdragon-llvm-4.0.17-windows64\armv7m-none-eabi\libc\lib/libc.a(malloc.o) (__expand_heap)
C:\Users\2166772\Downloads\snapdragon_sd_llvm_arm.win.4.0_installer_41720.103-16-22_11_46_50\Snapdragon_SD_LLVM_ARM_WIN_4_0_Installer_41720_1\Snapdragon-llvm-4.0.17-windows64\armv7m-none-eabi\libc\lib/libc.a(fabs.o)
		C:\Users\2166772\Downloads\snapdragon_sd_llvm_arm.win.4.0_installer_41720.103-16-22_11_46_50\Snapdragon_SD_LLVM_ARM_WIN_4_0_Installer_41720_1\Snapdragon-llvm-4.0.17-windows64\armv7m-none-eabi\libc\lib/libc.a(pow.o) (fabs)
C:\Users\2166772\Downloads\snapdragon_sd_llvm_arm.win.4.0_installer_41720.103-16-22_11_46_50\Snapdragon_SD_LLVM_ARM_WIN_4_0_Installer_41720_1\Snapdragon-llvm-4.0.17-windows64\armv7m-none-eabi\libc\lib/libc.a(sqrt.o)
		C:\Users\2166772\Downloads\snapdragon_sd_llvm_arm.win.4.0_installer_41720.103-16-22_11_46_50\Snapdragon_SD_LLVM_ARM_WIN_4_0_Installer_41720_1\Snapdragon-llvm-4.0.17-windows64\armv7m-none-eabi\libc\lib/libc.a(pow.o) (sqrt)
C:\Users\2166772\Downloads\snapdragon_sd_llvm_arm.win.4.0_installer_41720.103-16-22_11_46_50\Snapdragon_SD_LLVM_ARM_WIN_4_0_Installer_41720_1\Snapdragon-llvm-4.0.17-windows64\armv7m-none-eabi\libc\lib/libc.a(copysignl.o)
		C:\Users\2166772\Downloads\snapdragon_sd_llvm_arm.win.4.0_installer_41720.103-16-22_11_46_50\Snapdragon_SD_LLVM_ARM_WIN_4_0_Installer_41720_1\Snapdragon-llvm-4.0.17-windows64\armv7m-none-eabi\libc\lib/libc.a(floatscan.o) (copysignl)
C:\Users\2166772\Downloads\snapdragon_sd_llvm_arm.win.4.0_installer_41720.103-16-22_11_46_50\Snapdragon_SD_LLVM_ARM_WIN_4_0_Installer_41720_1\Snapdragon-llvm-4.0.17-windows64\armv7m-none-eabi\libc\lib/libc.a(fmodl.o)
		C:\Users\2166772\Downloads\snapdragon_sd_llvm_arm.win.4.0_installer_41720.103-16-22_11_46_50\Snapdragon_SD_LLVM_ARM_WIN_4_0_Installer_41720_1\Snapdragon-llvm-4.0.17-windows64\armv7m-none-eabi\libc\lib/libc.a(floatscan.o) (fmodl)
C:\Users\2166772\Downloads\snapdragon_sd_llvm_arm.win.4.0_installer_41720.103-16-22_11_46_50\Snapdragon_SD_LLVM_ARM_WIN_4_0_Installer_41720_1\Snapdragon-llvm-4.0.17-windows64\armv7m-none-eabi\libc\lib/libc.a(scalbnl.o)
		C:\Users\2166772\Downloads\snapdragon_sd_llvm_arm.win.4.0_installer_41720.103-16-22_11_46_50\Snapdragon_SD_LLVM_ARM_WIN_4_0_Installer_41720_1\Snapdragon-llvm-4.0.17-windows64\armv7m-none-eabi\libc\lib/libc.a(floatscan.o) (scalbnl)
C:\Users\2166772\Downloads\snapdragon_sd_llvm_arm.win.4.0_installer_41720.103-16-22_11_46_50\Snapdragon_SD_LLVM_ARM_WIN_4_0_Installer_41720_1\Snapdragon-llvm-4.0.17-windows64\armv7m-none-eabi\libc\lib/libc.a(wctomb.o)
		C:\Users\2166772\Downloads\snapdragon_sd_llvm_arm.win.4.0_installer_41720.103-16-22_11_46_50\Snapdragon_SD_LLVM_ARM_WIN_4_0_Installer_41720_1\Snapdragon-llvm-4.0.17-windows64\armv7m-none-eabi\libc\lib/libc.a(vfprintf.o) (wctomb)
C:\Users\2166772\Downloads\snapdragon_sd_llvm_arm.win.4.0_installer_41720.103-16-22_11_46_50\Snapdragon_SD_LLVM_ARM_WIN_4_0_Installer_41720_1\Snapdragon-llvm-4.0.17-windows64\armv7m-none-eabi\libc\lib/libc.a(__towrite.o)
		C:\Users\2166772\Downloads\snapdragon_sd_llvm_arm.win.4.0_installer_41720.103-16-22_11_46_50\Snapdragon_SD_LLVM_ARM_WIN_4_0_Installer_41720_1\Snapdragon-llvm-4.0.17-windows64\armv7m-none-eabi\libc\lib/libc.a(fwrite.o) (__towrite)
C:\Users\2166772\Downloads\snapdragon_sd_llvm_arm.win.4.0_installer_41720.103-16-22_11_46_50\Snapdragon_SD_LLVM_ARM_WIN_4_0_Installer_41720_1\Snapdragon-llvm-4.0.17-windows64\armv7m-none-eabi\libc\lib/libc.a(__uflow.o)
		C:\Users\2166772\Downloads\snapdragon_sd_llvm_arm.win.4.0_installer_41720.103-16-22_11_46_50\Snapdragon_SD_LLVM_ARM_WIN_4_0_Installer_41720_1\Snapdragon-llvm-4.0.17-windows64\armv7m-none-eabi\libc\lib/libc.a(shgetc.o) (__uflow)
C:\Users\2166772\Downloads\snapdragon_sd_llvm_arm.win.4.0_installer_41720.103-16-22_11_46_50\Snapdragon_SD_LLVM_ARM_WIN_4_0_Installer_41720_1\Snapdragon-llvm-4.0.17-windows64\armv7m-none-eabi\libc\lib/libc.a(__lockfile.o)
		C:\Users\2166772\Downloads\snapdragon_sd_llvm_arm.win.4.0_installer_41720.103-16-22_11_46_50\Snapdragon_SD_LLVM_ARM_WIN_4_0_Installer_41720_1\Snapdragon-llvm-4.0.17-windows64\armv7m-none-eabi\libc\lib/libc.a(vfprintf.o) (__lockfile)
C:\Users\2166772\Downloads\snapdragon_sd_llvm_arm.win.4.0_installer_41720.103-16-22_11_46_50\Snapdragon_SD_LLVM_ARM_WIN_4_0_Installer_41720_1\Snapdragon-llvm-4.0.17-windows64\armv7m-none-eabi\libc\lib/libc.a(memcmp.o)
		C:\Users\2166772\Downloads\snapdragon_sd_llvm_arm.win.4.0_installer_41720.103-16-22_11_46_50\Snapdragon_SD_LLVM_ARM_WIN_4_0_Installer_41720_1\Snapdragon-llvm-4.0.17-windows64\armv7m-none-eabi\libc\lib/libc.a(strstr.o) (memcmp)
C:\Users\2166772\Downloads\snapdragon_sd_llvm_arm.win.4.0_installer_41720.103-16-22_11_46_50\Snapdragon_SD_LLVM_ARM_WIN_4_0_Installer_41720_1\Snapdragon-llvm-4.0.17-windows64\armv7m-none-eabi\libc\lib/libc.a(__brk.o)
		C:\Users\2166772\Downloads\snapdragon_sd_llvm_arm.win.4.0_installer_41720.103-16-22_11_46_50\Snapdragon_SD_LLVM_ARM_WIN_4_0_Installer_41720_1\Snapdragon-llvm-4.0.17-windows64\armv7m-none-eabi\libc\lib/libc.a(expand_heap.o) (__brk)
C:\Users\2166772\Downloads\snapdragon_sd_llvm_arm.win.4.0_installer_41720.103-16-22_11_46_50\Snapdragon_SD_LLVM_ARM_WIN_4_0_Installer_41720_1\Snapdragon-llvm-4.0.17-windows64\armv7m-none-eabi\libc\lib/libc.a(copysign.o)
		C:\Users\2166772\Downloads\snapdragon_sd_llvm_arm.win.4.0_installer_41720.103-16-22_11_46_50\Snapdragon_SD_LLVM_ARM_WIN_4_0_Installer_41720_1\Snapdragon-llvm-4.0.17-windows64\armv7m-none-eabi\libc\lib/libc.a(copysignl.o) (copysign)
C:\Users\2166772\Downloads\snapdragon_sd_llvm_arm.win.4.0_installer_41720.103-16-22_11_46_50\Snapdragon_SD_LLVM_ARM_WIN_4_0_Installer_41720_1\Snapdragon-llvm-4.0.17-windows64\armv7m-none-eabi\libc\lib/libc.a(fmod.o)
		C:\Users\2166772\Downloads\snapdragon_sd_llvm_arm.win.4.0_installer_41720.103-16-22_11_46_50\Snapdragon_SD_LLVM_ARM_WIN_4_0_Installer_41720_1\Snapdragon-llvm-4.0.17-windows64\armv7m-none-eabi\libc\lib/libc.a(fmodl.o) (fmod)
C:\Users\2166772\Downloads\snapdragon_sd_llvm_arm.win.4.0_installer_41720.103-16-22_11_46_50\Snapdragon_SD_LLVM_ARM_WIN_4_0_Installer_41720_1\Snapdragon-llvm-4.0.17-windows64\armv7m-none-eabi\libc\lib/libc.a(wcrtomb.o)
		C:\Users\2166772\Downloads\snapdragon_sd_llvm_arm.win.4.0_installer_41720.103-16-22_11_46_50\Snapdragon_SD_LLVM_ARM_WIN_4_0_Installer_41720_1\Snapdragon-llvm-4.0.17-windows64\armv7m-none-eabi\libc\lib/libc.a(wctomb.o) (wcrtomb)
C:\Users\2166772\Downloads\snapdragon_sd_llvm_arm.win.4.0_installer_41720.103-16-22_11_46_50\Snapdragon_SD_LLVM_ARM_WIN_4_0_Installer_41720_1\Snapdragon-llvm-4.0.17-windows64\armv7m-none-eabi\libc\lib/libc.a(__stdio_exit.o)
		C:\Users\2166772\Downloads\snapdragon_sd_llvm_arm.win.4.0_installer_41720.103-16-22_11_46_50\Snapdragon_SD_LLVM_ARM_WIN_4_0_Installer_41720_1\Snapdragon-llvm-4.0.17-windows64\armv7m-none-eabi\libc\lib/libc.a(__towrite.o) (__stdio_exit_needed)
C:\Users\2166772\Downloads\snapdragon_sd_llvm_arm.win.4.0_installer_41720.103-16-22_11_46_50\Snapdragon_SD_LLVM_ARM_WIN_4_0_Installer_41720_1\Snapdragon-llvm-4.0.17-windows64\armv7m-none-eabi\libc\lib/libc.a(__toread.o)
		C:\Users\2166772\Downloads\snapdragon_sd_llvm_arm.win.4.0_installer_41720.103-16-22_11_46_50\Snapdragon_SD_LLVM_ARM_WIN_4_0_Installer_41720_1\Snapdragon-llvm-4.0.17-windows64\armv7m-none-eabi\libc\lib/libc.a(__uflow.o) (__toread)
C:\Users\2166772\Downloads\snapdragon_sd_llvm_arm.win.4.0_installer_41720.103-16-22_11_46_50\Snapdragon_SD_LLVM_ARM_WIN_4_0_Installer_41720_1\Snapdragon-llvm-4.0.17-windows64\armv7m-none-eabi\libc\lib/libc.a(ofl.o)
		C:\Users\2166772\Downloads\snapdragon_sd_llvm_arm.win.4.0_installer_41720.103-16-22_11_46_50\Snapdragon_SD_LLVM_ARM_WIN_4_0_Installer_41720_1\Snapdragon-llvm-4.0.17-windows64\armv7m-none-eabi\libc\lib/libc.a(__stdio_exit.o) (__ofl_lock)
C:\Users\2166772\Downloads\snapdragon_sd_llvm_arm.win.4.0_installer_41720.103-16-22_11_46_50\Snapdragon_SD_LLVM_ARM_WIN_4_0_Installer_41720_1\Snapdragon-llvm-4.0.17-windows64\lib\clang\4.0.17\lib\baremetal/libclang_rt.builtins-armv7m.a(aeabi_dcmp.S.obj)
		C:\Users\2166772\Downloads\snapdragon_sd_llvm_arm.win.4.0_installer_41720.103-16-22_11_46_50\Snapdragon_SD_LLVM_ARM_WIN_4_0_Installer_41720_1\Snapdragon-llvm-4.0.17-windows64\armv7m-none-eabi\libc\lib/libc.a(floor.o) (__aeabi_dcmpeq)
C:\Users\2166772\Downloads\snapdragon_sd_llvm_arm.win.4.0_installer_41720.103-16-22_11_46_50\Snapdragon_SD_LLVM_ARM_WIN_4_0_Installer_41720_1\Snapdragon-llvm-4.0.17-windows64\lib\clang\4.0.17\lib\baremetal/libclang_rt.builtins-armv7m.a(aeabi_fcmp.S.obj)
		src\build\aware_client\gnss_worker_sm.o (__aeabi_fcmpgt)
C:\Users\2166772\Downloads\snapdragon_sd_llvm_arm.win.4.0_installer_41720.103-16-22_11_46_50\Snapdragon_SD_LLVM_ARM_WIN_4_0_Installer_41720_1\Snapdragon-llvm-4.0.17-windows64\lib\clang\4.0.17\lib\baremetal/libclang_rt.builtins-armv7m.a(aeabi_ldivmod.S.obj)
		src\build\aware_client\aware_utils.o (__aeabi_ldivmod)
C:\Users\2166772\Downloads\snapdragon_sd_llvm_arm.win.4.0_installer_41720.103-16-22_11_46_50\Snapdragon_SD_LLVM_ARM_WIN_4_0_Installer_41720_1\Snapdragon-llvm-4.0.17-windows64\lib\clang\4.0.17\lib\baremetal/libclang_rt.builtins-armv7m.a(aeabi_uldivmod.S.obj)
		src\build\aware_client\app_utils_log.o (__aeabi_uldivmod)
C:\Users\2166772\Downloads\snapdragon_sd_llvm_arm.win.4.0_installer_41720.103-16-22_11_46_50\Snapdragon_SD_LLVM_ARM_WIN_4_0_Installer_41720_1\Snapdragon-llvm-4.0.17-windows64\lib\clang\4.0.17\lib\baremetal/libclang_rt.builtins-armv7m.a(adddf3.c.obj)
		src\build\aware_client\aware_utils.o (__aeabi_dadd)
C:\Users\2166772\Downloads\snapdragon_sd_llvm_arm.win.4.0_installer_41720.103-16-22_11_46_50\Snapdragon_SD_LLVM_ARM_WIN_4_0_Installer_41720_1\Snapdragon-llvm-4.0.17-windows64\lib\clang\4.0.17\lib\baremetal/libclang_rt.builtins-armv7m.a(addsf3.c.obj)
		src\build\aware_client\app_utils_str.o (__aeabi_fadd)
C:\Users\2166772\Downloads\snapdragon_sd_llvm_arm.win.4.0_installer_41720.103-16-22_11_46_50\Snapdragon_SD_LLVM_ARM_WIN_4_0_Installer_41720_1\Snapdragon-llvm-4.0.17-windows64\lib\clang\4.0.17\lib\baremetal/libclang_rt.builtins-armv7m.a(comparedf2.c.obj)
		C:\Users\2166772\Downloads\snapdragon_sd_llvm_arm.win.4.0_installer_41720.103-16-22_11_46_50\Snapdragon_SD_LLVM_ARM_WIN_4_0_Installer_41720_1\Snapdragon-llvm-4.0.17-windows64\lib\clang\4.0.17\lib\baremetal/libclang_rt.builtins-armv7m.a(aeabi_dcmp.S.obj) (__eqdf2)
C:\Users\2166772\Downloads\snapdragon_sd_llvm_arm.win.4.0_installer_41720.103-16-22_11_46_50\Snapdragon_SD_LLVM_ARM_WIN_4_0_Installer_41720_1\Snapdragon-llvm-4.0.17-windows64\lib\clang\4.0.17\lib\baremetal/libclang_rt.builtins-armv7m.a(comparesf2.c.obj)
		C:\Users\2166772\Downloads\snapdragon_sd_llvm_arm.win.4.0_installer_41720.103-16-22_11_46_50\Snapdragon_SD_LLVM_ARM_WIN_4_0_Installer_41720_1\Snapdragon-llvm-4.0.17-windows64\lib\clang\4.0.17\lib\baremetal/libclang_rt.builtins-armv7m.a(aeabi_fcmp.S.obj) (__eqsf2)
C:\Users\2166772\Downloads\snapdragon_sd_llvm_arm.win.4.0_installer_41720.103-16-22_11_46_50\Snapdragon_SD_LLVM_ARM_WIN_4_0_Installer_41720_1\Snapdragon-llvm-4.0.17-windows64\lib\clang\4.0.17\lib\baremetal/libclang_rt.builtins-armv7m.a(divdf3.c.obj)
		C:\Users\2166772\Downloads\snapdragon_sd_llvm_arm.win.4.0_installer_41720.103-16-22_11_46_50\Snapdragon_SD_LLVM_ARM_WIN_4_0_Installer_41720_1\Snapdragon-llvm-4.0.17-windows64\armv7m-none-eabi\libc\lib/libc.a(pow.o) (__aeabi_ddiv)
C:\Users\2166772\Downloads\snapdragon_sd_llvm_arm.win.4.0_installer_41720.103-16-22_11_46_50\Snapdragon_SD_LLVM_ARM_WIN_4_0_Installer_41720_1\Snapdragon-llvm-4.0.17-windows64\lib\clang\4.0.17\lib\baremetal/libclang_rt.builtins-armv7m.a(divmoddi4.c.obj)
		C:\Users\2166772\Downloads\snapdragon_sd_llvm_arm.win.4.0_installer_41720.103-16-22_11_46_50\Snapdragon_SD_LLVM_ARM_WIN_4_0_Installer_41720_1\Snapdragon-llvm-4.0.17-windows64\lib\clang\4.0.17\lib\baremetal/libclang_rt.builtins-armv7m.a(aeabi_ldivmod.S.obj) (__divmoddi4)
C:\Users\2166772\Downloads\snapdragon_sd_llvm_arm.win.4.0_installer_41720.103-16-22_11_46_50\Snapdragon_SD_LLVM_ARM_WIN_4_0_Installer_41720_1\Snapdragon-llvm-4.0.17-windows64\lib\clang\4.0.17\lib\baremetal/libclang_rt.builtins-armv7m.a(divsf3.c.obj)
		src\build\aware_client\app_utils_str.o (__aeabi_fdiv)
C:\Users\2166772\Downloads\snapdragon_sd_llvm_arm.win.4.0_installer_41720.103-16-22_11_46_50\Snapdragon_SD_LLVM_ARM_WIN_4_0_Installer_41720_1\Snapdragon-llvm-4.0.17-windows64\lib\clang\4.0.17\lib\baremetal/libclang_rt.builtins-armv7m.a(extendsfdf2.c.obj)
		src\build\aware_client\aware_main_thread.o (__aeabi_f2d)
C:\Users\2166772\Downloads\snapdragon_sd_llvm_arm.win.4.0_installer_41720.103-16-22_11_46_50\Snapdragon_SD_LLVM_ARM_WIN_4_0_Installer_41720_1\Snapdragon-llvm-4.0.17-windows64\lib\clang\4.0.17\lib\baremetal/libclang_rt.builtins-armv7m.a(fixdfdi.c.obj)
		src\build\aware_client\aware_utils.o (__aeabi_d2lz)
C:\Users\2166772\Downloads\snapdragon_sd_llvm_arm.win.4.0_installer_41720.103-16-22_11_46_50\Snapdragon_SD_LLVM_ARM_WIN_4_0_Installer_41720_1\Snapdragon-llvm-4.0.17-windows64\lib\clang\4.0.17\lib\baremetal/libclang_rt.builtins-armv7m.a(fixdfsi.c.obj)
		src\build\aware_client\app_utils_log.o (__aeabi_d2iz)
C:\Users\2166772\Downloads\snapdragon_sd_llvm_arm.win.4.0_installer_41720.103-16-22_11_46_50\Snapdragon_SD_LLVM_ARM_WIN_4_0_Installer_41720_1\Snapdragon-llvm-4.0.17-windows64\lib\clang\4.0.17\lib\baremetal/libclang_rt.builtins-armv7m.a(fixsfsi.c.obj)
		src\build\aware_client\app_utils_log.o (__aeabi_f2iz)
C:\Users\2166772\Downloads\snapdragon_sd_llvm_arm.win.4.0_installer_41720.103-16-22_11_46_50\Snapdragon_SD_LLVM_ARM_WIN_4_0_Installer_41720_1\Snapdragon-llvm-4.0.17-windows64\lib\clang\4.0.17\lib\baremetal/libclang_rt.builtins-armv7m.a(fixunsdfdi.c.obj)
		C:\Users\2166772\Downloads\snapdragon_sd_llvm_arm.win.4.0_installer_41720.103-16-22_11_46_50\Snapdragon_SD_LLVM_ARM_WIN_4_0_Installer_41720_1\Snapdragon-llvm-4.0.17-windows64\lib\clang\4.0.17\lib\baremetal/libclang_rt.builtins-armv7m.a(fixdfdi.c.obj) (__fixunsdfdi)
C:\Users\2166772\Downloads\snapdragon_sd_llvm_arm.win.4.0_installer_41720.103-16-22_11_46_50\Snapdragon_SD_LLVM_ARM_WIN_4_0_Installer_41720_1\Snapdragon-llvm-4.0.17-windows64\lib\clang\4.0.17\lib\baremetal/libclang_rt.builtins-armv7m.a(fixunsdfsi.c.obj)
		C:\Users\2166772\Downloads\snapdragon_sd_llvm_arm.win.4.0_installer_41720.103-16-22_11_46_50\Snapdragon_SD_LLVM_ARM_WIN_4_0_Installer_41720_1\Snapdragon-llvm-4.0.17-windows64\lib\clang\4.0.17\lib\baremetal/libclang_rt.builtins-armv7m.a(fixunsdfdi.c.obj) (__aeabi_d2uiz)
C:\Users\2166772\Downloads\snapdragon_sd_llvm_arm.win.4.0_installer_41720.103-16-22_11_46_50\Snapdragon_SD_LLVM_ARM_WIN_4_0_Installer_41720_1\Snapdragon-llvm-4.0.17-windows64\lib\clang\4.0.17\lib\baremetal/libclang_rt.builtins-armv7m.a(floatdidf.c.obj)
		src\build\aware_client\aware_utils.o (__aeabi_l2d)
C:\Users\2166772\Downloads\snapdragon_sd_llvm_arm.win.4.0_installer_41720.103-16-22_11_46_50\Snapdragon_SD_LLVM_ARM_WIN_4_0_Installer_41720_1\Snapdragon-llvm-4.0.17-windows64\lib\clang\4.0.17\lib\baremetal/libclang_rt.builtins-armv7m.a(floatsidf.c.obj)
		src\build\aware_client\cJSON.o (__aeabi_i2d)
C:\Users\2166772\Downloads\snapdragon_sd_llvm_arm.win.4.0_installer_41720.103-16-22_11_46_50\Snapdragon_SD_LLVM_ARM_WIN_4_0_Installer_41720_1\Snapdragon-llvm-4.0.17-windows64\lib\clang\4.0.17\lib\baremetal/libclang_rt.builtins-armv7m.a(floatsisf.c.obj)
		src\build\aware_client\app_utils_str.o (__aeabi_i2f)
C:\Users\2166772\Downloads\snapdragon_sd_llvm_arm.win.4.0_installer_41720.103-16-22_11_46_50\Snapdragon_SD_LLVM_ARM_WIN_4_0_Installer_41720_1\Snapdragon-llvm-4.0.17-windows64\lib\clang\4.0.17\lib\baremetal/libclang_rt.builtins-armv7m.a(floatunsidf.c.obj)
		C:\Users\2166772\Downloads\snapdragon_sd_llvm_arm.win.4.0_installer_41720.103-16-22_11_46_50\Snapdragon_SD_LLVM_ARM_WIN_4_0_Installer_41720_1\Snapdragon-llvm-4.0.17-windows64\armv7m-none-eabi\libc\lib/libc.a(floatscan.o) (__aeabi_ui2d)
C:\Users\2166772\Downloads\snapdragon_sd_llvm_arm.win.4.0_installer_41720.103-16-22_11_46_50\Snapdragon_SD_LLVM_ARM_WIN_4_0_Installer_41720_1\Snapdragon-llvm-4.0.17-windows64\lib\clang\4.0.17\lib\baremetal/libclang_rt.builtins-armv7m.a(muldf3.c.obj)
		src\build\aware_client\app_utils_log.o (__aeabi_dmul)
C:\Users\2166772\Downloads\snapdragon_sd_llvm_arm.win.4.0_installer_41720.103-16-22_11_46_50\Snapdragon_SD_LLVM_ARM_WIN_4_0_Installer_41720_1\Snapdragon-llvm-4.0.17-windows64\lib\clang\4.0.17\lib\baremetal/libclang_rt.builtins-armv7m.a(mulsf3.c.obj)
		src\build\aware_client\app_utils_log.o (__aeabi_fmul)
C:\Users\2166772\Downloads\snapdragon_sd_llvm_arm.win.4.0_installer_41720.103-16-22_11_46_50\Snapdragon_SD_LLVM_ARM_WIN_4_0_Installer_41720_1\Snapdragon-llvm-4.0.17-windows64\lib\clang\4.0.17\lib\baremetal/libclang_rt.builtins-armv7m.a(subdf3.c.obj)
		src\build\aware_client\aware_utils.o (__aeabi_dsub)
C:\Users\2166772\Downloads\snapdragon_sd_llvm_arm.win.4.0_installer_41720.103-16-22_11_46_50\Snapdragon_SD_LLVM_ARM_WIN_4_0_Installer_41720_1\Snapdragon-llvm-4.0.17-windows64\lib\clang\4.0.17\lib\baremetal/libclang_rt.builtins-armv7m.a(truncdfsf2.c.obj)
		src\build\aware_client\config_parser.o (__aeabi_d2f)
C:\Users\2166772\Downloads\snapdragon_sd_llvm_arm.win.4.0_installer_41720.103-16-22_11_46_50\Snapdragon_SD_LLVM_ARM_WIN_4_0_Installer_41720_1\Snapdragon-llvm-4.0.17-windows64\lib\clang\4.0.17\lib\baremetal/libclang_rt.builtins-armv7m.a(udivmoddi4.c.obj)
		C:\Users\2166772\Downloads\snapdragon_sd_llvm_arm.win.4.0_installer_41720.103-16-22_11_46_50\Snapdragon_SD_LLVM_ARM_WIN_4_0_Installer_41720_1\Snapdragon-llvm-4.0.17-windows64\lib\clang\4.0.17\lib\baremetal/libclang_rt.builtins-armv7m.a(aeabi_uldivmod.S.obj) (__udivmoddi4)
C:\Users\2166772\Downloads\snapdragon_sd_llvm_arm.win.4.0_installer_41720.103-16-22_11_46_50\Snapdragon_SD_LLVM_ARM_WIN_4_0_Installer_41720_1\Snapdragon-llvm-4.0.17-windows64\lib\clang\4.0.17\lib\baremetal/libclang_rt.builtins-armv7m.a(divdi3.c.obj)
		C:\Users\2166772\Downloads\snapdragon_sd_llvm_arm.win.4.0_installer_41720.103-16-22_11_46_50\Snapdragon_SD_LLVM_ARM_WIN_4_0_Installer_41720_1\Snapdragon-llvm-4.0.17-windows64\lib\clang\4.0.17\lib\baremetal/libclang_rt.builtins-armv7m.a(divmoddi4.c.obj) (__divdi3)

Allocating common symbols
Common symbol	size	file

app_ctx	0x1f8	src\build\aware_client\aware_app.o
location	0x50	src\build\aware_client\aware_main_thread.o
coap_local_ip	0x10	src\build\aware_client\data_mgr.o
coap_signal_handle	0x4	src\build\aware_client\data_mgr_coap.o
coap_url_info	0xd0	src\build\aware_client\data_mgr_coap.o
data_mgr_dss_signal_handle	0x4	src\build\aware_client\data_mgr_thread.o
http_release_handle	0x4	src\build\aware_client\fota_dam_download.o
sensor_handle	0x4	src\build\aware_client\sensor_mgr.o
sensor_mgr_signal	0x4	src\build\aware_client\sensor_mgr_thread.o
timer_client_stack	0x1000	common\libs\timer_dam_lib.lib(qapi_timer_user.o)
timer_client_module_thread	0x4	common\libs\timer_dam_lib.lib(qapi_timer_user.o)
timer_thread_state	0x4	common\libs\timer_dam_lib.lib(qapi_timer_user.o)
timer_user_handle	0x4	common\libs\timer_dam_lib.lib(qapi_timer_user.o)
_txm_module_entry_info	0x4	common\libs\txm_lib.lib(txm_module_thread_shell_entry.o)
_txm_module_kernel_call_dispatcher	0x4	common\libs\txm_lib.lib(txm_module_thread_shell_entry.o)
__libc	0x40	C:\Users\2166772\Downloads\snapdragon_sd_llvm_arm.win.4.0_installer_41720.103-16-22_11_46_50\Snapdragon_SD_LLVM_ARM_WIN_4_0_Installer_41720_1\Snapdragon-llvm-4.0.17-windows64\armv7m-none-eabi\libc\lib/libc.a(libc.o)

Linker Script and memory map
LOAD src\build\aware_client\txm_module_preamble_llvm.o[]
LOAD src\build\aware_client\app_config.o[]
LOAD src\build\aware_client\app_msg_q.o[]
LOAD src\build\aware_client\app_thread.o[]
LOAD src\build\aware_client\app_utils_list.o[]
LOAD src\build\aware_client\app_utils_log.o[]
LOAD src\build\aware_client\app_utils_mem.o[]
LOAD src\build\aware_client\app_utils_str.o[]
LOAD src\build\aware_client\app_utils_time.o[]
LOAD src\build\aware_client\aware_app.o[]
LOAD src\build\aware_client\aware_app_state.o[]
LOAD src\build\aware_client\aware_device_info.o[]
LOAD src\build\aware_client\aware_health_check.o[]
LOAD src\build\aware_client\aware_log.o[]
LOAD src\build\aware_client\aware_main_thread.o[]
LOAD src\build\aware_client\aware_psm.o[]
LOAD src\build\aware_client\aware_utils.o[]
LOAD src\build\aware_client\cfg_mgr_util.o[]
LOAD src\build\aware_client\cJSON.o[]
LOAD src\build\aware_client\config_parser.o[]
LOAD src\build\aware_client\data_mgr.o[]
LOAD src\build\aware_client\data_mgr_coap.o[]
LOAD src\build\aware_client\data_mgr_device_info.o[]
LOAD src\build\aware_client\data_mgr_dss.o[]
LOAD src\build\aware_client\data_mgr_queue.o[]
LOAD src\build\aware_client\data_mgr_thread.o[]
LOAD src\build\aware_client\data_mgr_utils.o[]
LOAD src\build\aware_client\device_common_config.o[]
LOAD src\build\aware_client\device_general_config.o[]
LOAD src\build\aware_client\device_unique_config.o[]
LOAD src\build\aware_client\dictionary.o[]
LOAD src\build\aware_client\fota_client.o[]
LOAD src\build\aware_client\fota_dam_download.o[]
LOAD src\build\aware_client\fota_dam_swapping.o[]
LOAD src\build\aware_client\fota_thread.o[]
LOAD src\build\aware_client\gnss_worker_sm.o[]
LOAD src\build\aware_client\gnss_worker_thread.o[]
LOAD src\build\aware_client\gnss_worker_utils.o[]
LOAD src\build\aware_client\led_config.o[]
LOAD src\build\aware_client\location.pb.o[]
LOAD src\build\aware_client\pb_common.o[]
LOAD src\build\aware_client\pb_decode.o[]
LOAD src\build\aware_client\pb_encode.o[]
LOAD src\build\aware_client\qapi_loc_callbacks.o[]
LOAD src\build\aware_client\qapi_loc_wrapper.o[]
LOAD src\build\aware_client\runtime_config.o[]
LOAD src\build\aware_client\sensor_config.o[]
LOAD src\build\aware_client\sensor_mgr.o[]
LOAD src\build\aware_client\sensor_mgr_thread.o[]
LOAD src\build\aware_client\sensor_mgr_utils.o[]
LOAD src\build\aware_client\transport_config.o[]
SKIPPED src\build\aware_client\txm_module_preamble_llvm.o (ELF)
LOAD src\build\aware_client\version_config.o[]
LOAD common\libs\qapi_psm_lib.lib(qapi_psm_user.o) []
LOAD common\libs\timer_dam_lib.lib(qapi_timer_user.o) []
LOAD common\libs\txm_lib.lib(txm_module_thread_shell_entry.o) []
LOAD common\libs\txm_lib.lib(txm_module_callback_request_thread_entry.o) []
LOAD common\libs\txm_lib.lib(txm_module_system_call11.o) []
LOAD common\libs\txm_lib.lib(txm_module_system_call12.o) []
LOAD common\libs\txm_lib.lib(txm_byte_pool_create.o) []
LOAD common\libs\txm_lib.lib(txm_byte_allocate.o) []
LOAD common\libs\txm_lib.lib(txm_byte_release.o) []
LOAD common\libs\txm_lib.lib(txm_event_flags_create.o) []
LOAD common\libs\txm_lib.lib(txm_event_flags_delete.o) []
LOAD common\libs\txm_lib.lib(txm_event_flags_get.o) []
LOAD common\libs\txm_lib.lib(txm_event_flags_info_get.o) []
LOAD common\libs\txm_lib.lib(txm_event_flags_set.o) []
LOAD common\libs\txm_lib.lib(txm_module_object_allocate.o) []
LOAD common\libs\txm_lib.lib(txm_module_object_deallocate.o) []
LOAD common\libs\txm_lib.lib(txm_module_thread_system_suspend.o) []
LOAD common\libs\txm_lib.lib(txm_mutex_create.o) []
LOAD common\libs\txm_lib.lib(txm_mutex_delete.o) []
LOAD common\libs\txm_lib.lib(txm_mutex_get.o) []
LOAD common\libs\txm_lib.lib(txm_mutex_put.o) []
LOAD common\libs\txm_lib.lib(txm_queue_receive.o) []
LOAD common\libs\txm_lib.lib(txm_thread_create.o) []
LOAD common\libs\txm_lib.lib(txm_thread_delete.o) []
LOAD common\libs\txm_lib.lib(txm_thread_identify.o) []
LOAD common\libs\txm_lib.lib(txm_thread_preemption_change.o) []
LOAD common\libs\txm_lib.lib(txm_thread_resume.o) []
LOAD common\libs\txm_lib.lib(txm_thread_sleep.o) []
LOAD common\libs\txm_lib.lib(txm_thread_terminate.o) []
LOAD common\libs\txm_lib.lib(txm_time_get.o) []
START GROUP
END GROUP
START GROUP
LOAD C:\Users\2166772\Downloads\snapdragon_sd_llvm_arm.win.4.0_installer_41720.103-16-22_11_46_50\Snapdragon_SD_LLVM_ARM_WIN_4_0_Installer_41720_1\Snapdragon-llvm-4.0.17-windows64\armv7m-none-eabi\libc\lib/libc.a(malloc.o) []
LOAD C:\Users\2166772\Downloads\snapdragon_sd_llvm_arm.win.4.0_installer_41720.103-16-22_11_46_50\Snapdragon_SD_LLVM_ARM_WIN_4_0_Installer_41720_1\Snapdragon-llvm-4.0.17-windows64\armv7m-none-eabi\libc\lib/libc.a(floor.o) []
LOAD C:\Users\2166772\Downloads\snapdragon_sd_llvm_arm.win.4.0_installer_41720.103-16-22_11_46_50\Snapdragon_SD_LLVM_ARM_WIN_4_0_Installer_41720_1\Snapdragon-llvm-4.0.17-windows64\armv7m-none-eabi\libc\lib/libc.a(pow.o) []
LOAD C:\Users\2166772\Downloads\snapdragon_sd_llvm_arm.win.4.0_installer_41720.103-16-22_11_46_50\Snapdragon_SD_LLVM_ARM_WIN_4_0_Installer_41720_1\Snapdragon-llvm-4.0.17-windows64\armv7m-none-eabi\libc\lib/libc.a(scalbn.o) []
LOAD C:\Users\2166772\Downloads\snapdragon_sd_llvm_arm.win.4.0_installer_41720.103-16-22_11_46_50\Snapdragon_SD_LLVM_ARM_WIN_4_0_Installer_41720_1\Snapdragon-llvm-4.0.17-windows64\armv7m-none-eabi\libc\lib/libc.a(madvise.o) []
LOAD C:\Users\2166772\Downloads\snapdragon_sd_llvm_arm.win.4.0_installer_41720.103-16-22_11_46_50\Snapdragon_SD_LLVM_ARM_WIN_4_0_Installer_41720_1\Snapdragon-llvm-4.0.17-windows64\armv7m-none-eabi\libc\lib/libc.a(mremap.o) []
LOAD C:\Users\2166772\Downloads\snapdragon_sd_llvm_arm.win.4.0_installer_41720.103-16-22_11_46_50\Snapdragon_SD_LLVM_ARM_WIN_4_0_Installer_41720_1\Snapdragon-llvm-4.0.17-windows64\armv7m-none-eabi\libc\lib/libc.a(munmap.o) []
LOAD C:\Users\2166772\Downloads\snapdragon_sd_llvm_arm.win.4.0_installer_41720.103-16-22_11_46_50\Snapdragon_SD_LLVM_ARM_WIN_4_0_Installer_41720_1\Snapdragon-llvm-4.0.17-windows64\armv7m-none-eabi\libc\lib/libc.a(vfprintf.o) []
LOAD C:\Users\2166772\Downloads\snapdragon_sd_llvm_arm.win.4.0_installer_41720.103-16-22_11_46_50\Snapdragon_SD_LLVM_ARM_WIN_4_0_Installer_41720_1\Snapdragon-llvm-4.0.17-windows64\armv7m-none-eabi\libc\lib/libc.a(fwrite.o) []
LOAD C:\Users\2166772\Downloads\snapdragon_sd_llvm_arm.win.4.0_installer_41720.103-16-22_11_46_50\Snapdragon_SD_LLVM_ARM_WIN_4_0_Installer_41720_1\Snapdragon-llvm-4.0.17-windows64\armv7m-none-eabi\libc\lib/libc.a(snprintf.o) []
LOAD C:\Users\2166772\Downloads\snapdragon_sd_llvm_arm.win.4.0_installer_41720.103-16-22_11_46_50\Snapdragon_SD_LLVM_ARM_WIN_4_0_Installer_41720_1\Snapdragon-llvm-4.0.17-windows64\armv7m-none-eabi\libc\lib/libc.a(vsnprintf.o) []
LOAD C:\Users\2166772\Downloads\snapdragon_sd_llvm_arm.win.4.0_installer_41720.103-16-22_11_46_50\Snapdragon_SD_LLVM_ARM_WIN_4_0_Installer_41720_1\Snapdragon-llvm-4.0.17-windows64\armv7m-none-eabi\libc\lib/libc.a(atof.o) []
LOAD C:\Users\2166772\Downloads\snapdragon_sd_llvm_arm.win.4.0_installer_41720.103-16-22_11_46_50\Snapdragon_SD_LLVM_ARM_WIN_4_0_Installer_41720_1\Snapdragon-llvm-4.0.17-windows64\armv7m-none-eabi\libc\lib/libc.a(atoi.o) []
LOAD C:\Users\2166772\Downloads\snapdragon_sd_llvm_arm.win.4.0_installer_41720.103-16-22_11_46_50\Snapdragon_SD_LLVM_ARM_WIN_4_0_Installer_41720_1\Snapdragon-llvm-4.0.17-windows64\armv7m-none-eabi\libc\lib/libc.a(strtod.o) []
LOAD C:\Users\2166772\Downloads\snapdragon_sd_llvm_arm.win.4.0_installer_41720.103-16-22_11_46_50\Snapdragon_SD_LLVM_ARM_WIN_4_0_Installer_41720_1\Snapdragon-llvm-4.0.17-windows64\armv7m-none-eabi\libc\lib/libc.a(strtol.o) []
LOAD C:\Users\2166772\Downloads\snapdragon_sd_llvm_arm.win.4.0_installer_41720.103-16-22_11_46_50\Snapdragon_SD_LLVM_ARM_WIN_4_0_Installer_41720_1\Snapdragon-llvm-4.0.17-windows64\armv7m-none-eabi\libc\lib/libc.a(__aeabi_memclr.o) []
LOAD C:\Users\2166772\Downloads\snapdragon_sd_llvm_arm.win.4.0_installer_41720.103-16-22_11_46_50\Snapdragon_SD_LLVM_ARM_WIN_4_0_Installer_41720_1\Snapdragon-llvm-4.0.17-windows64\armv7m-none-eabi\libc\lib/libc.a(__aeabi_memcpy.o) []
LOAD C:\Users\2166772\Downloads\snapdragon_sd_llvm_arm.win.4.0_installer_41720.103-16-22_11_46_50\Snapdragon_SD_LLVM_ARM_WIN_4_0_Installer_41720_1\Snapdragon-llvm-4.0.17-windows64\armv7m-none-eabi\libc\lib/libc.a(memcpy_le.o) []
LOAD C:\Users\2166772\Downloads\snapdragon_sd_llvm_arm.win.4.0_installer_41720.103-16-22_11_46_50\Snapdragon_SD_LLVM_ARM_WIN_4_0_Installer_41720_1\Snapdragon-llvm-4.0.17-windows64\armv7m-none-eabi\libc\lib/libc.a(memset_nofp_armv7.o) []
LOAD C:\Users\2166772\Downloads\snapdragon_sd_llvm_arm.win.4.0_installer_41720.103-16-22_11_46_50\Snapdragon_SD_LLVM_ARM_WIN_4_0_Installer_41720_1\Snapdragon-llvm-4.0.17-windows64\armv7m-none-eabi\libc\lib/libc.a(memchr.o) []
LOAD C:\Users\2166772\Downloads\snapdragon_sd_llvm_arm.win.4.0_installer_41720.103-16-22_11_46_50\Snapdragon_SD_LLVM_ARM_WIN_4_0_Installer_41720_1\Snapdragon-llvm-4.0.17-windows64\armv7m-none-eabi\libc\lib/libc.a(strcasecmp.o) []
LOAD C:\Users\2166772\Downloads\snapdragon_sd_llvm_arm.win.4.0_installer_41720.103-16-22_11_46_50\Snapdragon_SD_LLVM_ARM_WIN_4_0_Installer_41720_1\Snapdragon-llvm-4.0.17-windows64\armv7m-none-eabi\libc\lib/libc.a(strchr.o) []
LOAD C:\Users\2166772\Downloads\snapdragon_sd_llvm_arm.win.4.0_installer_41720.103-16-22_11_46_50\Snapdragon_SD_LLVM_ARM_WIN_4_0_Installer_41720_1\Snapdragon-llvm-4.0.17-windows64\armv7m-none-eabi\libc\lib/libc.a(strchrnul.o) []
LOAD C:\Users\2166772\Downloads\snapdragon_sd_llvm_arm.win.4.0_installer_41720.103-16-22_11_46_50\Snapdragon_SD_LLVM_ARM_WIN_4_0_Installer_41720_1\Snapdragon-llvm-4.0.17-windows64\armv7m-none-eabi\libc\lib/libc.a(strlcpy.o) []
LOAD C:\Users\2166772\Downloads\snapdragon_sd_llvm_arm.win.4.0_installer_41720.103-16-22_11_46_50\Snapdragon_SD_LLVM_ARM_WIN_4_0_Installer_41720_1\Snapdragon-llvm-4.0.17-windows64\armv7m-none-eabi\libc\lib/libc.a(strlen.o) []
LOAD C:\Users\2166772\Downloads\snapdragon_sd_llvm_arm.win.4.0_installer_41720.103-16-22_11_46_50\Snapdragon_SD_LLVM_ARM_WIN_4_0_Installer_41720_1\Snapdragon-llvm-4.0.17-windows64\armv7m-none-eabi\libc\lib/libc.a(strncmp.o) []
LOAD C:\Users\2166772\Downloads\snapdragon_sd_llvm_arm.win.4.0_installer_41720.103-16-22_11_46_50\Snapdragon_SD_LLVM_ARM_WIN_4_0_Installer_41720_1\Snapdragon-llvm-4.0.17-windows64\armv7m-none-eabi\libc\lib/libc.a(strspn.o) []
LOAD C:\Users\2166772\Downloads\snapdragon_sd_llvm_arm.win.4.0_installer_41720.103-16-22_11_46_50\Snapdragon_SD_LLVM_ARM_WIN_4_0_Installer_41720_1\Snapdragon-llvm-4.0.17-windows64\armv7m-none-eabi\libc\lib/libc.a(strstr.o) []
LOAD C:\Users\2166772\Downloads\snapdragon_sd_llvm_arm.win.4.0_installer_41720.103-16-22_11_46_50\Snapdragon_SD_LLVM_ARM_WIN_4_0_Installer_41720_1\Snapdragon-llvm-4.0.17-windows64\armv7m-none-eabi\libc\lib/libc.a(__wait.o) []
LOAD C:\Users\2166772\Downloads\snapdragon_sd_llvm_arm.win.4.0_installer_41720.103-16-22_11_46_50\Snapdragon_SD_LLVM_ARM_WIN_4_0_Installer_41720_1\Snapdragon-llvm-4.0.17-windows64\armv7m-none-eabi\libc\lib/libc.a(tolower.o) []
LOAD C:\Users\2166772\Downloads\snapdragon_sd_llvm_arm.win.4.0_installer_41720.103-16-22_11_46_50\Snapdragon_SD_LLVM_ARM_WIN_4_0_Installer_41720_1\Snapdragon-llvm-4.0.17-windows64\armv7m-none-eabi\libc\lib/libc.a(__errno_location.o) []
LOAD C:\Users\2166772\Downloads\snapdragon_sd_llvm_arm.win.4.0_installer_41720.103-16-22_11_46_50\Snapdragon_SD_LLVM_ARM_WIN_4_0_Installer_41720_1\Snapdragon-llvm-4.0.17-windows64\armv7m-none-eabi\libc\lib/libc.a(strerror.o) []
LOAD C:\Users\2166772\Downloads\snapdragon_sd_llvm_arm.win.4.0_installer_41720.103-16-22_11_46_50\Snapdragon_SD_LLVM_ARM_WIN_4_0_Installer_41720_1\Snapdragon-llvm-4.0.17-windows64\armv7m-none-eabi\libc\lib/libc.a(floatscan.o) []
LOAD C:\Users\2166772\Downloads\snapdragon_sd_llvm_arm.win.4.0_installer_41720.103-16-22_11_46_50\Snapdragon_SD_LLVM_ARM_WIN_4_0_Installer_41720_1\Snapdragon-llvm-4.0.17-windows64\armv7m-none-eabi\libc\lib/libc.a(intscan.o) []
LOAD C:\Users\2166772\Downloads\snapdragon_sd_llvm_arm.win.4.0_installer_41720.103-16-22_11_46_50\Snapdragon_SD_LLVM_ARM_WIN_4_0_Installer_41720_1\Snapdragon-llvm-4.0.17-windows64\armv7m-none-eabi\libc\lib/libc.a(libc.o) []
LOAD C:\Users\2166772\Downloads\snapdragon_sd_llvm_arm.win.4.0_installer_41720.103-16-22_11_46_50\Snapdragon_SD_LLVM_ARM_WIN_4_0_Installer_41720_1\Snapdragon-llvm-4.0.17-windows64\armv7m-none-eabi\libc\lib/libc.a(shgetc.o) []
LOAD C:\Users\2166772\Downloads\snapdragon_sd_llvm_arm.win.4.0_installer_41720.103-16-22_11_46_50\Snapdragon_SD_LLVM_ARM_WIN_4_0_Installer_41720_1\Snapdragon-llvm-4.0.17-windows64\armv7m-none-eabi\libc\lib/libc.a(syscall_ret.o) []
LOAD C:\Users\2166772\Downloads\snapdragon_sd_llvm_arm.win.4.0_installer_41720.103-16-22_11_46_50\Snapdragon_SD_LLVM_ARM_WIN_4_0_Installer_41720_1\Snapdragon-llvm-4.0.17-windows64\armv7m-none-eabi\libc\lib/libc.a(__lctrans.o) []
LOAD C:\Users\2166772\Downloads\snapdragon_sd_llvm_arm.win.4.0_installer_41720.103-16-22_11_46_50\Snapdragon_SD_LLVM_ARM_WIN_4_0_Installer_41720_1\Snapdragon-llvm-4.0.17-windows64\armv7m-none-eabi\libc\lib/libc.a(expand_heap.o) []
LOAD C:\Users\2166772\Downloads\snapdragon_sd_llvm_arm.win.4.0_installer_41720.103-16-22_11_46_50\Snapdragon_SD_LLVM_ARM_WIN_4_0_Installer_41720_1\Snapdragon-llvm-4.0.17-windows64\armv7m-none-eabi\libc\lib/libc.a(fabs.o) []
LOAD C:\Users\2166772\Downloads\snapdragon_sd_llvm_arm.win.4.0_installer_41720.103-16-22_11_46_50\Snapdragon_SD_LLVM_ARM_WIN_4_0_Installer_41720_1\Snapdragon-llvm-4.0.17-windows64\armv7m-none-eabi\libc\lib/libc.a(sqrt.o) []
LOAD C:\Users\2166772\Downloads\snapdragon_sd_llvm_arm.win.4.0_installer_41720.103-16-22_11_46_50\Snapdragon_SD_LLVM_ARM_WIN_4_0_Installer_41720_1\Snapdragon-llvm-4.0.17-windows64\armv7m-none-eabi\libc\lib/libc.a(copysignl.o) []
LOAD C:\Users\2166772\Downloads\snapdragon_sd_llvm_arm.win.4.0_installer_41720.103-16-22_11_46_50\Snapdragon_SD_LLVM_ARM_WIN_4_0_Installer_41720_1\Snapdragon-llvm-4.0.17-windows64\armv7m-none-eabi\libc\lib/libc.a(fmodl.o) []
LOAD C:\Users\2166772\Downloads\snapdragon_sd_llvm_arm.win.4.0_installer_41720.103-16-22_11_46_50\Snapdragon_SD_LLVM_ARM_WIN_4_0_Installer_41720_1\Snapdragon-llvm-4.0.17-windows64\armv7m-none-eabi\libc\lib/libc.a(scalbnl.o) []
LOAD C:\Users\2166772\Downloads\snapdragon_sd_llvm_arm.win.4.0_installer_41720.103-16-22_11_46_50\Snapdragon_SD_LLVM_ARM_WIN_4_0_Installer_41720_1\Snapdragon-llvm-4.0.17-windows64\armv7m-none-eabi\libc\lib/libc.a(wctomb.o) []
LOAD C:\Users\2166772\Downloads\snapdragon_sd_llvm_arm.win.4.0_installer_41720.103-16-22_11_46_50\Snapdragon_SD_LLVM_ARM_WIN_4_0_Installer_41720_1\Snapdragon-llvm-4.0.17-windows64\armv7m-none-eabi\libc\lib/libc.a(__towrite.o) []
LOAD C:\Users\2166772\Downloads\snapdragon_sd_llvm_arm.win.4.0_installer_41720.103-16-22_11_46_50\Snapdragon_SD_LLVM_ARM_WIN_4_0_Installer_41720_1\Snapdragon-llvm-4.0.17-windows64\armv7m-none-eabi\libc\lib/libc.a(__uflow.o) []
LOAD C:\Users\2166772\Downloads\snapdragon_sd_llvm_arm.win.4.0_installer_41720.103-16-22_11_46_50\Snapdragon_SD_LLVM_ARM_WIN_4_0_Installer_41720_1\Snapdragon-llvm-4.0.17-windows64\armv7m-none-eabi\libc\lib/libc.a(__lockfile.o) []
LOAD C:\Users\2166772\Downloads\snapdragon_sd_llvm_arm.win.4.0_installer_41720.103-16-22_11_46_50\Snapdragon_SD_LLVM_ARM_WIN_4_0_Installer_41720_1\Snapdragon-llvm-4.0.17-windows64\armv7m-none-eabi\libc\lib/libc.a(memcmp.o) []
LOAD C:\Users\2166772\Downloads\snapdragon_sd_llvm_arm.win.4.0_installer_41720.103-16-22_11_46_50\Snapdragon_SD_LLVM_ARM_WIN_4_0_Installer_41720_1\Snapdragon-llvm-4.0.17-windows64\armv7m-none-eabi\libc\lib/libc.a(__brk.o) []
LOAD C:\Users\2166772\Downloads\snapdragon_sd_llvm_arm.win.4.0_installer_41720.103-16-22_11_46_50\Snapdragon_SD_LLVM_ARM_WIN_4_0_Installer_41720_1\Snapdragon-llvm-4.0.17-windows64\armv7m-none-eabi\libc\lib/libc.a(copysign.o) []
LOAD C:\Users\2166772\Downloads\snapdragon_sd_llvm_arm.win.4.0_installer_41720.103-16-22_11_46_50\Snapdragon_SD_LLVM_ARM_WIN_4_0_Installer_41720_1\Snapdragon-llvm-4.0.17-windows64\armv7m-none-eabi\libc\lib/libc.a(fmod.o) []
LOAD C:\Users\2166772\Downloads\snapdragon_sd_llvm_arm.win.4.0_installer_41720.103-16-22_11_46_50\Snapdragon_SD_LLVM_ARM_WIN_4_0_Installer_41720_1\Snapdragon-llvm-4.0.17-windows64\armv7m-none-eabi\libc\lib/libc.a(wcrtomb.o) []
LOAD C:\Users\2166772\Downloads\snapdragon_sd_llvm_arm.win.4.0_installer_41720.103-16-22_11_46_50\Snapdragon_SD_LLVM_ARM_WIN_4_0_Installer_41720_1\Snapdragon-llvm-4.0.17-windows64\armv7m-none-eabi\libc\lib/libc.a(__stdio_exit.o) []
LOAD C:\Users\2166772\Downloads\snapdragon_sd_llvm_arm.win.4.0_installer_41720.103-16-22_11_46_50\Snapdragon_SD_LLVM_ARM_WIN_4_0_Installer_41720_1\Snapdragon-llvm-4.0.17-windows64\armv7m-none-eabi\libc\lib/libc.a(__toread.o) []
LOAD C:\Users\2166772\Downloads\snapdragon_sd_llvm_arm.win.4.0_installer_41720.103-16-22_11_46_50\Snapdragon_SD_LLVM_ARM_WIN_4_0_Installer_41720_1\Snapdragon-llvm-4.0.17-windows64\armv7m-none-eabi\libc\lib/libc.a(ofl.o) []
LOAD C:\Users\2166772\Downloads\snapdragon_sd_llvm_arm.win.4.0_installer_41720.103-16-22_11_46_50\Snapdragon_SD_LLVM_ARM_WIN_4_0_Installer_41720_1\Snapdragon-llvm-4.0.17-windows64\lib\clang\4.0.17\lib\baremetal/libclang_rt.builtins-armv7m.a(aeabi_dcmp.S.obj) []
LOAD C:\Users\2166772\Downloads\snapdragon_sd_llvm_arm.win.4.0_installer_41720.103-16-22_11_46_50\Snapdragon_SD_LLVM_ARM_WIN_4_0_Installer_41720_1\Snapdragon-llvm-4.0.17-windows64\lib\clang\4.0.17\lib\baremetal/libclang_rt.builtins-armv7m.a(aeabi_fcmp.S.obj) []
LOAD C:\Users\2166772\Downloads\snapdragon_sd_llvm_arm.win.4.0_installer_41720.103-16-22_11_46_50\Snapdragon_SD_LLVM_ARM_WIN_4_0_Installer_41720_1\Snapdragon-llvm-4.0.17-windows64\lib\clang\4.0.17\lib\baremetal/libclang_rt.builtins-armv7m.a(aeabi_ldivmod.S.obj) []
LOAD C:\Users\2166772\Downloads\snapdragon_sd_llvm_arm.win.4.0_installer_41720.103-16-22_11_46_50\Snapdragon_SD_LLVM_ARM_WIN_4_0_Installer_41720_1\Snapdragon-llvm-4.0.17-windows64\lib\clang\4.0.17\lib\baremetal/libclang_rt.builtins-armv7m.a(aeabi_uldivmod.S.obj) []
LOAD C:\Users\2166772\Downloads\snapdragon_sd_llvm_arm.win.4.0_installer_41720.103-16-22_11_46_50\Snapdragon_SD_LLVM_ARM_WIN_4_0_Installer_41720_1\Snapdragon-llvm-4.0.17-windows64\lib\clang\4.0.17\lib\baremetal/libclang_rt.builtins-armv7m.a(adddf3.c.obj) []
LOAD C:\Users\2166772\Downloads\snapdragon_sd_llvm_arm.win.4.0_installer_41720.103-16-22_11_46_50\Snapdragon_SD_LLVM_ARM_WIN_4_0_Installer_41720_1\Snapdragon-llvm-4.0.17-windows64\lib\clang\4.0.17\lib\baremetal/libclang_rt.builtins-armv7m.a(addsf3.c.obj) []
LOAD C:\Users\2166772\Downloads\snapdragon_sd_llvm_arm.win.4.0_installer_41720.103-16-22_11_46_50\Snapdragon_SD_LLVM_ARM_WIN_4_0_Installer_41720_1\Snapdragon-llvm-4.0.17-windows64\lib\clang\4.0.17\lib\baremetal/libclang_rt.builtins-armv7m.a(comparedf2.c.obj) []
LOAD C:\Users\2166772\Downloads\snapdragon_sd_llvm_arm.win.4.0_installer_41720.103-16-22_11_46_50\Snapdragon_SD_LLVM_ARM_WIN_4_0_Installer_41720_1\Snapdragon-llvm-4.0.17-windows64\lib\clang\4.0.17\lib\baremetal/libclang_rt.builtins-armv7m.a(comparesf2.c.obj) []
LOAD C:\Users\2166772\Downloads\snapdragon_sd_llvm_arm.win.4.0_installer_41720.103-16-22_11_46_50\Snapdragon_SD_LLVM_ARM_WIN_4_0_Installer_41720_1\Snapdragon-llvm-4.0.17-windows64\lib\clang\4.0.17\lib\baremetal/libclang_rt.builtins-armv7m.a(divdf3.c.obj) []
LOAD C:\Users\2166772\Downloads\snapdragon_sd_llvm_arm.win.4.0_installer_41720.103-16-22_11_46_50\Snapdragon_SD_LLVM_ARM_WIN_4_0_Installer_41720_1\Snapdragon-llvm-4.0.17-windows64\lib\clang\4.0.17\lib\baremetal/libclang_rt.builtins-armv7m.a(divmoddi4.c.obj) []
LOAD C:\Users\2166772\Downloads\snapdragon_sd_llvm_arm.win.4.0_installer_41720.103-16-22_11_46_50\Snapdragon_SD_LLVM_ARM_WIN_4_0_Installer_41720_1\Snapdragon-llvm-4.0.17-windows64\lib\clang\4.0.17\lib\baremetal/libclang_rt.builtins-armv7m.a(divsf3.c.obj) []
LOAD C:\Users\2166772\Downloads\snapdragon_sd_llvm_arm.win.4.0_installer_41720.103-16-22_11_46_50\Snapdragon_SD_LLVM_ARM_WIN_4_0_Installer_41720_1\Snapdragon-llvm-4.0.17-windows64\lib\clang\4.0.17\lib\baremetal/libclang_rt.builtins-armv7m.a(extendsfdf2.c.obj) []
LOAD C:\Users\2166772\Downloads\snapdragon_sd_llvm_arm.win.4.0_installer_41720.103-16-22_11_46_50\Snapdragon_SD_LLVM_ARM_WIN_4_0_Installer_41720_1\Snapdragon-llvm-4.0.17-windows64\lib\clang\4.0.17\lib\baremetal/libclang_rt.builtins-armv7m.a(fixdfdi.c.obj) []
LOAD C:\Users\2166772\Downloads\snapdragon_sd_llvm_arm.win.4.0_installer_41720.103-16-22_11_46_50\Snapdragon_SD_LLVM_ARM_WIN_4_0_Installer_41720_1\Snapdragon-llvm-4.0.17-windows64\lib\clang\4.0.17\lib\baremetal/libclang_rt.builtins-armv7m.a(fixdfsi.c.obj) []
LOAD C:\Users\2166772\Downloads\snapdragon_sd_llvm_arm.win.4.0_installer_41720.103-16-22_11_46_50\Snapdragon_SD_LLVM_ARM_WIN_4_0_Installer_41720_1\Snapdragon-llvm-4.0.17-windows64\lib\clang\4.0.17\lib\baremetal/libclang_rt.builtins-armv7m.a(fixsfsi.c.obj) []
LOAD C:\Users\2166772\Downloads\snapdragon_sd_llvm_arm.win.4.0_installer_41720.103-16-22_11_46_50\Snapdragon_SD_LLVM_ARM_WIN_4_0_Installer_41720_1\Snapdragon-llvm-4.0.17-windows64\lib\clang\4.0.17\lib\baremetal/libclang_rt.builtins-armv7m.a(fixunsdfdi.c.obj) []
LOAD C:\Users\2166772\Downloads\snapdragon_sd_llvm_arm.win.4.0_installer_41720.103-16-22_11_46_50\Snapdragon_SD_LLVM_ARM_WIN_4_0_Installer_41720_1\Snapdragon-llvm-4.0.17-windows64\lib\clang\4.0.17\lib\baremetal/libclang_rt.builtins-armv7m.a(fixunsdfsi.c.obj) []
LOAD C:\Users\2166772\Downloads\snapdragon_sd_llvm_arm.win.4.0_installer_41720.103-16-22_11_46_50\Snapdragon_SD_LLVM_ARM_WIN_4_0_Installer_41720_1\Snapdragon-llvm-4.0.17-windows64\lib\clang\4.0.17\lib\baremetal/libclang_rt.builtins-armv7m.a(floatdidf.c.obj) []
LOAD C:\Users\2166772\Downloads\snapdragon_sd_llvm_arm.win.4.0_installer_41720.103-16-22_11_46_50\Snapdragon_SD_LLVM_ARM_WIN_4_0_Installer_41720_1\Snapdragon-llvm-4.0.17-windows64\lib\clang\4.0.17\lib\baremetal/libclang_rt.builtins-armv7m.a(floatsidf.c.obj) []
LOAD C:\Users\2166772\Downloads\snapdragon_sd_llvm_arm.win.4.0_installer_41720.103-16-22_11_46_50\Snapdragon_SD_LLVM_ARM_WIN_4_0_Installer_41720_1\Snapdragon-llvm-4.0.17-windows64\lib\clang\4.0.17\lib\baremetal/libclang_rt.builtins-armv7m.a(floatsisf.c.obj) []
LOAD C:\Users\2166772\Downloads\snapdragon_sd_llvm_arm.win.4.0_installer_41720.103-16-22_11_46_50\Snapdragon_SD_LLVM_ARM_WIN_4_0_Installer_41720_1\Snapdragon-llvm-4.0.17-windows64\lib\clang\4.0.17\lib\baremetal/libclang_rt.builtins-armv7m.a(floatunsidf.c.obj) []
LOAD C:\Users\2166772\Downloads\snapdragon_sd_llvm_arm.win.4.0_installer_41720.103-16-22_11_46_50\Snapdragon_SD_LLVM_ARM_WIN_4_0_Installer_41720_1\Snapdragon-llvm-4.0.17-windows64\lib\clang\4.0.17\lib\baremetal/libclang_rt.builtins-armv7m.a(muldf3.c.obj) []
LOAD C:\Users\2166772\Downloads\snapdragon_sd_llvm_arm.win.4.0_installer_41720.103-16-22_11_46_50\Snapdragon_SD_LLVM_ARM_WIN_4_0_Installer_41720_1\Snapdragon-llvm-4.0.17-windows64\lib\clang\4.0.17\lib\baremetal/libclang_rt.builtins-armv7m.a(mulsf3.c.obj) []
LOAD C:\Users\2166772\Downloads\snapdragon_sd_llvm_arm.win.4.0_installer_41720.103-16-22_11_46_50\Snapdragon_SD_LLVM_ARM_WIN_4_0_Installer_41720_1\Snapdragon-llvm-4.0.17-windows64\lib\clang\4.0.17\lib\baremetal/libclang_rt.builtins-armv7m.a(subdf3.c.obj) []
LOAD C:\Users\2166772\Downloads\snapdragon_sd_llvm_arm.win.4.0_installer_41720.103-16-22_11_46_50\Snapdragon_SD_LLVM_ARM_WIN_4_0_Installer_41720_1\Snapdragon-llvm-4.0.17-windows64\lib\clang\4.0.17\lib\baremetal/libclang_rt.builtins-armv7m.a(truncdfsf2.c.obj) []
LOAD C:\Users\2166772\Downloads\snapdragon_sd_llvm_arm.win.4.0_installer_41720.103-16-22_11_46_50\Snapdragon_SD_LLVM_ARM_WIN_4_0_Installer_41720_1\Snapdragon-llvm-4.0.17-windows64\lib\clang\4.0.17\lib\baremetal/libclang_rt.builtins-armv7m.a(udivmoddi4.c.obj) []
LOAD C:\Users\2166772\Downloads\snapdragon_sd_llvm_arm.win.4.0_installer_41720.103-16-22_11_46_50\Snapdragon_SD_LLVM_ARM_WIN_4_0_Installer_41720_1\Snapdragon-llvm-4.0.17-windows64\lib\clang\4.0.17\lib\baremetal/libclang_rt.builtins-armv7m.a(divdi3.c.obj) []
END GROUP

Linker scripts used (including INCLUDE command)
src\aware_client\aware_client.ld

ER_RO	0x43000000	0x4e906 # Offset: 0x60, LMA: 0x43000000
	Image$$ER_RO$$Base(0x43000000) = .( 0x43000000 );
*txm_module_preamble_llvm.o(.text .text.* )
*txm_module_preamble_llvm.o(Init )
Init	0x43000000	0x80	src\build\aware_client\txm_module_preamble_llvm.o	#SHT_PROGBITS,SHF_ALLOC|SHF_EXECINSTR,4
	0x43000000		.CODE32
	0x43000000		_txm_module_preamble
*txm_module_preamble_llvm.o(.rodata .rodata.* )
KEEP (*(.text .text.* ))
.text	0x43000080	0x1298	src\build\aware_client\app_config.o	#SHT_PROGBITS,SHF_ALLOC|SHF_EXECINSTR,4
	0x43000080		$a.0
	0x43000080		app_config_create
	0x43000090		app_config_load
	0x43001054		$d.1
	0x43001200		$a.2
	0x43001200		app_config_update
	0x43001300		$d.3
.text	0x43001318	0x944	src\build\aware_client\app_msg_q.o	#SHT_PROGBITS,SHF_ALLOC|SHF_EXECINSTR,4
	0x43001318		$a.0
	0x43001318		app_msg_q_init
	0x4300167c		$d.1
	0x430016c0		$a.2
	0x430016c0		app_msg_q_init2
	0x430016ec		app_msg_q_destroy
	0x430017cc		$d.3
	0x430017d8		$a.4
	0x430017d8		app_msg_q_snd
	0x43001968		$d.5
	0x43001980		$a.6
	0x43001980		_convert_linked_list_err_type
	0x4300199c		$d.7
	0x430019b4		$a.8
	0x430019c4		app_msg_q_rcv
	0x43001b60		$d.9
	0x43001b78		$a.10
	0x43001b78		app_msg_q_flush
	0x43001c50		$d.11
.text	0x43001c5c	0x17f4	src\build\aware_client\app_thread.o	#SHT_PROGBITS,SHF_ALLOC|SHF_EXECINSTR,4
	0x43001c5c		$a.0
	0x43001c5c		app_thread_module_init
	0x43001d30		$d.1
	0x43001d40		$a.2
	0x43001d40		app_thread_context_reset
	0x43001e08		$d.3
	0x43001e18		$a.4
	0x43001e18		app_thread_create
	0x43002308		$d.5
	0x43002360		app_thread_context_deinit
	0x43002360		$a.6
	0x4300245c		$d.7
	0x4300246c		app_thread_destroy
	0x4300246c		$a.8
	0x430026f4		$d.9
	0x43002728		$a.10
	0x43002728		app_thread_send_msg
	0x43002b14		$d.11
	0x43002b60		$a.12
	0x43002b60		app_thread_msg_dealloc
	0x43002b90		app_thread_rcv_msg
	0x43002dc8		$d.13
	0x43002df8		$a.14
	0x43002df8		app_utils_get_context
	0x43002e10		$d.15
	0x43002e14		$a.16
	0x43002e14		app_utils_sleep_ms
	0x43002e2c		app_utils_sleep_ms_with_log
	0x43002f30		$d.17
	0x43002f3c		$a.18
	0x43002f3c		app_utils_init_signal
	0x43002f6c		app_utils_deinit_signal
	0x43002f8c		app_utils_wait_on_signal
	0x43002f94		app_utils_timedwait_on_signal
	0x4300300c		app_utils_mutex_put
	0x430030b8		$d.19
	0x430030c4		$a.20
	0x430030c4		app_utils_mutex_get
	0x43003174		$d.21
	0x43003180		$a.22
	0x43003180		app_utils_set_signal
	0x430031b4		app_utils_mutex_init
	0x43003374		$d.23
	0x43003394		$a.24
	0x43003394		app_utils_mutex_delete
	0x43003444		$d.25
.text	0x43003450	0x9c0	src\build\aware_client\app_utils_list.o	#SHT_PROGBITS,SHF_ALLOC|SHF_EXECINSTR,4
	0x43003450		$a.0
	0x43003450		app_utils_list_init
	0x430035c4		$d.1
	0x430035dc		$a.2
	0x430035dc		app_utils_list_destroy
	0x430036a8		$d.3
	0x430036b4		$a.4
	0x430036b4		app_utils_list_flush
	0x430037a8		$d.5
	0x430037b4		$a.6
	0x430037b4		app_utils_list_add
	0x430039dc		$d.7
	0x43003a00		$a.8
	0x43003a00		app_utils_list_remove
	0x43003b84		$d.9
	0x43003b9c		$a.10
	0x43003b9c		app_utils_list_empty
	0x43003c5c		$d.11
	0x43003c68		$a.12
	0x43003c68		app_utils_list_search
	0x43003e04		$d.13
.text	0x43003e10	0xff4	src\build\aware_client\app_utils_log.o	#SHT_PROGBITS,SHF_ALLOC|SHF_EXECINSTR,4
	0x43003e10		$a.0
	0x43003e10		app_utils_log_location
	0x43004b00		$d.1
	0x43004be8		$a.2
	0x43004be8		app_utils_log_gtpdata
	0x43004d38		$d.3
	0x43004d50		$a.4
	0x43004d50		app_utils_log_nmea
	0x43004df8		$d.5
.text	0x43004e04	0x4d8	src\build\aware_client\app_utils_mem.o	#SHT_PROGBITS,SHF_ALLOC|SHF_EXECINSTR,4
	0x43004e04		$a.0
	0x43004e04		app_utils_byte_create_pool
	0x43005024		$d.1
	0x43005054		$a.2
	0x43005054		app_utils_byte_allocate
	0x430050a8		$d.3
	0x430050ac		$a.4
	0x430050ac		app_utils_byte_release
	0x43005164		$d.5
	0x43005170		$a.6
	0x43005170		app_utils_get_byte_pool
	0x43005238		$d.7
	0x43005248		$a.8
	0x43005248		app_utils_mem_alloc
	0x43005294		app_utils_mem_free
	0x430052a0		memscpy
.text	0x430052dc	0x35c	src\build\aware_client\app_utils_str.o	#SHT_PROGBITS,SHF_ALLOC|SHF_EXECINSTR,4
	0x430052dc		$a.0
	0x430052dc		strdup_s
	0x43005338		trim_white_spaces
	0x43005390		app_utils_string_to_uint64
	0x43005438		app_utils_is_string_uint
	0x430054b0		app_utils_string_to_float
	0x43005568		print_byte_array
	0x4300562c		$d.1
.text	0x43005638	0x46c	src\build\aware_client\app_utils_time.o	#SHT_PROGBITS,SHF_ALLOC|SHF_EXECINSTR,4
	0x43005638		$a.0
	0x43005638		app_utils_timer_init
	0x43005784		$d.1
	0x4300579c		$a.2
	0x4300579c		app_utils_timer_start
	0x43005914		$d.3
	0x4300592c		$a.4
	0x4300592c		app_utils_timer_stop
	0x430059d4		$d.5
	0x430059e0		$a.6
	0x430059e0		app_utils_timer_delete
	0x43005a98		$d.7
.text	0x43005aa4	0xe34	src\build\aware_client\aware_app.o	#SHT_PROGBITS,SHF_ALLOC|SHF_EXECINSTR,4
	0x43005aa4		$a.0
	0x43005aa4		aware_dam_app_start
	0x430067b8		$d.1
.text	0x430068d8	0xd98	src\build\aware_client\aware_app_state.o	#SHT_PROGBITS,SHF_ALLOC|SHF_EXECINSTR,4
	0x430068d8		$a.0
	0x430068d8		set_fota_state
	0x43006910		$d.1
	0x43006924		$a.2
	0x43006b7c		$d.3
	0x43006bbc		$a.4
	0x43006bbc		get_app_state
	0x43006bc8		$d.5
	0x43006bcc		$a.6
	0x43006bcc		get_device_state
	0x43006bd8		$d.7
	0x43006bdc		$a.8
	0x43006bdc		set_device_state
	0x43006c34		$d.9
	0x43006c50		$a.10
	0x43006f90		$d.11
	0x43006fe8		$a.12
	0x43006fe8		set_app_state
	0x43007040		$d.13
	0x43007054		$a.14
	0x430072ac		$d.15
	0x430072ec		$a.16
	0x430072ec		set_app_mode
	0x43007604		$d.17
.text	0x43007670	0x314	src\build\aware_client\aware_device_info.o	#SHT_PROGBITS,SHF_ALLOC|SHF_EXECINSTR,4
	0x43007670		$a.0
	0x43007670		get_aware_device_info
	0x4300780c		$d.1
	0x43007818		$a.2
	0x43007818		device_info_release_indirection
	0x430078c8		$d.3
	0x430078cc		$a.4
	0x430078cc		get_aware_device_sim_status
.text	0x43007984	0x15e0	src\build\aware_client\aware_health_check.o	#SHT_PROGBITS,SHF_ALLOC|SHF_EXECINSTR,4
	0x43007984		$a.0
	0x43007984		valid_config
	0x43007d54		$d.1
	0x43007d74		$a.2
	0x43007d74		perform_health_check
	0x4300876c		$d.3
	0x43008828		$a.4
	0x43008828		print_sim_status
	0x43008858		$d.5
	0x43008878		$a.6
	0x43008c2c		$d.7
	0x43008c8c		$a.8
	0x43008c8c		hc_log_to_file
	0x43008f3c		$d.9
.text	0x43008f64	0x140	src\build\aware_client\aware_log.o	#SHT_PROGBITS,SHF_ALLOC|SHF_EXECINSTR,4
	0x43008f64		$a.0
	0x43008f64		dam_format_log_msg
	0x43008fa0		aware_log_init
	0x43008fa8		aware_log_set_verbose_level
	0x43008fac		aware_log_to_file
	0x430090a0		$d.1
.text	0x430090a4	0xfb4	src\build\aware_client\aware_main_thread.o	#SHT_PROGBITS,SHF_ALLOC|SHF_EXECINSTR,4
	0x430090a4		$a.0
	0x430090a4		aware_main_thread_get_task_id
	0x430090ac		aware_main_thread_get_task_name
	0x430090b4		$d.1
	0x430090b8		$a.2
	0x430090b8		write_string
	0x430090f8		aware_main_thread_send_msg_init
	0x4300910c		aware_main_thread_send_msg_report_location
	0x43009220		$d.3
	0x4300922c		$a.4
	0x4300922c		aware_main_thread_send_msg_report_gtpdata
	0x43009328		$d.5
	0x43009334		$a.6
	0x43009334		aware_main_thread_send_msg_report_sensor_data
	0x43009440		$d.7
	0x4300944c		$a.8
	0x4300944c		aware_main_thread_send_msg_config_update
	0x43009460		aware_main_thread_task_entry
	0x430095bc		$d.9
	0x430095d0		$a.10
	0x43009e58		$d.11
	0x43009f04		$a.12
	0x43009f04		_aware_main_thread_location_request
	0x43009f2c		$d.13
	0x43009f30		$a.14
	0x43009f30		periodic_checkin_timer_expiry_cb
	0x4300a040		$d.15
.text	0x4300a058	0x760	src\build\aware_client\aware_psm.o	#SHT_PROGBITS,SHF_ALLOC|SHF_EXECINSTR,4
	0x4300a058		$a.0
	0x4300a058		aware_psm_cb
	0x4300a1ac		$d.1
	0x4300a1dc		$a.2
	0x4300a254		$d.3
	0x4300a270		$a.4
	0x4300a270		aware_cancel_vote_for_psm
	0x4300a35c		$d.5
	0x4300a374		$a.6
	0x4300a374		aware_psm_init
	0x4300a48c		$d.7
	0x4300a4a8		$a.8
	0x4300a4a8		aware_psm_deinit
	0x4300a5a8		$d.9
	0x4300a5c4		$a.10
	0x4300a5c4		aware_vote_for_psm
	0x4300a768		$d.11
	0x4300a78c		$a.12
	0x4300a78c		aware_compute_psm_time
	0x4300a7b4		$d.13
.text	0x4300a7b8	0x728	src\build\aware_client\aware_utils.o	#SHT_PROGBITS,SHF_ALLOC|SHF_EXECINSTR,4
	0x4300a7b8		$a.0
	0x4300a7b8		get_battery_level
	0x4300a810		get_free_space_in_EFS
	0x4300a870		$d.1
	0x4300a878		$a.2
	0x4300a878		get_current_time_in_milliseconds
	0x4300a95c		$d.3
	0x4300a960		$a.4
	0x4300a960		start_app_timer
	0x4300a9c0		stop_app_timer
	0x4300a9dc		restart_app_timer
	0x4300aa10		aware_atoi
	0x4300aa84		aware_int_to_str
	0x4300ab50		aware_float_to_str
	0x4300adf0		strtok2
	0x4300aedc		$d.5
.text	0x4300aee0	0x160	src\build\aware_client\cfg_mgr_util.o	#SHT_PROGBITS,SHF_ALLOC|SHF_EXECINSTR,4
	0x4300aee0		$a.0
	0x4300aee0		cfg_mgr_apply_update
	0x4300b028		$d.1
.text	0x4300b040	0x1f0c	src\build\aware_client\cJSON.o	#SHT_PROGBITS,SHF_ALLOC|SHF_EXECINSTR,4
	0x4300b040		$a.0
	0x4300b040		cJSON_GetErrorPtr
	0x4300b04c		$d.1
	0x4300b050		cJSON_InitHooks
	0x4300b050		$a.2
	0x4300b09c		$d.3
	0x4300b0a8		$a.4
	0x4300b0a8		cJSON_Delete
	0x4300b124		$d.5
	0x4300b128		cJSON_ParseWithOpts
	0x4300b128		$a.6
	0x4300b1c8		$d.7
	0x4300b1cc		$a.8
	0x4300b1cc		cJSON_New_Item
	0x4300b208		$d.9
	0x4300b20c		$a.10
	0x4300b20c		parse_value
	0x4300b7e4		$d.11
	0x4300b7f4		$a.12
	0x4300b7f4		skip
	0x4300b820		cJSON_Parse
	0x4300b82c		cJSON_Print
	0x4300b838		print_value
	0x4300b878		$d.13
	0x4300b894		$a.14
	0x4300c064		$d.15
	0x4300c0a0		cJSON_PrintUnformatted
	0x4300c0a0		$a.16
	0x4300c0ac		cJSON_GetArraySize
	0x4300c0c8		cJSON_GetArrayItem
	0x4300c0ec		cJSON_GetObjectItem
	0x4300c12c		cJSON_strcasecmp
	0x4300c1a4		cJSON_AddItemToArray
	0x4300c1dc		cJSON_AddItemToObject
	0x4300c22c		$d.17
	0x4300c230		$a.18
	0x4300c230		cJSON_strdup
	0x4300c290		$d.19
	0x4300c294		cJSON_AddItemReferenceToArray
	0x4300c294		$a.20
	0x4300c2b8		create_reference
	0x4300c314		cJSON_AddItemReferenceToObject
	0x4300c340		cJSON_DetachItemFromArray
	0x4300c3ac		cJSON_DeleteItemFromArray
	0x4300c3c0		cJSON_DetachItemFromObject
	0x4300c418		cJSON_DeleteItemFromObject
	0x4300c42c		cJSON_ReplaceItemInArray
	0x4300c49c		cJSON_ReplaceItemInObject
	0x4300c500		cJSON_CreateNull
	0x4300c51c		cJSON_CreateTrue
	0x4300c538		cJSON_CreateFalse
	0x4300c554		cJSON_CreateBool
	0x4300c57c		cJSON_CreateNumber
	0x4300c5c4		cJSON_CreateString
	0x4300c5fc		cJSON_CreateArray
	0x4300c618		cJSON_CreateObject
	0x4300c634		cJSON_CreateIntArray
	0x4300c69c		cJSON_CreateFloatArray
	0x4300c704		cJSON_CreateDoubleArray
	0x4300c76c		cJSON_CreateStringArray
	0x4300c7d0		cJSON_Duplicate
	0x4300c8c8		cJSON_Minify
	0x4300c9c8		parse_string
	0x4300cc08		$d.21
	0x4300cc34		parse_hex4
	0x4300cc34		$a.22
	0x4300cd7c		print_string_ptr
	0x4300cf14		$d.23
	0x4300cf3c		$a.24
	0x4300cf3c		cJSON_tolower
.text	0x4300cf4c	0x8c0	src\build\aware_client\config_parser.o	#SHT_PROGBITS,SHF_ALLOC|SHF_EXECINSTR,4
	0x4300cf4c		$a.0
	0x4300cf4c		config_parser_print
	0x4300d034		$d.1
	0x4300d044		$a.2
	0x4300d044		config_parser_save
	0x4300d1b4		$d.3
	0x4300d1c0		$a.4
	0x4300d1c0		config_parser_get_string
	0x4300d1d8		$d.5
	0x4300d1dc		$a.6
	0x4300d1dc		config_parser_get_longint
	0x4300d224		$d.7
	0x4300d228		$a.8
	0x4300d228		config_parser_get_bitmask
	0x4300d27c		$d.9
	0x4300d280		$a.10
	0x4300d280		config_parser_get_int
	0x4300d2c8		$d.11
	0x4300d2cc		$a.12
	0x4300d2cc		config_parser_get_float
	0x4300d31c		$d.13
	0x4300d320		$a.14
	0x4300d320		config_parser_get_double
	0x4300d36c		$d.15
	0x4300d370		$a.16
	0x4300d370		config_parser_get_boolean
	0x4300d3d4		$d.17
	0x4300d3e0		$a.18
	0x4300d3e0		config_parser_has_key
	0x4300d3e4		config_parser_add
	0x4300d3e8		config_parser_remove
	0x4300d3ec		config_parser_set_string
	0x4300d424		config_parser_set_int
	0x4300d490		$d.19
	0x4300d494		$a.20
	0x4300d494		config_parser_load
	0x4300d7ec		$d.21
	0x4300d808		$a.22
	0x4300d808		config_parser_free
.text	0x4300d80c	0xafc	src\build\aware_client\data_mgr.o	#SHT_PROGBITS,SHF_ALLOC|SHF_EXECINSTR,4
	0x4300d80c		$a.0
	0x4300d80c		publish_pending_messages
	0x4300d82c		data_mgr_connect_coap_server
	0x4300dad8		$d.1
	0x4300db18		$a.2
	0x4300db18		data_mgr_disconnect_coap_server
	0x4300dc70		$d.3
	0x4300dc8c		$a.4
	0x4300dc8c		data_mgr_publish_event
	0x4300dcc0		$d.5
	0x4300dcc4		$a.6
	0x4300dcc4		data_mgr_coap_fota_file_download
	0x4300e29c		$d.7
	0x4300e304		$a.8
	0x4300e304		coap_get_msg_txn_cb
.text	0x4300e308	0x4f9c	src\build\aware_client\data_mgr_coap.o	#SHT_PROGBITS,SHF_ALLOC|SHF_EXECINSTR,4
	0x4300e308		$a.0
	0x4300e308		is_scheme_char
	0x4300e344		parse_url
	0x4300e444		coap_create_session
	0x4300e740		$d.1
	0x4300e768		$a.2
	0x4300e768		coap_session_cb
	0x4300ea54		$d.3
	0x4300ea64		$a.4
	0x4300f51c		$d.5
	0x4300f6cc		$a.6
	0x4300f6cc		qapi_Coap_Client_Session_uspace_dispatcher
	0x4300f6f8		$d.7
	0x4300f70c		$a.8
	0x4300f734		$d.9
	0x4300f738		$a.10
	0x4300f738		coap_create_connection
	0x4300f7cc		$d.11
	0x4300f7d0		$a.12
	0x4300f7d0		coap_configure_connection
	0x43010654		$d.13
	0x43010768		$a.14
	0x43010768		print_coap_connection_status
	0x43010aec		$d.15
	0x43010b60		$a.16
	0x43010b60		coap_destroy_session
	0x43010c68		$d.17
	0x43010c6c		$a.18
	0x43010c6c		coap_close_connection
	0x43010cbc		coap_cleanup
	0x43010e08		$d.19
	0x43010e20		coap_configure_ssl
	0x43010e20		$a.20
	0x43010f08		read_from_efs
	0x43011398		$d.21
	0x430113e0		$a.22
	0x430113e0		coap_response_message_cb
	0x43011a68		$d.23
	0x43011afc		coap_message_add_block2_header
	0x43011afc		$a.24
	0x43011bfc		$d.25
	0x43011c08		coap_message_add_query_string
	0x43011c08		$a.26
	0x43011d70		$d.27
	0x43011d88		$a.28
	0x43011d88		coap_message_add_uri_path
	0x43012054		$d.29
	0x43012084		$a.30
	0x43012084		coap_message_add_content_type
	0x430121e8		$d.31
	0x43012200		$a.32
	0x43012200		coap_message_init
	0x4301235c		$d.33
	0x43012374		$a.34
	0x43012374		coap_message_add_payload
	0x43012544		$d.35
	0x4301255c		$a.36
	0x4301255c		coap_send_post_message
	0x43012c00		$d.37
	0x43012c80		$a.38
	0x43012c80		coap_send_get_block_message
	0x43013230		$d.39
.text	0x430132a4	0xbc0	src\build\aware_client\data_mgr_device_info.o	#SHT_PROGBITS,SHF_ALLOC|SHF_EXECINSTR,4
	0x430132a4		$a.0
	0x430132a4		data_mgr_init_device_info
	0x43013578		$d.1
	0x430135a0		$a.2
	0x430135a0		data_mgr_get_device_serial_number
	0x430137f4		$d.3
	0x43013820		$a.4
	0x43013820		data_mgr_set_wwan_high_priority
	0x43013a30		$d.5
	0x43013a4c		$a.6
	0x43013a4c		data_mgr_release_device_info
	0x43013b00		$d.7
	0x43013b08		$a.8
	0x43013b08		data_mgr_reset_device_info
	0x43013cd4		$d.9
	0x43013cf0		$a.10
	0x43013cf0		data_mgr_param_get_service_status
	0x43013e50		$d.11
.text	0x43013e64	0xef0	src\build\aware_client\data_mgr_dss.o	#SHT_PROGBITS,SHF_ALLOC|SHF_EXECINSTR,4
	0x43013e64		$a.0
	0x43013e64		tcp_inet_ntoa
	0x43013ec8		$d.1
	0x43013ecc		$a.2
	0x43013ecc		dns_parser
	0x430141b0		$d.3
	0x430141e4		$a.4
	0x430141e4		get_ip_from_url
	0x43014c58		$d.5
	0x43014cf0		$a.6
	0x43014cf0		is_valid_ip_address
.text	0x43014d54	0x6d8	src\build\aware_client\data_mgr_queue.o	#SHT_PROGBITS,SHF_ALLOC|SHF_EXECINSTR,4
	0x43014d54		$a.0
	0x43014d54		qe_init
	0x43014da8		$d.1
	0x43014dac		$a.2
	0x43014dac		qe_destroy
	0x43014dcc		qe_enque
	0x43014e30		qe_deque
	0x43014ebc		qe_check
	0x43014ef8		qe_cnt
	0x43014f34		qe_next
	0x43014f74		data_mgr_queue_init
	0x43015018		$d.3
	0x43015028		$a.4
	0x43015028		data_mgr_queue_destroy
	0x43015074		$d.5
	0x43015078		$a.6
	0x43015078		data_mgr_queue_remove_pub_msg
	0x43015144		$d.7
	0x43015154		$a.8
	0x43015154		data_mgr_queue_enqueue_msg
	0x430153ac		$d.9
	0x430153d4		$a.10
	0x430153d4		data_mgr_queue_process
	0x43015428		$d.11
.text	0x4301542c	0x23e8	src\build\aware_client\data_mgr_thread.o	#SHT_PROGBITS,SHF_ALLOC|SHF_EXECINSTR,4
	0x4301542c		$a.0
	0x4301542c		dss_show_nw_info
	0x430158ec		$d.1
	0x43015938		$a.2
	0x43015938		dss_netctrl_start
	0x43016414		$d.3
	0x430164f4		dss_netctrl_stop
	0x430164f4		$a.4
	0x43016740		$d.5
	0x43016760		$a.6
	0x43016760		data_mgr_stop_datacall
	0x43016764		data_mgr_start_datacall
	0x430168e4		$d.7
	0x43016900		$a.8
	0x43016900		data_mgr_get_task_name
	0x43016908		$d.9
	0x4301690c		$a.10
	0x4301690c		data_mgr_get_task_id
	0x43016914		data_mgr_report_scripted_location
	0x43016948		get_scripted_location_json
	0x43017104		$d.11
	0x43017194		$a.12
	0x43017194		data_mgr_publish_activation_message
	0x430171a8		data_mgr_thread_send_msg_periodic_checkin
	0x430171bc		data_mgr_task_entry
	0x4301751c		$d.13
	0x43017568		$a.14
	0x43017568		dss_net_event_cb
	0x4301759c		$d.15
	0x430175b0		$a.16
	0x43017794		$d.17
	0x430177c0		$a.18
	0x430177c0		qapi_dss_cb_uspace_dispatcher
	0x43017810		$d.19
.text	0x43017814	0x464	src\build\aware_client\data_mgr_utils.o	#SHT_PROGBITS,SHF_ALLOC|SHF_EXECINSTR,4
	0x43017814		$a.0
	0x43017814		data_mgr_signal_init
	0x430178d8		$d.1
	0x430178e8		$a.2
	0x430178e8		data_mgr_signal_destroy
	0x430178f4		data_mgr_signal_wait
	0x43017920		data_mgr_signal_wait_timed
	0x430179b8		data_mgr_signal_set
	0x430179c0		data_mgr_signal_clear
	0x43017a74		$d.3
	0x43017a80		$a.4
	0x43017a80		data_mgr_signal_get
	0x43017ab4		data_mgr_util_int_to_str
	0x43017b28		__stack_chk_fail
	0x43017b2c		memscat
	0x43017b50		base64_encode
	0x43017c70		$d.5
.text	0x43017c78	0xb40	src\build\aware_client\device_common_config.o	#SHT_PROGBITS,SHF_ALLOC|SHF_EXECINSTR,4
	0x43017c78		$a.0
	0x43017c78		device_static_common_create
	0x43017c88		device_static_common_load
	0x4301846c		$d.1
	0x43018538		$a.2
	0x43018538		fota_version_update
	0x43018634		$d.3
	0x4301864c		$a.4
	0x4301864c		device_static_common_update
	0x43018798		$d.5
.text	0x430187b8	0x7a4	src\build\aware_client\device_general_config.o	#SHT_PROGBITS,SHF_ALLOC|SHF_EXECINSTR,4
	0x430187b8		$a.0
	0x430187b8		device_general_config_create
	0x430187c8		device_general_config_load
	0x43018ea0		$d.1
	0x43018f54		$a.2
	0x43018f54		device_general_config_update
.text	0x43018f5c	0x484	src\build\aware_client\device_unique_config.o	#SHT_PROGBITS,SHF_ALLOC|SHF_EXECINSTR,4
	0x43018f5c		$a.0
	0x43018f5c		device_unique_config_create
	0x43018f6c		device_unique_config_load
	0x43019374		$d.1
	0x430193d8		$a.2
	0x430193d8		device_unique_config_update
.text	0x430193e0	0x33c	src\build\aware_client\dictionary.o	#SHT_PROGBITS,SHF_ALLOC|SHF_EXECINSTR,4
	0x430193e0		$a.0
	0x430193e0		streq
	0x43019420		dictionary_new
	0x4301945c		$d.1
	0x43019460		$a.2
	0x43019460		dictionary_free
	0x43019484		dictionary_has
	0x430194c4		dictionary_get
	0x4301953c		dictionary_update
	0x43019610		$d.3
	0x43019614		$a.4
	0x43019614		dictionary_remove
	0x4301966c		dictionary_len
	0x4301968c		dictionary_keys
	0x430196d4		dictionary_values
.text	0x4301971c	0x608	src\build\aware_client\fota_client.o	#SHT_PROGBITS,SHF_ALLOC|SHF_EXECINSTR,4
	0x4301971c		$a.0
	0x4301971c		send_fota_trigger
	0x43019cc0		$d.1
.text	0x43019d24	0x2094	src\build\aware_client\fota_dam_download.o	#SHT_PROGBITS,SHF_ALLOC|SHF_EXECINSTR,4
	0x43019d24		$a.0
	0x43019d24		http_strlcpy
	0x43019d70		decode_url
	0x4301a040		$d.1
	0x4301a048		$a.2
	0x4301a048		dam_download_session_release
	0x4301a170		$d.3
	0x4301a174		$a.4
	0x4301a174		dam_download_release
	0x4301a204		$d.5
	0x4301a20c		$a.6
	0x4301a20c		write_update_file
	0x4301a278		$d.7
	0x4301a27c		$a.8
	0x4301a27c		dam_download_cb
	0x4301ab08		$d.9
	0x4301aba8		$a.10
	0x4301aba8		dam_download
	0x4301b054		$d.11
	0x4301b098		$a.12
	0x4301b098		qapi_httpc_cb_uspace_dispatcher
	0x4301b0f4		$d.13
	0x4301b0f8		$a.14
	0x4301b0f8		dam_download_process
	0x4301b63c		$d.15
	0x4301b6a0		$a.16
	0x4301b6a0		prepare_for_dam_download
	0x4301b9ec		$d.17
	0x4301ba34		$a.18
	0x4301ba34		start_fota_dam_download
	0x4301bd78		$d.19
.text	0x4301bdb8	0x678	src\build\aware_client\fota_dam_swapping.o	#SHT_PROGBITS,SHF_ALLOC|SHF_EXECINSTR,4
	0x4301bdb8		$a.0
	0x4301bdb8		is_dir_exists
	0x4301be3c		$d.1
	0x4301be40		$a.2
	0x4301be40		setup_dam_ota_update_dir
	0x4301c190		$d.3
	0x4301c1d0		$a.4
	0x4301c1d0		swap_dam_file
	0x4301c400		$d.5
.text	0x4301c430	0x534	src\build\aware_client\fota_thread.o	#SHT_PROGBITS,SHF_ALLOC|SHF_EXECINSTR,4
	0x4301c430		$a.0
	0x4301c430		fota_thread_get_task_id
	0x4301c438		fota_thread_get_task_name
	0x4301c440		$d.1
	0x4301c444		$a.2
	0x4301c444		fota_thread_send_msg_init
	0x4301c458		fota_thread_send_msg_dam_download
	0x4301c46c		fota_thread_task_entry
	0x4301c90c		$d.3
.text	0x4301c964	0x32ec	src\build\aware_client\gnss_worker_sm.o	#SHT_PROGBITS,SHF_ALLOC|SHF_EXECINSTR,4
	0x4301c964		$a.0
	0x4301c964		_gnss_worker_sm_update_dl_ongoing
	0x4301c97c		$d.1
	0x4301c9e8		$a.2
	0x4301caa0		$d.3
	0x4301caa4		_gnss_worker_sm_is_any_ad_dl_ongoing
	0x4301caa4		$a.4
	0x4301cae4		$d.5
	0x4301cae8		$a.6
	0x4301cae8		_gnss_worker_sm_is_any_ad_dl_failed
	0x4301cb30		$d.7
	0x4301cb34		_gnss_worker_sm_is_xtra_or_ntp_dl_ongoing
	0x4301cb34		$a.8
	0x4301cb68		$d.9
	0x4301cb6c		$a.10
	0x4301cb6c		_gnss_worker_sm_is_xtra_or_ntp_dl_failed
	0x4301cba8		$d.11
	0x4301cbac		$a.12
	0x4301cbac		_gnss_worker_sm_is_ntp_idle_state
	0x4301cc60		$d.13
	0x4301cc70		$a.14
	0x4301cc70		_gnss_worker_sm_is_ntp_update_required
	0x4301cee4		$d.15
	0x4301cf18		$a.16
	0x4301cf18		_gnss_worker_sm_trigger_ntp_update
	0x4301d0e8		$d.17
	0x4301d110		_gnss_worker_sm_is_xtra_idle_state
	0x4301d110		$a.18
	0x4301d1c4		$d.19
	0x4301d1d4		$a.20
	0x4301d1d4		_gnss_worker_sm_is_xtra_dl_required
	0x4301d55c		$d.21
	0x4301d5a8		_gnss_worker_sm_trigger_xtra_dl
	0x4301d5a8		$a.22
	0x4301d898		$d.23
	0x4301d8d8		gnss_worker_sm_init
	0x4301d8d8		$a.24
	0x4301da10		$d.25
	0x4301da40		gnss_worker_sm_request_best_avail_location
	0x4301da40		$a.26
	0x4301da50		$d.27
	0x4301da54		gnss_worker_sm_request_delayed_location
	0x4301da54		$a.28
	0x4301dc88		$d.29
	0x4301dca8		_gnss_worker_sm_report_event
	0x4301dca8		$a.30
	0x4301dce0		$d.31
	0x4301dd0c		$a.32
	0x4301ddc4		$d.33
	0x4301ddc8		gnss_worker_sm_singleshot_cb
	0x4301ddc8		$a.34
	0x4301df58		$d.35
	0x4301df5c		gnss_worker_sm_singleshot_gtp_cb
	0x4301df5c		$a.36
	0x4301e014		$d.37
	0x4301e020		gnss_worker_sm_meta_data_cb
	0x4301e020		$a.38
	0x4301e0f8		$d.39
	0x4301e104		$a.40
	0x4301e104		gnss_worker_sm_motion_info_cb
	0x4301e11c		gnss_worker_sm_wwan_sleep_cb
	0x4301e130		$d.41
	0x4301e134		$a.42
	0x4301e134		gnss_worker_sm_singleshot_cb_in_loc_context
	0x4301e1a0		$d.43
	0x4301e1a4		$a.44
	0x4301e1a4		gnss_worker_sm_ntp_status_cb_meta_data_context
	0x4301e1e4		$d.45
	0x4301e1e8		$a.46
	0x4301e1e8		gnss_worker_sm_xtra_status_cb_meta_data_context
	0x4301e240		$d.47
	0x4301e244		$a.48
	0x4301e244		gnss_worker_sm_xtra_int_status_cb_meta_data_context
	0x4301e284		$d.49
	0x4301e288		$a.50
	0x4301e288		gnss_worker_sm_engine_status_cb_meta_data_context
	0x4301e2f8		$d.51
	0x4301e2fc		$a.52
	0x4301e2fc		_gnss_worker_sm_cancel_report_delay_timer
	0x4301e31c		$d.53
	0x4301e320		$a.54
	0x4301e320		_gnss_worker_sm_state_idle
	0x4301e4f4		$d.55
	0x4301e518		$a.56
	0x4301e518		_gnss_worker_sm_state_waiting_for_gnss_load
	0x4301e598		$d.57
	0x4301e5e8		$a.58
	0x4301e6fc		$d.59
	0x4301e714		_gnss_worker_sm_state_waiting_for_ad_dl_complete
	0x4301e714		$a.60
	0x4301e7c4		$d.61
	0x4301e818		$a.62
	0x4301e98c		$d.63
	0x4301e9ac		_gnss_worker_sm_state_ad_dl_complete
	0x4301e9ac		$a.64
	0x4301ea30		$d.65
	0x4301ea80		$a.66
	0x4301eb94		$d.67
	0x4301ebac		_gnss_worker_sm_state_gnss_loaded
	0x4301ebac		$a.68
	0x4301ec10		$d.69
	0x4301ec30		$a.70
	0x4301ec50		$d.71
	0x4301ec54		$a.72
	0x4301ec54		_gnss_worker_sm_state_backoff_bad_wwan_connection
	0x4301ed80		$d.73
	0x4301ed94		_gnss_worker_sm_state_backoff_weak_gnss_signals
	0x4301ed94		$a.74
	0x4301ee58		$d.75
	0x4301ee64		_gnss_worker_sm_state_backoff_wwan_high_priority
	0x4301ee64		$a.76
	0x4301ef98		$d.77
	0x4301efac		_gnss_worker_sm_state_gnss_retry
	0x4301efac		$a.78
	0x4301f148		$d.79
	0x4301f164		_gnss_worker_sm_state_waiting_for_non_gnss_position
	0x4301f164		$a.80
	0x4301f1e0		$d.81
	0x4301f208		$a.82
	0x4301f210		$d.83
	0x4301f214		$a.84
	0x4301f214		_gnss_worker_sm_state_gnss_fix_generated
	0x4301f258		$d.85
	0x4301f25c		$a.86
	0x4301f25c		_gnss_worker_sm_request_singleshot
	0x4301f884		$d.87
	0x4301f8f0		_gnss_worker_sm_enter_state
	0x4301f8f0		$a.88
	0x4301f90c		$d.89
	0x4301f938		$a.90
	0x4301fa58		$d.91
	0x4301fa64		$a.92
	0x4301fa64		_gnss_worker_sm_start_backoff_timer
	0x4301fab0		$d.93
	0x4301fab8		gnss_worker_sm_backoff_timer_cb_in_timer_context
	0x4301fab8		$a.94
	0x4301fac4		$d.95
	0x4301fac8		_gnss_worker_sm_backoff_timer_cb
	0x4301fac8		$a.96
	0x4301fae4		_gnss_worker_sm_cancel_backoff_timer
	0x4301fb04		$d.97
	0x4301fb08		_gnss_worker_sm_cancel_singleshot
	0x4301fb08		$a.98
	0x4301fb70		$d.99
	0x4301fb78		$a.100
	0x4301fb78		gnss_worker_sm_report_delay_timer_cb_in_timer_context
	0x4301fc24		$d.101
	0x4301fc34		$a.102
	0x4301fc34		_gnss_worker_sm_report_delay_timer_cb
.text	0x4301fc50	0x1bcc	src\build\aware_client\gnss_worker_thread.o	#SHT_PROGBITS,SHF_ALLOC|SHF_EXECINSTR,4
	0x4301fc50		$a.0
	0x4301fc50		gnss_worker_get_task_id
	0x4301fc58		gnss_worker_get_task_name
	0x4301fc60		$d.1
	0x4301fc64		gnss_worker_report_singleshot_location
	0x4301fc64		$a.2
	0x4301fdac		$d.3
	0x4301fdb8		$a.4
	0x4301fdb8		gnss_worker_report_singleshot_gtpdata
	0x4301fe68		$d.5
	0x4301fe74		$a.6
	0x4301fe74		gnss_worker_sync_get_best_avail_location
	0x43020054		$d.7
	0x43020080		$a.8
	0x43020080		gnss_worker_report_best_avail_location
	0x43020190		$d.9
	0x43020198		$a.10
	0x43020198		gnss_worker_send_msg_request_delayed_location
	0x430202f0		$d.11
	0x43020304		$a.12
	0x43020304		gnss_worker_send_msg_cb_singleshot
	0x4302046c		$d.13
	0x43020480		$a.14
	0x43020480		gnss_worker_send_msg_cb_meta_data
	0x43020594		$d.15
	0x430205a0		$a.16
	0x430205a0		gnss_worker_send_msg_cb_motion
	0x430206ac		$d.17
	0x430206b8		$a.18
	0x430206b8		gnss_worker_send_msg_cb_nmea
	0x43020734		gnss_worker_send_msg_cb_wwan_sleep
	0x43020778		gnss_worker_send_msg_process_cb
	0x430207c4		gnss_worker_send_msg_cb_tracking
	0x43020824		gnss_worker_send_msg_cb_singleshot_gtp
	0x43020aa4		$d.19
	0x43020ad0		gnss_worker_task_entry
	0x43020ad0		$a.20
	0x43020c20		$d.21
	0x43020c5c		$a.22
	0x43021718		$d.23
.text	0x4302181c	0x1c30	src\build\aware_client\gnss_worker_utils.o	#SHT_PROGBITS,SHF_ALLOC|SHF_EXECINSTR,4
	0x4302181c		$a.0
	0x4302181c		app_utils_gnss_worker_state_str
	0x4302182c		$d.1
	0x43021830		$a.2
	0x43021830		app_utils_power_level_str
	0x43021860		$d.3
	0x43021864		app_utils_accuracy_level_str
	0x43021864		$a.4
	0x430218a4		$d.5
	0x430218a8		app_utils_log_engine_status_recvd
	0x430218a8		$a.6
	0x430218d4		$d.7
	0x43021940		$a.8
	0x43022148		$d.9
	0x43022234		$a.10
	0x43022234		gnss_worker_utils_set_app_priority
	0x43022498		$d.11
	0x430224cc		$a.12
	0x430224cc		gnss_worker_utils_set_gnss_high_priority
	0x430224d4		gnss_worker_utils_set_wwan_high_priority
	0x430224dc		gnss_worker_utils_is_gnss_high_priority
	0x43022678		$d.13
	0x43022694		$a.14
	0x43022694		gnss_worker_utils_restore_default_app_priority
	0x430227e8		$d.15
	0x43022804		gnss_worker_utils_log_state_event
	0x43022804		$a.16
	0x4302283c		$d.17
	0x43022858		$a.18
	0x430229c4		$d.19
	0x430229e8		$a.20
	0x430229e8		gnss_worker_utils_init
	0x43022b14		$d.21
	0x43022b30		$a.22
	0x43022b30		gnss_worker_utils_set_wwan_sleep_callback
	0x43022ca0		$d.23
	0x43022cc4		_gnss_worker_utils_wwan_sleep_callback
	0x43022cc4		$a.24
	0x43022f38		$d.25
	0x43022f70		qapi_device_info_cb_uspace_dispatcher
	0x43022f70		$a.26
	0x430230b4		_gnss_worker_utils_init_device_info
	0x43023418		$d.27
.text	0x4302344c	0xf00	src\build\aware_client\led_config.o	#SHT_PROGBITS,SHF_ALLOC|SHF_EXECINSTR,4
	0x4302344c		$a.0
	0x4302344c		led_config_create
	0x4302345c		led_config_common_load
	0x430241e0		$d.1
.text	0x4302434c	0x44c	src\build\aware_client\pb_common.o	#SHT_PROGBITS,SHF_ALLOC|SHF_EXECINSTR,4
	0x4302434c		$a.0
	0x4302434c		pb_field_iter_begin
	0x43024384		load_descriptor_values
	0x43024528		pb_field_iter_begin_extension
	0x4302456c		pb_field_iter_next
	0x43024594		advance_iterator
	0x43024618		pb_field_iter_find
	0x430246c4		pb_field_iter_find_extension
	0x43024734		pb_field_iter_begin_const
	0x43024738		pb_field_iter_begin_extension_const
	0x4302473c		pb_default_field_callback
.text	0x43024798	0x16d0	src\build\aware_client\pb_decode.o	#SHT_PROGBITS,SHF_ALLOC|SHF_EXECINSTR,4
	0x43024798		$a.0
	0x43024798		pb_read
	0x43024878		$d.1
	0x43024884		buf_read
	0x43024884		$a.2
	0x430248b8		pb_istream_from_buffer
	0x430248cc		$d.3
	0x430248d0		pb_decode_varint32
	0x430248d0		$a.4
	0x430248d8		pb_decode_varint32_eof
	0x43024a0c		$d.5
	0x43024a10		$a.6
	0x43024a10		pb_decode_varint
	0x43024ac0		$d.7
	0x43024ac4		pb_readbyte
	0x43024ac4		$a.8
	0x43024b34		$d.9
	0x43024b3c		$a.10
	0x43024b3c		pb_decode_tag
	0x43024b94		pb_skip_field
	0x43024bb4		$d.11
	0x43024bcc		$a.12
	0x43024c74		$d.13
	0x43024c78		$a.14
	0x43024c78		pb_make_string_substream
	0x43024cf4		$d.15
	0x43024cf8		$a.16
	0x43024cf8		pb_close_string_substream
	0x43024d48		pb_decode_ex
	0x43024ddc		pb_decode_inner
	0x43025144		$d.17
	0x43025154		$a.18
	0x43025154		pb_decode
	0x4302515c		pb_decode_bool
	0x4302519c		pb_decode_svarint
	0x430251ec		pb_decode_fixed32
	0x43025224		pb_decode_fixed64
	0x43025260		pb_message_set_to_defaults
	0x43025480		$d.19
	0x43025484		$a.20
	0x43025484		decode_field
	0x43025884		$d.21
	0x430258a4		$a.22
	0x430258a4		default_extension_decoder
	0x43025928		$d.23
	0x4302592c		$a.24
	0x4302592c		decode_basic_field
	0x4302595c		$d.25
	0x4302598c		$a.26
	0x43025a00		$d.27
	0x43025a20		$a.28
	0x43025b18		$d.29
	0x43025b38		$a.30
	0x43025e40		$d.31
.text	0x43025e68	0xe70	src\build\aware_client\pb_encode.o	#SHT_PROGBITS,SHF_ALLOC|SHF_EXECINSTR,4
	0x43025e68		$a.0
	0x43025e68		pb_ostream_from_buffer
	0x43025e80		$d.1
	0x43025e84		buf_write
	0x43025e84		$a.2
	0x43025ea8		pb_write
	0x43025f40		$d.3
	0x43025f48		pb_encode
	0x43025f48		$a.4
	0x43026038		$d.5
	0x4302603c		$a.6
	0x4302603c		encode_field
	0x430263c4		$d.7
	0x430263d4		pb_encode_ex
	0x430263d4		$a.8
	0x43026448		pb_encode_submessage
	0x43026580		$d.9
	0x43026588		$a.10
	0x43026588		pb_get_encoded_size
	0x430265e4		pb_encode_varint
	0x43026694		pb_encode_svarint
	0x430266b0		pb_encode_fixed32
	0x430266b8		pb_encode_fixed64
	0x430266c0		pb_encode_tag
	0x430266d0		pb_encode_tag_for_field
	0x430266f0		$d.11
	0x43026720		$a.12
	0x4302675c		$d.13
	0x43026760		$a.14
	0x43026760		pb_encode_string
	0x4302679c		pb_check_proto3_default_value
	0x4302687c		$d.15
	0x43026894		$a.16
	0x43026948		$d.17
	0x4302694c		encode_basic_field
	0x4302694c		$a.18
	0x430269a4		$d.19
	0x430269d4		$a.20
	0x43026b78		$d.21
	0x43026b8c		$a.22
	0x43026b8c		pb_enc_varint
	0x43026c90		$d.23
	0x43026c94		pb_enc_fixed
	0x43026c94		$a.24
	0x43026cd4		$d.25
.text	0x43026cd8	0x24a8	src\build\aware_client\qapi_loc_callbacks.o	#SHT_PROGBITS,SHF_ALLOC|SHF_EXECINSTR,4
	0x43026cd8		$a.0
	0x43026cd8		qapi_loc_wrapper_response_cb
	0x43026d58		$d.1
	0x43026d68		qapi_loc_wrapper_collective_response_cb
	0x43026d68		$a.2
	0x43026e64		$d.3
	0x43026e7c		$a.4
	0x43026e7c		qapi_loc_wrapper_capabilities_cb
	0x43026ee4		$d.5
	0x43026eec		$a.6
	0x43026eec		qapi_loc_wrapper_tracking_cb
	0x430273c0		$d.7
	0x430273ec		qapi_loc_wrapper_batching_cb
	0x430273ec		$a.8
	0x430278d4		$d.9
	0x43027908		$a.10
	0x43027908		qapi_loc_wrapper_geofence_breach_cb
	0x43027994		$d.11
	0x430279a4		$a.12
	0x43027f50		$d.13
	0x43027fac		$a.14
	0x43027fac		qapi_loc_wrapper_single_shot_cb
	0x43028624		$d.15
	0x43028670		$a.16
	0x43028670		qapi_loc_wrapper_gnss_data_cb
	0x43028784		$d.17
	0x4302879c		$a.18
	0x4302879c		qapi_loc_wrapper_gnss_meta_data_cb
	0x43028a88		$d.19
	0x43028ac0		$a.20
	0x43028ac0		qapi_loc_wrapper_gnss_nmea_cb
	0x43028c54		$d.21
	0x43028c74		$a.22
	0x43028c74		qapi_loc_wrapper_motion_tracking_cb
	0x43028e38		$d.23
	0x43028e5c		$a.24
	0x43028e5c		qapi_loc_wrapper_client_request_cb
	0x43029144		$d.25
.text	0x43029180	0x2098	src\build\aware_client\qapi_loc_wrapper.o	#SHT_PROGBITS,SHF_ALLOC|SHF_EXECINSTR,4
	0x43029180		$a.0
	0x43029180		qapi_loc_wrapper_setup
	0x430291b4		$d.1
	0x430291c4		$a.2
	0x430291c4		qapi_loc_wrapper_init
	0x43029500		$d.3
	0x43029570		$a.4
	0x43029570		qapi_location_cb_uspace_dispatcher
	0x43029748		$d.5
	0x43029784		qapi_loc_wrapper_deinit
	0x43029784		$a.6
	0x43029904		$d.7
	0x43029920		qapi_loc_wrapper_get_single_shot
	0x43029920		$a.8
	0x43029bd4		$d.9
	0x43029c08		$a.10
	0x43029c08		qapi_loc_wrapper_cancel_single_shot
	0x43029d80		$d.11
	0x43029d9c		$a.12
	0x43029d9c		qapi_loc_wrapper_tracking_start
	0x43029f38		$d.13
	0x43029f58		$a.14
	0x43029f58		qapi_loc_wrapper_tracking_stop
	0x4302a0d4		$d.15
	0x4302a0f4		$a.16
	0x4302a0f4		qapi_loc_wrapper_get_best_available_position
	0x4302a270		$d.17
	0x4302a290		$a.18
	0x4302a290		qapi_loc_wrapper_start_motion_tracking
	0x4302a414		$d.19
	0x4302a434		$a.20
	0x4302a434		qapi_loc_wrapper_stop_motion_tracking
	0x4302a5b0		$d.21
	0x4302a5d0		qapi_loc_wrapper_add_geofence
	0x4302a5d0		$a.22
	0x4302a7a0		$d.23
	0x4302a7c0		qapi_loc_wrapper_remove_geofence
	0x4302a7c0		$a.24
	0x4302a93c		$d.25
	0x4302a95c		$a.26
	0x4302a95c		qapi_loc_wrapper_set_gnss_constellation_config
	0x4302ab04		$d.27
	0x4302ab20		$a.28
	0x4302ab20		qapi_loc_wrapper_set_gnss_xtra_config
	0x4302ace0		$d.29
	0x4302acfc		$a.30
	0x4302acfc		qapi_loc_wrapper_trigger_ad_update
	0x4302ae04		$d.31
	0x4302ae14		$a.32
	0x4302ae14		qapi_loc_wrapper_get_ad_status
	0x4302af0c		$d.33
	0x4302af1c		_wait_for_response_cb
	0x4302af1c		$a.34
	0x4302b080		$d.35
	0x4302b09c		_wait_for_collective_response_cb
	0x4302b09c		$a.36
	0x4302b1fc		$d.37
.text	0x4302b218	0xc98	src\build\aware_client\runtime_config.o	#SHT_PROGBITS,SHF_ALLOC|SHF_EXECINSTR,4
	0x4302b218		$a.0
	0x4302b218		runtime_config_create
	0x4302b228		runtime_config_load
	0x4302bbd0		$d.1
	0x4302bcd4		$a.2
	0x4302bcd4		runtime_config_update
	0x4302be8c		$d.3
.text	0x4302beb0	0xa8c	src\build\aware_client\sensor_config.o	#SHT_PROGBITS,SHF_ALLOC|SHF_EXECINSTR,4
	0x4302beb0		$a.0
	0x4302beb0		sensor_config_create
	0x4302bed0		sensor_config_load
	0x4302bf28		$d.1
	0x4302bf38		$a.2
	0x4302c848		$d.3
.text	0x4302c93c	0x696c	src\build\aware_client\sensor_mgr.o	#SHT_PROGBITS,SHF_ALLOC|SHF_EXECINSTR,4
	0x4302c93c		$a.0
	0x4302c93c		sensor_ind_callback
	0x4302d6cc		$d.1
	0x4302d818		sensor_state_id
	0x4302d818		$a.2
	0x4302dc9c		$d.3
	0x4302dd20		sensor_event_id
	0x4302dd20		$a.4
	0x4302e1a4		$d.5
	0x4302e228		$a.6
	0x4302e228		check_sensor_id
	0x4302e260		$d.7
	0x4302e270		$a.8
	0x4302e4d8		$d.9
	0x4302e510		$a.10
	0x4302e510		sensor_mgr_init
	0x4302e854		$d.11
	0x4302e884		$a.12
	0x4302e884		sensor_mgr_release
	0x4302eab8		$d.13
	0x4302eae0		$a.14
	0x4302eae0		qapi_sensor_mgr_cb_uspace_dispatcher
	0x4302eb30		$d.15
	0x4302eb34		$a.16
	0x4302eb34		sensor_get_data
	0x4302f830		$d.17
	0x4302f8ac		$a.18
	0x43030110		$d.19
	0x43030138		$a.20
	0x430302b4		$d.21
	0x430302c4		$a.22
	0x430302d4		$d.23
	0x430302e0		$a.24
	0x430303c0		$d.25
	0x43030400		$a.26
	0x43030650		$d.27
	0x4303076c		$a.28
	0x4303076c		sensor_set_config
	0x430316f8		$d.29
	0x4303171c		$a.30
	0x430318f0		$d.31
	0x43031944		$a.32
	0x43031cd0		$d.33
	0x43031cf4		$a.34
	0x43031ebc		$d.35
	0x43032010		$a.36
	0x43032010		sensor_get_config
	0x43032ee8		$d.37
	0x43032f04		$a.38
	0x4303314c		$d.39
.text	0x430332a8	0x3a8	src\build\aware_client\sensor_mgr_thread.o	#SHT_PROGBITS,SHF_ALLOC|SHF_EXECINSTR,4
	0x430332a8		$a.0
	0x430332a8		sensor_mgr_thread_get_task_id
	0x430332b0		sensor_mgr_thread_get_task_name
	0x430332b8		$d.1
	0x430332bc		$a.2
	0x430332bc		sensor_mgr_thread_task_entry
	0x430333f4		$d.3
	0x43033404		$a.4
	0x43033614		$d.5
.text	0x43033650	0x7c	src\build\aware_client\sensor_mgr_utils.o	#SHT_PROGBITS,SHF_ALLOC|SHF_EXECINSTR,4
	0x43033650		$a.0
	0x43033650		get_pre_alert_threshold_limit
	0x4303365c		get_pre_alert_threshold_high
	0x43033678		get_pre_alert_threshold_low
	0x43033694		get_humidity_pre_alert_threshold_high
	0x430336b0		get_humidity_pre_alert_threshold_low
.text	0x430336cc	0x66c	src\build\aware_client\transport_config.o	#SHT_PROGBITS,SHF_ALLOC|SHF_EXECINSTR,4
	0x430336cc		$a.0
	0x430336cc		transport_config_create
	0x430336ec		transport_config_load
	0x43033ca4		$d.1
.text	0x43033d38	0xad4	src\build\aware_client\version_config.o	#SHT_PROGBITS,SHF_ALLOC|SHF_EXECINSTR,4
	0x43033d38		$a.0
	0x43033d38		version_config_create
	0x43033d48		version_config_load
	0x43034700		$d.1
	0x43034804		$a.2
	0x43034804		version_config_update
.text.psm_user_space_dispatcher	0x4303480c	0x18	common\libs\qapi_psm_lib.lib(qapi_psm_user.o)	#SHT_PROGBITS,SHF_ALLOC|SHF_EXECINSTR,4
	0x4303480c		$a.0
	0x4303480c		psm_user_space_dispatcher
.text.qapi_Timer_Get_Cbinfo	0x43034824	0x64	common\libs\timer_dam_lib.lib(qapi_timer_user.o)	#SHT_PROGBITS,SHF_ALLOC|SHF_EXECINSTR,4
	0x43034824		$a.0
	0x43034824		qapi_Timer_Get_Cbinfo
	0x43034884		$d.1
.text.timer_client_cb_handler	0x43034888	0x50	common\libs\timer_dam_lib.lib(qapi_timer_user.o)	#SHT_PROGBITS,SHF_ALLOC|SHF_EXECINSTR,4
	0x43034888		$a.2
	0x43034888		timer_client_cb_handler
.text.qapi_timer_user_init	0x430348d8	0x100	common\libs\timer_dam_lib.lib(qapi_timer_user.o)	#SHT_PROGBITS,SHF_ALLOC|SHF_EXECINSTR,4
	0x430348d8		$a.3
	0x430348d8		qapi_timer_user_init
	0x430349b8		$d.4
.text.qapi_Timer_Def	0x430349d8	0x8c	common\libs\timer_dam_lib.lib(qapi_timer_user.o)	#SHT_PROGBITS,SHF_ALLOC|SHF_EXECINSTR,4
	0x430349d8		$a.5
	0x430349d8		qapi_Timer_Def
	0x43034a5c		$d.6
.text.qapi_Timer_Set	0x43034a64	0x64	common\libs\timer_dam_lib.lib(qapi_timer_user.o)	#SHT_PROGBITS,SHF_ALLOC|SHF_EXECINSTR,4
	0x43034a64		$a.7
	0x43034a64		qapi_Timer_Set
.text.qapi_Timer_Get_Timer_Info	0x43034ac8	0x6c	common\libs\timer_dam_lib.lib(qapi_timer_user.o)	#SHT_PROGBITS,SHF_ALLOC|SHF_EXECINSTR,4
	0x43034ac8		$a.8
	0x43034ac8		qapi_Timer_Get_Timer_Info
.text.qapi_Timer_Sleep	0x43034b34	0x5c	common\libs\timer_dam_lib.lib(qapi_timer_user.o)	#SHT_PROGBITS,SHF_ALLOC|SHF_EXECINSTR,4
	0x43034b34		$a.9
	0x43034b34		qapi_Timer_Sleep
.text.qapi_Timer_Undef	0x43034b90	0x5c	common\libs\timer_dam_lib.lib(qapi_timer_user.o)	#SHT_PROGBITS,SHF_ALLOC|SHF_EXECINSTR,4
	0x43034b90		$a.10
	0x43034b90		qapi_Timer_Undef
.text.qapi_Timer_Stop	0x43034bec	0x5c	common\libs\timer_dam_lib.lib(qapi_timer_user.o)	#SHT_PROGBITS,SHF_ALLOC|SHF_EXECINSTR,4
	0x43034bec		$a.11
	0x43034bec		qapi_Timer_Stop
.text.qapi_time_get	0x43034c48	0x70	common\libs\timer_dam_lib.lib(qapi_timer_user.o)	#SHT_PROGBITS,SHF_ALLOC|SHF_EXECINSTR,4
	0x43034c48		$a.12
	0x43034c48		qapi_time_get
.text.main	0x43034cb8	0x8	common\libs\txm_lib.lib(txm_module_thread_shell_entry.o)	#SHT_PROGBITS,SHF_ALLOC|SHF_EXECINSTR,4
	0x43034cb8		$a.0
	0x43034cb8		main
.text.__user_setup_stackheap	0x43034cc0	0x4	common\libs\txm_lib.lib(txm_module_thread_shell_entry.o)	#SHT_PROGBITS,SHF_ALLOC|SHF_EXECINSTR,4
	0x43034cc0		$a.1
	0x43034cc0		__user_setup_stackheap
.text._txm_module_thread_shell_entry	0x43034cc4	0x6c	common\libs\txm_lib.lib(txm_module_thread_shell_entry.o)	#SHT_PROGBITS,SHF_ALLOC|SHF_EXECINSTR,4
	0x43034cc4		$a.2
	0x43034cc4		_txm_module_thread_shell_entry
	0x43034d28		$d.3
.text._txm_module_callback_request_thread_entry	0x43034d30	0xd0	common\libs\txm_lib.lib(txm_module_callback_request_thread_entry.o)	#SHT_PROGBITS,SHF_ALLOC|SHF_EXECINSTR,4
	0x43034d30		$a.0
	0x43034d30		_txm_module_callback_request_thread_entry
	0x43034d88		$d.1
	0x43034d9c		$a.2
	0x43034dfc		$d.3
.text._txm_module_system_call11	0x43034e00	0x68	common\libs\txm_lib.lib(txm_module_system_call11.o)	#SHT_PROGBITS,SHF_ALLOC|SHF_EXECINSTR,4
	0x43034e00		$a.0
	0x43034e00		_txm_module_system_call11
	0x43034e64		$d.1
.text._txm_module_system_call12	0x43034e68	0x70	common\libs\txm_lib.lib(txm_module_system_call12.o)	#SHT_PROGBITS,SHF_ALLOC|SHF_EXECINSTR,4
	0x43034e68		$a.0
	0x43034e68		_txm_module_system_call12
	0x43034ed4		$d.1
.text._txe_byte_pool_create	0x43034ed8	0x3c	common\libs\txm_lib.lib(txm_byte_pool_create.o)	#SHT_PROGBITS,SHF_ALLOC|SHF_EXECINSTR,4
	0x43034ed8		$a.0
	0x43034ed8		_txe_byte_pool_create
	0x43034f10		$d.1
.text._txe_byte_allocate	0x43034f14	0x34	common\libs\txm_lib.lib(txm_byte_allocate.o)	#SHT_PROGBITS,SHF_ALLOC|SHF_EXECINSTR,4
	0x43034f14		$a.0
	0x43034f14		_txe_byte_allocate
	0x43034f44		$d.1
.text._txe_byte_release	0x43034f48	0x20	common\libs\txm_lib.lib(txm_byte_release.o)	#SHT_PROGBITS,SHF_ALLOC|SHF_EXECINSTR,4
	0x43034f48		$a.0
	0x43034f48		_txe_byte_release
	0x43034f64		$d.1
.text._txe_event_flags_create	0x43034f68	0x20	common\libs\txm_lib.lib(txm_event_flags_create.o)	#SHT_PROGBITS,SHF_ALLOC|SHF_EXECINSTR,4
	0x43034f68		$a.0
	0x43034f68		_txe_event_flags_create
	0x43034f84		$d.1
.text._txe_event_flags_delete	0x43034f88	0x20	common\libs\txm_lib.lib(txm_event_flags_delete.o)	#SHT_PROGBITS,SHF_ALLOC|SHF_EXECINSTR,4
	0x43034f88		$a.0
	0x43034f88		_txe_event_flags_delete
	0x43034fa4		$d.1
.text._txe_event_flags_get	0x43034fa8	0x3c	common\libs\txm_lib.lib(txm_event_flags_get.o)	#SHT_PROGBITS,SHF_ALLOC|SHF_EXECINSTR,4
	0x43034fa8		$a.0
	0x43034fa8		_txe_event_flags_get
	0x43034fe0		$d.1
.text._txe_event_flags_info_get	0x43034fe4	0x44	common\libs\txm_lib.lib(txm_event_flags_info_get.o)	#SHT_PROGBITS,SHF_ALLOC|SHF_EXECINSTR,4
	0x43034fe4		$a.0
	0x43034fe4		_txe_event_flags_info_get
	0x43035024		$d.1
.text._txe_event_flags_set	0x43035028	0x20	common\libs\txm_lib.lib(txm_event_flags_set.o)	#SHT_PROGBITS,SHF_ALLOC|SHF_EXECINSTR,4
	0x43035028		$a.0
	0x43035028		_txe_event_flags_set
	0x43035044		$d.1
.text._txm_module_object_allocate	0x43035048	0x20	common\libs\txm_lib.lib(txm_module_object_allocate.o)	#SHT_PROGBITS,SHF_ALLOC|SHF_EXECINSTR,4
	0x43035048		$a.0
	0x43035048		_txm_module_object_allocate
	0x43035064		$d.1
.text._txm_module_object_deallocate	0x43035068	0x20	common\libs\txm_lib.lib(txm_module_object_deallocate.o)	#SHT_PROGBITS,SHF_ALLOC|SHF_EXECINSTR,4
	0x43035068		$a.0
	0x43035068		_txm_module_object_deallocate
	0x43035084		$d.1
.text._txm_module_thread_system_suspend	0x43035088	0x20	common\libs\txm_lib.lib(txm_module_thread_system_suspend.o)	#SHT_PROGBITS,SHF_ALLOC|SHF_EXECINSTR,4
	0x43035088		$a.0
	0x43035088		_txm_module_thread_system_suspend
	0x430350a4		$d.1
.text._txe_mutex_create	0x430350a8	0x34	common\libs\txm_lib.lib(txm_mutex_create.o)	#SHT_PROGBITS,SHF_ALLOC|SHF_EXECINSTR,4
	0x430350a8		$a.0
	0x430350a8		_txe_mutex_create
	0x430350d8		$d.1
.text._txe_mutex_delete	0x430350dc	0x20	common\libs\txm_lib.lib(txm_mutex_delete.o)	#SHT_PROGBITS,SHF_ALLOC|SHF_EXECINSTR,4
	0x430350dc		$a.0
	0x430350dc		_txe_mutex_delete
	0x430350f8		$d.1
.text._txe_mutex_get	0x430350fc	0x20	common\libs\txm_lib.lib(txm_mutex_get.o)	#SHT_PROGBITS,SHF_ALLOC|SHF_EXECINSTR,4
	0x430350fc		$a.0
	0x430350fc		_txe_mutex_get
	0x43035118		$d.1
.text._txe_mutex_put	0x4303511c	0x20	common\libs\txm_lib.lib(txm_mutex_put.o)	#SHT_PROGBITS,SHF_ALLOC|SHF_EXECINSTR,4
	0x4303511c		$a.0
	0x4303511c		_txe_mutex_put
	0x43035138		$d.1
.text._txe_queue_receive	0x4303513c	0x20	common\libs\txm_lib.lib(txm_queue_receive.o)	#SHT_PROGBITS,SHF_ALLOC|SHF_EXECINSTR,4
	0x4303513c		$a.0
	0x4303513c		_txe_queue_receive
	0x43035158		$d.1
.text._txe_thread_create	0x4303515c	0x70	common\libs\txm_lib.lib(txm_thread_create.o)	#SHT_PROGBITS,SHF_ALLOC|SHF_EXECINSTR,4
	0x4303515c		$a.0
	0x4303515c		_txe_thread_create
	0x430351c8		$d.1
.text._txe_thread_delete	0x430351cc	0x20	common\libs\txm_lib.lib(txm_thread_delete.o)	#SHT_PROGBITS,SHF_ALLOC|SHF_EXECINSTR,4
	0x430351cc		$a.0
	0x430351cc		_txe_thread_delete
	0x430351e8		$d.1
.text._tx_thread_identify	0x430351ec	0x20	common\libs\txm_lib.lib(txm_thread_identify.o)	#SHT_PROGBITS,SHF_ALLOC|SHF_EXECINSTR,4
	0x430351ec		$a.0
	0x430351ec		_tx_thread_identify
	0x43035208		$d.1
.text._txe_thread_preemption_change	0x4303520c	0x20	common\libs\txm_lib.lib(txm_thread_preemption_change.o)	#SHT_PROGBITS,SHF_ALLOC|SHF_EXECINSTR,4
	0x4303520c		$a.0
	0x4303520c		_txe_thread_preemption_change
	0x43035228		$d.1
.text._txe_thread_resume	0x4303522c	0x20	common\libs\txm_lib.lib(txm_thread_resume.o)	#SHT_PROGBITS,SHF_ALLOC|SHF_EXECINSTR,4
	0x4303522c		$a.0
	0x4303522c		_txe_thread_resume
	0x43035248		$d.1
.text._tx_thread_sleep	0x4303524c	0x20	common\libs\txm_lib.lib(txm_thread_sleep.o)	#SHT_PROGBITS,SHF_ALLOC|SHF_EXECINSTR,4
	0x4303524c		$a.0
	0x4303524c		_tx_thread_sleep
	0x43035268		$d.1
.text._txe_thread_terminate	0x4303526c	0x20	common\libs\txm_lib.lib(txm_thread_terminate.o)	#SHT_PROGBITS,SHF_ALLOC|SHF_EXECINSTR,4
	0x4303526c		$a.0
	0x4303526c		_txe_thread_terminate
	0x43035288		$d.1
.text._tx_time_get	0x4303528c	0x20	common\libs\txm_lib.lib(txm_time_get.o)	#SHT_PROGBITS,SHF_ALLOC|SHF_EXECINSTR,4
	0x4303528c		$a.0
	0x4303528c		_tx_time_get
	0x430352a8		$d.1
.text.malloc	0x430352ac	0x1b8	C:\Users\2166772\Downloads\snapdragon_sd_llvm_arm.win.4.0_installer_41720.103-16-22_11_46_50\Snapdragon_SD_LLVM_ARM_WIN_4_0_Installer_41720_1\Snapdragon-llvm-4.0.17-windows64\armv7m-none-eabi\libc\lib/libc.a(malloc.o)	#SHT_PROGBITS,SHF_ALLOC|SHF_EXECINSTR,4
	0x430352ac		$t
	0x430352ad		malloc
	0x4303544c		$d
.text.adjust_size	0x43035464	0x34	C:\Users\2166772\Downloads\snapdragon_sd_llvm_arm.win.4.0_installer_41720.103-16-22_11_46_50\Snapdragon_SD_LLVM_ARM_WIN_4_0_Installer_41720_1\Snapdragon-llvm-4.0.17-windows64\armv7m-none-eabi\libc\lib/libc.a(malloc.o)	#SHT_PROGBITS,SHF_ALLOC|SHF_EXECINSTR,4
	0x43035464		$t
	0x43035465		adjust_size
	0x43035494		$d
.text.alloc_rev	0x43035498	0x40	C:\Users\2166772\Downloads\snapdragon_sd_llvm_arm.win.4.0_installer_41720.103-16-22_11_46_50\Snapdragon_SD_LLVM_ARM_WIN_4_0_Installer_41720_1\Snapdragon-llvm-4.0.17-windows64\armv7m-none-eabi\libc\lib/libc.a(malloc.o)	#SHT_PROGBITS,SHF_ALLOC|SHF_EXECINSTR,2
	0x43035498		$t
	0x43035499		alloc_rev
.text.lock_bin	0x430354d8	0x28	C:\Users\2166772\Downloads\snapdragon_sd_llvm_arm.win.4.0_installer_41720.103-16-22_11_46_50\Snapdragon_SD_LLVM_ARM_WIN_4_0_Installer_41720_1\Snapdragon-llvm-4.0.17-windows64\armv7m-none-eabi\libc\lib/libc.a(malloc.o)	#SHT_PROGBITS,SHF_ALLOC|SHF_EXECINSTR,4
	0x430354d8		$t
	0x430354d9		lock_bin
	0x430354fc		$d
.text.unbin	0x43035500	0x68	C:\Users\2166772\Downloads\snapdragon_sd_llvm_arm.win.4.0_installer_41720.103-16-22_11_46_50\Snapdragon_SD_LLVM_ARM_WIN_4_0_Installer_41720_1\Snapdragon-llvm-4.0.17-windows64\armv7m-none-eabi\libc\lib/libc.a(malloc.o)	#SHT_PROGBITS,SHF_ALLOC|SHF_EXECINSTR,4
	0x43035500		$t
	0x43035501		unbin
	0x43035564		$d
.text.unlock_bin	0x43035568	0x10	C:\Users\2166772\Downloads\snapdragon_sd_llvm_arm.win.4.0_installer_41720.103-16-22_11_46_50\Snapdragon_SD_LLVM_ARM_WIN_4_0_Installer_41720_1\Snapdragon-llvm-4.0.17-windows64\armv7m-none-eabi\libc\lib/libc.a(malloc.o)	#SHT_PROGBITS,SHF_ALLOC|SHF_EXECINSTR,4
	0x43035568		$t
	0x43035569		unlock_bin
	0x43035574		$d
.text.trim	0x43035578	0x32	C:\Users\2166772\Downloads\snapdragon_sd_llvm_arm.win.4.0_installer_41720.103-16-22_11_46_50\Snapdragon_SD_LLVM_ARM_WIN_4_0_Installer_41720_1\Snapdragon-llvm-4.0.17-windows64\armv7m-none-eabi\libc\lib/libc.a(malloc.o)	#SHT_PROGBITS,SHF_ALLOC|SHF_EXECINSTR,2
	0x43035578		$t
	0x43035579		trim
.text.__malloc0	0x430355aa	0x2a	C:\Users\2166772\Downloads\snapdragon_sd_llvm_arm.win.4.0_installer_41720.103-16-22_11_46_50\Snapdragon_SD_LLVM_ARM_WIN_4_0_Installer_41720_1\Snapdragon-llvm-4.0.17-windows64\armv7m-none-eabi\libc\lib/libc.a(malloc.o)	#SHT_PROGBITS,SHF_ALLOC|SHF_EXECINSTR,2
	0x430355aa		$t
	0x430355ab		__malloc0
.text.realloc	0x430355d4	0x108	C:\Users\2166772\Downloads\snapdragon_sd_llvm_arm.win.4.0_installer_41720.103-16-22_11_46_50\Snapdragon_SD_LLVM_ARM_WIN_4_0_Installer_41720_1\Snapdragon-llvm-4.0.17-windows64\armv7m-none-eabi\libc\lib/libc.a(malloc.o)	#SHT_PROGBITS,SHF_ALLOC|SHF_EXECINSTR,2
	0x430355d4		$t
	0x430355d5		realloc
	0x43035612		$d
	0x43035614		$t
	0x43035674		$d
	0x43035676		$t
.text.free	0x430356dc	0x178	C:\Users\2166772\Downloads\snapdragon_sd_llvm_arm.win.4.0_installer_41720.103-16-22_11_46_50\Snapdragon_SD_LLVM_ARM_WIN_4_0_Installer_41720_1\Snapdragon-llvm-4.0.17-windows64\armv7m-none-eabi\libc\lib/libc.a(malloc.o)	#SHT_PROGBITS,SHF_ALLOC|SHF_EXECINSTR,4
	0x430356dc		$t
	0x430356dd		free
	0x43035704		$d
	0x43035706		$t
	0x43035716		$d
	0x43035718		$t
	0x43035850		$d
.text.alloc_fwd	0x43035854	0x3c	C:\Users\2166772\Downloads\snapdragon_sd_llvm_arm.win.4.0_installer_41720.103-16-22_11_46_50\Snapdragon_SD_LLVM_ARM_WIN_4_0_Installer_41720_1\Snapdragon-llvm-4.0.17-windows64\armv7m-none-eabi\libc\lib/libc.a(malloc.o)	#SHT_PROGBITS,SHF_ALLOC|SHF_EXECINSTR,2
	0x43035854		$t
	0x43035855		alloc_fwd
.text.bin_index	0x43035890	0x2c	C:\Users\2166772\Downloads\snapdragon_sd_llvm_arm.win.4.0_installer_41720.103-16-22_11_46_50\Snapdragon_SD_LLVM_ARM_WIN_4_0_Installer_41720_1\Snapdragon-llvm-4.0.17-windows64\armv7m-none-eabi\libc\lib/libc.a(malloc.o)	#SHT_PROGBITS,SHF_ALLOC|SHF_EXECINSTR,4
	0x43035890		$t
	0x43035891		bin_index
	0x430358b8		$d
.text.lock	0x430358bc	0x3c	C:\Users\2166772\Downloads\snapdragon_sd_llvm_arm.win.4.0_installer_41720.103-16-22_11_46_50\Snapdragon_SD_LLVM_ARM_WIN_4_0_Installer_41720_1\Snapdragon-llvm-4.0.17-windows64\armv7m-none-eabi\libc\lib/libc.a(malloc.o)	#SHT_PROGBITS,SHF_ALLOC|SHF_EXECINSTR,4
	0x430358bc		$t
	0x430358bd		lock
	0x430358f4		$d
.text.unlock	0x430358f8	0x32	C:\Users\2166772\Downloads\snapdragon_sd_llvm_arm.win.4.0_installer_41720.103-16-22_11_46_50\Snapdragon_SD_LLVM_ARM_WIN_4_0_Installer_41720_1\Snapdragon-llvm-4.0.17-windows64\armv7m-none-eabi\libc\lib/libc.a(malloc.o)	#SHT_PROGBITS,SHF_ALLOC|SHF_EXECINSTR,2
	0x430358f8		$t
	0x430358f9		unlock
.text.a_and	0x4303592a	0x22	C:\Users\2166772\Downloads\snapdragon_sd_llvm_arm.win.4.0_installer_41720.103-16-22_11_46_50\Snapdragon_SD_LLVM_ARM_WIN_4_0_Installer_41720_1\Snapdragon-llvm-4.0.17-windows64\armv7m-none-eabi\libc\lib/libc.a(malloc.o)	#SHT_PROGBITS,SHF_ALLOC|SHF_EXECINSTR,2
	0x4303592a		$t
	0x4303592b		a_and
.text.a_sc	0x4303594c	0xe	C:\Users\2166772\Downloads\snapdragon_sd_llvm_arm.win.4.0_installer_41720.103-16-22_11_46_50\Snapdragon_SD_LLVM_ARM_WIN_4_0_Installer_41720_1\Snapdragon-llvm-4.0.17-windows64\armv7m-none-eabi\libc\lib/libc.a(malloc.o)	#SHT_PROGBITS,SHF_ALLOC|SHF_EXECINSTR,2
	0x4303594c		$t
	0x4303594d		a_sc
.text.__syscall3	0x4303595a	0xa	C:\Users\2166772\Downloads\snapdragon_sd_llvm_arm.win.4.0_installer_41720.103-16-22_11_46_50\Snapdragon_SD_LLVM_ARM_WIN_4_0_Installer_41720_1\Snapdragon-llvm-4.0.17-windows64\armv7m-none-eabi\libc\lib/libc.a(malloc.o)	#SHT_PROGBITS,SHF_ALLOC|SHF_EXECINSTR,2
	0x4303595a		$t
	0x4303595b		__syscall3
.text.a_or	0x43035964	0x22	C:\Users\2166772\Downloads\snapdragon_sd_llvm_arm.win.4.0_installer_41720.103-16-22_11_46_50\Snapdragon_SD_LLVM_ARM_WIN_4_0_Installer_41720_1\Snapdragon-llvm-4.0.17-windows64\armv7m-none-eabi\libc\lib/libc.a(malloc.o)	#SHT_PROGBITS,SHF_ALLOC|SHF_EXECINSTR,2
	0x43035964		$t
	0x43035965		a_or
PADDING_ALIGNMENT	0x43035986	0x2	0x0
.text.floor	0x43035988	0xc4	C:\Users\2166772\Downloads\snapdragon_sd_llvm_arm.win.4.0_installer_41720.103-16-22_11_46_50\Snapdragon_SD_LLVM_ARM_WIN_4_0_Installer_41720_1\Snapdragon-llvm-4.0.17-windows64\armv7m-none-eabi\libc\lib/libc.a(floor.o)	#SHT_PROGBITS,SHF_ALLOC|SHF_EXECINSTR,4
	0x43035988		$t
	0x43035989		floor
	0x43035a40		$d
.text.pow	0x43035a4c	0xaa0	C:\Users\2166772\Downloads\snapdragon_sd_llvm_arm.win.4.0_installer_41720.103-16-22_11_46_50\Snapdragon_SD_LLVM_ARM_WIN_4_0_Installer_41720_1\Snapdragon-llvm-4.0.17-windows64\armv7m-none-eabi\libc\lib/libc.a(pow.o)	#SHT_PROGBITS,SHF_ALLOC|SHF_EXECINSTR,4
	0x43035a4c		$t
	0x43035a4d		pow
	0x430363dc		$d
.text.scalbn	0x430364ec	0x94	C:\Users\2166772\Downloads\snapdragon_sd_llvm_arm.win.4.0_installer_41720.103-16-22_11_46_50\Snapdragon_SD_LLVM_ARM_WIN_4_0_Installer_41720_1\Snapdragon-llvm-4.0.17-windows64\armv7m-none-eabi\libc\lib/libc.a(scalbn.o)	#SHT_PROGBITS,SHF_ALLOC|SHF_EXECINSTR,4
	0x430364ec		$t
	0x430364ed		scalbn
	0x4303656c		$d
.text.__madvise	0x43036580	0xe	C:\Users\2166772\Downloads\snapdragon_sd_llvm_arm.win.4.0_installer_41720.103-16-22_11_46_50\Snapdragon_SD_LLVM_ARM_WIN_4_0_Installer_41720_1\Snapdragon-llvm-4.0.17-windows64\armv7m-none-eabi\libc\lib/libc.a(madvise.o)	#SHT_PROGBITS,SHF_ALLOC|SHF_EXECINSTR,2
	0x43036580		$t
	0x43036581		__madvise
	0x43036581		madvise
.text.dummy	0x4303658e	0x2	C:\Users\2166772\Downloads\snapdragon_sd_llvm_arm.win.4.0_installer_41720.103-16-22_11_46_50\Snapdragon_SD_LLVM_ARM_WIN_4_0_Installer_41720_1\Snapdragon-llvm-4.0.17-windows64\armv7m-none-eabi\libc\lib/libc.a(mremap.o)	#SHT_PROGBITS,SHF_ALLOC|SHF_EXECINSTR,2
	0x4303658e		$t
	0x4303658f		dummy
	0x4303658f		__vm_wait
.text.__mremap	0x43036590	0x54	C:\Users\2166772\Downloads\snapdragon_sd_llvm_arm.win.4.0_installer_41720.103-16-22_11_46_50\Snapdragon_SD_LLVM_ARM_WIN_4_0_Installer_41720_1\Snapdragon-llvm-4.0.17-windows64\armv7m-none-eabi\libc\lib/libc.a(mremap.o)	#SHT_PROGBITS,SHF_ALLOC|SHF_EXECINSTR,4
	0x43036590		$t
	0x43036591		__mremap
	0x43036591		mremap
	0x430365e0		$d
.text.dummy	0x430365e4	0x2	C:\Users\2166772\Downloads\snapdragon_sd_llvm_arm.win.4.0_installer_41720.103-16-22_11_46_50\Snapdragon_SD_LLVM_ARM_WIN_4_0_Installer_41720_1\Snapdragon-llvm-4.0.17-windows64\armv7m-none-eabi\libc\lib/libc.a(munmap.o)	#SHT_PROGBITS,SHF_ALLOC|SHF_EXECINSTR,2
	0x430365e4		$t
	0x430365e5		dummy
.text.__munmap	0x430365e6	0x1a	C:\Users\2166772\Downloads\snapdragon_sd_llvm_arm.win.4.0_installer_41720.103-16-22_11_46_50\Snapdragon_SD_LLVM_ARM_WIN_4_0_Installer_41720_1\Snapdragon-llvm-4.0.17-windows64\armv7m-none-eabi\libc\lib/libc.a(munmap.o)	#SHT_PROGBITS,SHF_ALLOC|SHF_EXECINSTR,2
	0x430365e6		$t
	0x430365e7		__munmap
	0x430365e7		munmap
.text.vfprintf	0x43036600	0xd6	C:\Users\2166772\Downloads\snapdragon_sd_llvm_arm.win.4.0_installer_41720.103-16-22_11_46_50\Snapdragon_SD_LLVM_ARM_WIN_4_0_Installer_41720_1\Snapdragon-llvm-4.0.17-windows64\armv7m-none-eabi\libc\lib/libc.a(vfprintf.o)	#SHT_PROGBITS,SHF_ALLOC|SHF_EXECINSTR,2
	0x43036600		$t
	0x43036601		vfprintf
PADDING_ALIGNMENT	0x430366d6	0x2	0x0
.text.printf_core	0x430366d8	0x6a8	C:\Users\2166772\Downloads\snapdragon_sd_llvm_arm.win.4.0_installer_41720.103-16-22_11_46_50\Snapdragon_SD_LLVM_ARM_WIN_4_0_Installer_41720_1\Snapdragon-llvm-4.0.17-windows64\armv7m-none-eabi\libc\lib/libc.a(vfprintf.o)	#SHT_PROGBITS,SHF_ALLOC|SHF_EXECINSTR,4
	0x430366d8		$t
	0x430366d9		printf_core
	0x43036988		$d
	0x43036990		$t
	0x43036bf8		$d
	0x43036c1e		$t
	0x43036d5c		$d
.text.vsnprintf	0x43036d80	0x1a4	C:\Users\2166772\Downloads\snapdragon_sd_llvm_arm.win.4.0_installer_41720.103-16-22_11_46_50\Snapdragon_SD_LLVM_ARM_WIN_4_0_Installer_41720_1\Snapdragon-llvm-4.0.17-windows64\armv7m-none-eabi\libc\lib/libc.a(vfprintf.o)	#SHT_PROGBITS,SHF_ALLOC|SHF_EXECINSTR,4
	0x43036d80		$t
	0x43036d81		vsnprintf
	0x43036f20		$d
.text.fmt_u32	0x43036f24	0x22	C:\Users\2166772\Downloads\snapdragon_sd_llvm_arm.win.4.0_installer_41720.103-16-22_11_46_50\Snapdragon_SD_LLVM_ARM_WIN_4_0_Installer_41720_1\Snapdragon-llvm-4.0.17-windows64\armv7m-none-eabi\libc\lib/libc.a(vfprintf.o)	#SHT_PROGBITS,SHF_ALLOC|SHF_EXECINSTR,2
	0x43036f24		$t
	0x43036f25		fmt_u32
.text.out	0x43036f46	0x14	C:\Users\2166772\Downloads\snapdragon_sd_llvm_arm.win.4.0_installer_41720.103-16-22_11_46_50\Snapdragon_SD_LLVM_ARM_WIN_4_0_Installer_41720_1\Snapdragon-llvm-4.0.17-windows64\armv7m-none-eabi\libc\lib/libc.a(vfprintf.o)	#SHT_PROGBITS,SHF_ALLOC|SHF_EXECINSTR,2
	0x43036f46		$t
	0x43036f47		out
.text.getint	0x43036f5a	0x1e	C:\Users\2166772\Downloads\snapdragon_sd_llvm_arm.win.4.0_installer_41720.103-16-22_11_46_50\Snapdragon_SD_LLVM_ARM_WIN_4_0_Installer_41720_1\Snapdragon-llvm-4.0.17-windows64\armv7m-none-eabi\libc\lib/libc.a(vfprintf.o)	#SHT_PROGBITS,SHF_ALLOC|SHF_EXECINSTR,2
	0x43036f5a		$t
	0x43036f5b		getint
.text.pop_arg	0x43036f78	0x80	C:\Users\2166772\Downloads\snapdragon_sd_llvm_arm.win.4.0_installer_41720.103-16-22_11_46_50\Snapdragon_SD_LLVM_ARM_WIN_4_0_Installer_41720_1\Snapdragon-llvm-4.0.17-windows64\armv7m-none-eabi\libc\lib/libc.a(vfprintf.o)	#SHT_PROGBITS,SHF_ALLOC|SHF_EXECINSTR,4
	0x43036f78		$t
	0x43036f79		pop_arg
	0x43036f86		$d
	0x43036f90		$t
.text.pad	0x43036ff8	0x4e	C:\Users\2166772\Downloads\snapdragon_sd_llvm_arm.win.4.0_installer_41720.103-16-22_11_46_50\Snapdragon_SD_LLVM_ARM_WIN_4_0_Installer_41720_1\Snapdragon-llvm-4.0.17-windows64\armv7m-none-eabi\libc\lib/libc.a(vfprintf.o)	#SHT_PROGBITS,SHF_ALLOC|SHF_EXECINSTR,2
	0x43036ff8		$t
	0x43036ff9		pad
.text.__fwritex	0x43037046	0x76	C:\Users\2166772\Downloads\snapdragon_sd_llvm_arm.win.4.0_installer_41720.103-16-22_11_46_50\Snapdragon_SD_LLVM_ARM_WIN_4_0_Installer_41720_1\Snapdragon-llvm-4.0.17-windows64\armv7m-none-eabi\libc\lib/libc.a(fwrite.o)	#SHT_PROGBITS,SHF_ALLOC|SHF_EXECINSTR,2
	0x43037046		$t
	0x43037047		__fwritex
.text.fwrite	0x430370bc	0x58	C:\Users\2166772\Downloads\snapdragon_sd_llvm_arm.win.4.0_installer_41720.103-16-22_11_46_50\Snapdragon_SD_LLVM_ARM_WIN_4_0_Installer_41720_1\Snapdragon-llvm-4.0.17-windows64\armv7m-none-eabi\libc\lib/libc.a(fwrite.o)	#SHT_PROGBITS,SHF_ALLOC|SHF_EXECINSTR,2
	0x430370bc		$t
	0x430370bd		fwrite
	0x430370bd		fwrite_unlocked
.text.snprintf	0x43037114	0x16	C:\Users\2166772\Downloads\snapdragon_sd_llvm_arm.win.4.0_installer_41720.103-16-22_11_46_50\Snapdragon_SD_LLVM_ARM_WIN_4_0_Installer_41720_1\Snapdragon-llvm-4.0.17-windows64\armv7m-none-eabi\libc\lib/libc.a(snprintf.o)	#SHT_PROGBITS,SHF_ALLOC|SHF_EXECINSTR,2
	0x43037114		$t
	0x43037115		snprintf
PADDING_ALIGNMENT	0x4303712a	0x2	0x0
.text.vsnprintf_full	0x4303712c	0x74	C:\Users\2166772\Downloads\snapdragon_sd_llvm_arm.win.4.0_installer_41720.103-16-22_11_46_50\Snapdragon_SD_LLVM_ARM_WIN_4_0_Installer_41720_1\Snapdragon-llvm-4.0.17-windows64\armv7m-none-eabi\libc\lib/libc.a(vsnprintf.o)	#SHT_PROGBITS,SHF_ALLOC|SHF_EXECINSTR,4
	0x4303712c		$t
	0x4303712d		vsnprintf_full
	0x43037198		$d
.text.sn_write	0x430371a0	0x22	C:\Users\2166772\Downloads\snapdragon_sd_llvm_arm.win.4.0_installer_41720.103-16-22_11_46_50\Snapdragon_SD_LLVM_ARM_WIN_4_0_Installer_41720_1\Snapdragon-llvm-4.0.17-windows64\armv7m-none-eabi\libc\lib/libc.a(vsnprintf.o)	#SHT_PROGBITS,SHF_ALLOC|SHF_EXECINSTR,2
	0x430371a0		$t
	0x430371a1		sn_write
.text.atof	0x430371c2	0x6	C:\Users\2166772\Downloads\snapdragon_sd_llvm_arm.win.4.0_installer_41720.103-16-22_11_46_50\Snapdragon_SD_LLVM_ARM_WIN_4_0_Installer_41720_1\Snapdragon-llvm-4.0.17-windows64\armv7m-none-eabi\libc\lib/libc.a(atof.o)	#SHT_PROGBITS,SHF_ALLOC|SHF_EXECINSTR,2
	0x430371c2		$t
	0x430371c3		atof
.text.atoi	0x430371c8	0x3e	C:\Users\2166772\Downloads\snapdragon_sd_llvm_arm.win.4.0_installer_41720.103-16-22_11_46_50\Snapdragon_SD_LLVM_ARM_WIN_4_0_Installer_41720_1\Snapdragon-llvm-4.0.17-windows64\armv7m-none-eabi\libc\lib/libc.a(atoi.o)	#SHT_PROGBITS,SHF_ALLOC|SHF_EXECINSTR,2
	0x430371c8		$t
	0x430371c9		atoi
.text.strtof	0x43037206	0xe	C:\Users\2166772\Downloads\snapdragon_sd_llvm_arm.win.4.0_installer_41720.103-16-22_11_46_50\Snapdragon_SD_LLVM_ARM_WIN_4_0_Installer_41720_1\Snapdragon-llvm-4.0.17-windows64\armv7m-none-eabi\libc\lib/libc.a(strtod.o)	#SHT_PROGBITS,SHF_ALLOC|SHF_EXECINSTR,2
	0x43037206		$t
	0x43037207		strtof
	0x43037207		strtof_l
	0x43037207		__strtof_l
.text.strtox	0x43037214	0x52	C:\Users\2166772\Downloads\snapdragon_sd_llvm_arm.win.4.0_installer_41720.103-16-22_11_46_50\Snapdragon_SD_LLVM_ARM_WIN_4_0_Installer_41720_1\Snapdragon-llvm-4.0.17-windows64\armv7m-none-eabi\libc\lib/libc.a(strtod.o)	#SHT_PROGBITS,SHF_ALLOC|SHF_EXECINSTR,2
	0x43037214		$t
	0x43037215		strtox
.text.strtod	0x43037266	0x6	C:\Users\2166772\Downloads\snapdragon_sd_llvm_arm.win.4.0_installer_41720.103-16-22_11_46_50\Snapdragon_SD_LLVM_ARM_WIN_4_0_Installer_41720_1\Snapdragon-llvm-4.0.17-windows64\armv7m-none-eabi\libc\lib/libc.a(strtod.o)	#SHT_PROGBITS,SHF_ALLOC|SHF_EXECINSTR,2
	0x43037266		$t
	0x43037267		strtod
	0x43037267		strtod_l
	0x43037267		__strtod_l
.text.strtold	0x4303726c	0x6	C:\Users\2166772\Downloads\snapdragon_sd_llvm_arm.win.4.0_installer_41720.103-16-22_11_46_50\Snapdragon_SD_LLVM_ARM_WIN_4_0_Installer_41720_1\Snapdragon-llvm-4.0.17-windows64\armv7m-none-eabi\libc\lib/libc.a(strtod.o)	#SHT_PROGBITS,SHF_ALLOC|SHF_EXECINSTR,2
	0x4303726c		$t
	0x4303726d		strtold
	0x4303726d		strtold_l
	0x4303726d		__strtold_l
.text.strtoull	0x43037272	0x12	C:\Users\2166772\Downloads\snapdragon_sd_llvm_arm.win.4.0_installer_41720.103-16-22_11_46_50\Snapdragon_SD_LLVM_ARM_WIN_4_0_Installer_41720_1\Snapdragon-llvm-4.0.17-windows64\armv7m-none-eabi\libc\lib/libc.a(strtol.o)	#SHT_PROGBITS,SHF_ALLOC|SHF_EXECINSTR,2
	0x43037272		$t
	0x43037273		strtoull
	0x43037273		__strtoull_internal
.text.strtox	0x43037284	0x5c	C:\Users\2166772\Downloads\snapdragon_sd_llvm_arm.win.4.0_installer_41720.103-16-22_11_46_50\Snapdragon_SD_LLVM_ARM_WIN_4_0_Installer_41720_1\Snapdragon-llvm-4.0.17-windows64\armv7m-none-eabi\libc\lib/libc.a(strtol.o)	#SHT_PROGBITS,SHF_ALLOC|SHF_EXECINSTR,4
	0x43037284		$t
	0x43037285		strtox
	0x430372dc		$d
.text.strtoll	0x430372e0	0x14	C:\Users\2166772\Downloads\snapdragon_sd_llvm_arm.win.4.0_installer_41720.103-16-22_11_46_50\Snapdragon_SD_LLVM_ARM_WIN_4_0_Installer_41720_1\Snapdragon-llvm-4.0.17-windows64\armv7m-none-eabi\libc\lib/libc.a(strtol.o)	#SHT_PROGBITS,SHF_ALLOC|SHF_EXECINSTR,2
	0x430372e0		$t
	0x430372e1		strtoll
	0x430372e1		__strtoll_internal
.text.strtoul	0x430372f4	0x14	C:\Users\2166772\Downloads\snapdragon_sd_llvm_arm.win.4.0_installer_41720.103-16-22_11_46_50\Snapdragon_SD_LLVM_ARM_WIN_4_0_Installer_41720_1\Snapdragon-llvm-4.0.17-windows64\armv7m-none-eabi\libc\lib/libc.a(strtol.o)	#SHT_PROGBITS,SHF_ALLOC|SHF_EXECINSTR,2
	0x430372f4		$t
	0x430372f5		strtoul
	0x430372f5		__strtoul_internal
.text.strtol	0x43037308	0x14	C:\Users\2166772\Downloads\snapdragon_sd_llvm_arm.win.4.0_installer_41720.103-16-22_11_46_50\Snapdragon_SD_LLVM_ARM_WIN_4_0_Installer_41720_1\Snapdragon-llvm-4.0.17-windows64\armv7m-none-eabi\libc\lib/libc.a(strtol.o)	#SHT_PROGBITS,SHF_ALLOC|SHF_EXECINSTR,2
	0x43037308		$t
	0x43037309		strtol
	0x43037309		__strtol_internal
.text.strtoimax	0x4303731c	0x4	C:\Users\2166772\Downloads\snapdragon_sd_llvm_arm.win.4.0_installer_41720.103-16-22_11_46_50\Snapdragon_SD_LLVM_ARM_WIN_4_0_Installer_41720_1\Snapdragon-llvm-4.0.17-windows64\armv7m-none-eabi\libc\lib/libc.a(strtol.o)	#SHT_PROGBITS,SHF_ALLOC|SHF_EXECINSTR,2
	0x4303731c		$t
	0x4303731d		strtoimax
	0x4303731d		__strtoimax_internal
.text.strtoumax	0x43037320	0x4	C:\Users\2166772\Downloads\snapdragon_sd_llvm_arm.win.4.0_installer_41720.103-16-22_11_46_50\Snapdragon_SD_LLVM_ARM_WIN_4_0_Installer_41720_1\Snapdragon-llvm-4.0.17-windows64\armv7m-none-eabi\libc\lib/libc.a(strtol.o)	#SHT_PROGBITS,SHF_ALLOC|SHF_EXECINSTR,2
	0x43037320		$t
	0x43037321		strtoumax
	0x43037321		__strtoumax_internal
.text.__aeabi_memclr	0x43037324	0x8	C:\Users\2166772\Downloads\snapdragon_sd_llvm_arm.win.4.0_installer_41720.103-16-22_11_46_50\Snapdragon_SD_LLVM_ARM_WIN_4_0_Installer_41720_1\Snapdragon-llvm-4.0.17-windows64\armv7m-none-eabi\libc\lib/libc.a(__aeabi_memclr.o)	#SHT_PROGBITS,SHF_ALLOC|SHF_EXECINSTR,2
	0x43037324		$t
	0x43037325		__aeabi_memclr
	0x43037325		__aeabi_memclr4
	0x43037325		__aeabi_memclr8
.text.__aeabi_memcpy	0x4303732c	0x4	C:\Users\2166772\Downloads\snapdragon_sd_llvm_arm.win.4.0_installer_41720.103-16-22_11_46_50\Snapdragon_SD_LLVM_ARM_WIN_4_0_Installer_41720_1\Snapdragon-llvm-4.0.17-windows64\armv7m-none-eabi\libc\lib/libc.a(__aeabi_memcpy.o)	#SHT_PROGBITS,SHF_ALLOC|SHF_EXECINSTR,2
	0x4303732c		$t
	0x4303732d		__aeabi_memcpy
	0x4303732d		__aeabi_memcpy4
	0x4303732d		__aeabi_memcpy8
.text	0x43037330	0x2ee	C:\Users\2166772\Downloads\snapdragon_sd_llvm_arm.win.4.0_installer_41720.103-16-22_11_46_50\Snapdragon_SD_LLVM_ARM_WIN_4_0_Installer_41720_1\Snapdragon-llvm-4.0.17-windows64\armv7m-none-eabi\libc\lib/libc.a(memcpy_le.o)	#SHT_PROGBITS,SHF_ALLOC|SHF_EXECINSTR,2
	0x43037330		$t
	0x43037331		memcpy
	0x43037370		src_aligned
	0x430373be		congruent_aligned32
	0x430373be		cached_aligned32
	0x430373d4		less_than_32_left
	0x43037422		non_congruent
	0x4303749e		loop16
	0x430374fa		loop8
	0x43037556		loop24
	0x430375ae		less_than_thirtytwo
	0x430375d8		partial_word_tail
	0x430375f4		copy_last_3_and_return
PADDING_ALIGNMENT	0x4303761e	0x2	0x0
.text	0x43037620	0x68	C:\Users\2166772\Downloads\snapdragon_sd_llvm_arm.win.4.0_installer_41720.103-16-22_11_46_50\Snapdragon_SD_LLVM_ARM_WIN_4_0_Installer_41720_1\Snapdragon-llvm-4.0.17-windows64\armv7m-none-eabi\libc\lib/libc.a(memset_nofp_armv7.o)	#SHT_PROGBITS,SHF_ALLOC|SHF_EXECINSTR,4
	0x43037620		$t
	0x43037621		memset
.text.memchr	0x43037688	0x5c	C:\Users\2166772\Downloads\snapdragon_sd_llvm_arm.win.4.0_installer_41720.103-16-22_11_46_50\Snapdragon_SD_LLVM_ARM_WIN_4_0_Installer_41720_1\Snapdragon-llvm-4.0.17-windows64\armv7m-none-eabi\libc\lib/libc.a(memchr.o)	#SHT_PROGBITS,SHF_ALLOC|SHF_EXECINSTR,2
	0x43037688		$t
	0x43037689		memchr
.text.strcasecmp	0x430376e4	0x3a	C:\Users\2166772\Downloads\snapdragon_sd_llvm_arm.win.4.0_installer_41720.103-16-22_11_46_50\Snapdragon_SD_LLVM_ARM_WIN_4_0_Installer_41720_1\Snapdragon-llvm-4.0.17-windows64\armv7m-none-eabi\libc\lib/libc.a(strcasecmp.o)	#SHT_PROGBITS,SHF_ALLOC|SHF_EXECINSTR,2
	0x430376e4		$t
	0x430376e5		strcasecmp
.text.__strcasecmp_l	0x4303771e	0x4	C:\Users\2166772\Downloads\snapdragon_sd_llvm_arm.win.4.0_installer_41720.103-16-22_11_46_50\Snapdragon_SD_LLVM_ARM_WIN_4_0_Installer_41720_1\Snapdragon-llvm-4.0.17-windows64\armv7m-none-eabi\libc\lib/libc.a(strcasecmp.o)	#SHT_PROGBITS,SHF_ALLOC|SHF_EXECINSTR,2
	0x4303771e		$t
	0x4303771f		__strcasecmp_l
	0x4303771f		strcasecmp_l
.text.strchr	0x43037722	0x14	C:\Users\2166772\Downloads\snapdragon_sd_llvm_arm.win.4.0_installer_41720.103-16-22_11_46_50\Snapdragon_SD_LLVM_ARM_WIN_4_0_Installer_41720_1\Snapdragon-llvm-4.0.17-windows64\armv7m-none-eabi\libc\lib/libc.a(strchr.o)	#SHT_PROGBITS,SHF_ALLOC|SHF_EXECINSTR,2
	0x43037722		$t
	0x43037723		strchr
.text.__strchrnul	0x43037736	0x5c	C:\Users\2166772\Downloads\snapdragon_sd_llvm_arm.win.4.0_installer_41720.103-16-22_11_46_50\Snapdragon_SD_LLVM_ARM_WIN_4_0_Installer_41720_1\Snapdragon-llvm-4.0.17-windows64\armv7m-none-eabi\libc\lib/libc.a(strchrnul.o)	#SHT_PROGBITS,SHF_ALLOC|SHF_EXECINSTR,2
	0x43037736		$t
	0x43037737		__strchrnul
	0x43037737		strchrnul
.text.strlcpy	0x43037792	0x76	C:\Users\2166772\Downloads\snapdragon_sd_llvm_arm.win.4.0_installer_41720.103-16-22_11_46_50\Snapdragon_SD_LLVM_ARM_WIN_4_0_Installer_41720_1\Snapdragon-llvm-4.0.17-windows64\armv7m-none-eabi\libc\lib/libc.a(strlcpy.o)	#SHT_PROGBITS,SHF_ALLOC|SHF_EXECINSTR,2
	0x43037792		$t
	0x43037793		strlcpy
.text.strlen	0x43037808	0x34	C:\Users\2166772\Downloads\snapdragon_sd_llvm_arm.win.4.0_installer_41720.103-16-22_11_46_50\Snapdragon_SD_LLVM_ARM_WIN_4_0_Installer_41720_1\Snapdragon-llvm-4.0.17-windows64\armv7m-none-eabi\libc\lib/libc.a(strlen.o)	#SHT_PROGBITS,SHF_ALLOC|SHF_EXECINSTR,2
	0x43037808		$t
	0x43037809		strlen
.text.strncmp	0x4303783c	0x28	C:\Users\2166772\Downloads\snapdragon_sd_llvm_arm.win.4.0_installer_41720.103-16-22_11_46_50\Snapdragon_SD_LLVM_ARM_WIN_4_0_Installer_41720_1\Snapdragon-llvm-4.0.17-windows64\armv7m-none-eabi\libc\lib/libc.a(strncmp.o)	#SHT_PROGBITS,SHF_ALLOC|SHF_EXECINSTR,2
	0x4303783c		$t
	0x4303783d		strncmp
.text.strspn	0x43037864	0x74	C:\Users\2166772\Downloads\snapdragon_sd_llvm_arm.win.4.0_installer_41720.103-16-22_11_46_50\Snapdragon_SD_LLVM_ARM_WIN_4_0_Installer_41720_1\Snapdragon-llvm-4.0.17-windows64\armv7m-none-eabi\libc\lib/libc.a(strspn.o)	#SHT_PROGBITS,SHF_ALLOC|SHF_EXECINSTR,2
	0x43037864		$t
	0x43037865		strspn
.text.strstr	0x430378d8	0x2d0	C:\Users\2166772\Downloads\snapdragon_sd_llvm_arm.win.4.0_installer_41720.103-16-22_11_46_50\Snapdragon_SD_LLVM_ARM_WIN_4_0_Installer_41720_1\Snapdragon-llvm-4.0.17-windows64\armv7m-none-eabi\libc\lib/libc.a(strstr.o)	#SHT_PROGBITS,SHF_ALLOC|SHF_EXECINSTR,2
	0x430378d8		$t
	0x430378d9		strstr
.text.__wait	0x43037ba8	0x64	C:\Users\2166772\Downloads\snapdragon_sd_llvm_arm.win.4.0_installer_41720.103-16-22_11_46_50\Snapdragon_SD_LLVM_ARM_WIN_4_0_Installer_41720_1\Snapdragon-llvm-4.0.17-windows64\armv7m-none-eabi\libc\lib/libc.a(__wait.o)	#SHT_PROGBITS,SHF_ALLOC|SHF_EXECINSTR,2
	0x43037ba8		$t
	0x43037ba9		__wait
.text.__syscall4	0x43037c0c	0xa	C:\Users\2166772\Downloads\snapdragon_sd_llvm_arm.win.4.0_installer_41720.103-16-22_11_46_50\Snapdragon_SD_LLVM_ARM_WIN_4_0_Installer_41720_1\Snapdragon-llvm-4.0.17-windows64\armv7m-none-eabi\libc\lib/libc.a(__wait.o)	#SHT_PROGBITS,SHF_ALLOC|SHF_EXECINSTR,2
	0x43037c0c		$t
	0x43037c0d		__syscall4
.text.a_fetch_add	0x43037c16	0x18	C:\Users\2166772\Downloads\snapdragon_sd_llvm_arm.win.4.0_installer_41720.103-16-22_11_46_50\Snapdragon_SD_LLVM_ARM_WIN_4_0_Installer_41720_1\Snapdragon-llvm-4.0.17-windows64\armv7m-none-eabi\libc\lib/libc.a(__wait.o)	#SHT_PROGBITS,SHF_ALLOC|SHF_EXECINSTR,2
	0x43037c16		$t
	0x43037c17		a_fetch_add
.text.tolower	0x43037c2e	0xe	C:\Users\2166772\Downloads\snapdragon_sd_llvm_arm.win.4.0_installer_41720.103-16-22_11_46_50\Snapdragon_SD_LLVM_ARM_WIN_4_0_Installer_41720_1\Snapdragon-llvm-4.0.17-windows64\armv7m-none-eabi\libc\lib/libc.a(tolower.o)	#SHT_PROGBITS,SHF_ALLOC|SHF_EXECINSTR,2
	0x43037c2e		$t
	0x43037c2f		tolower
.text.__tolower_l	0x43037c3c	0x4	C:\Users\2166772\Downloads\snapdragon_sd_llvm_arm.win.4.0_installer_41720.103-16-22_11_46_50\Snapdragon_SD_LLVM_ARM_WIN_4_0_Installer_41720_1\Snapdragon-llvm-4.0.17-windows64\armv7m-none-eabi\libc\lib/libc.a(tolower.o)	#SHT_PROGBITS,SHF_ALLOC|SHF_EXECINSTR,2
	0x43037c3c		$t
	0x43037c3d		__tolower_l
	0x43037c3d		tolower_l
.text.__errno_location	0x43037c40	0x8	C:\Users\2166772\Downloads\snapdragon_sd_llvm_arm.win.4.0_installer_41720.103-16-22_11_46_50\Snapdragon_SD_LLVM_ARM_WIN_4_0_Installer_41720_1\Snapdragon-llvm-4.0.17-windows64\armv7m-none-eabi\libc\lib/libc.a(__errno_location.o)	#SHT_PROGBITS,SHF_ALLOC|SHF_EXECINSTR,2
	0x43037c40		$t
	0x43037c41		__errno_location
.text.__strerror_l	0x43037c48	0x3c	C:\Users\2166772\Downloads\snapdragon_sd_llvm_arm.win.4.0_installer_41720.103-16-22_11_46_50\Snapdragon_SD_LLVM_ARM_WIN_4_0_Installer_41720_1\Snapdragon-llvm-4.0.17-windows64\armv7m-none-eabi\libc\lib/libc.a(strerror.o)	#SHT_PROGBITS,SHF_ALLOC|SHF_EXECINSTR,4
	0x43037c48		$t
	0x43037c49		__strerror_l
	0x43037c49		strerror_l
	0x43037c7c		$d
.text.strerror	0x43037c84	0xc	C:\Users\2166772\Downloads\snapdragon_sd_llvm_arm.win.4.0_installer_41720.103-16-22_11_46_50\Snapdragon_SD_LLVM_ARM_WIN_4_0_Installer_41720_1\Snapdragon-llvm-4.0.17-windows64\armv7m-none-eabi\libc\lib/libc.a(strerror.o)	#SHT_PROGBITS,SHF_ALLOC|SHF_EXECINSTR,2
	0x43037c84		$t
	0x43037c85		strerror
.text.__floatscan	0x43037c90	0xe68	C:\Users\2166772\Downloads\snapdragon_sd_llvm_arm.win.4.0_installer_41720.103-16-22_11_46_50\Snapdragon_SD_LLVM_ARM_WIN_4_0_Installer_41720_1\Snapdragon-llvm-4.0.17-windows64\armv7m-none-eabi\libc\lib/libc.a(floatscan.o)	#SHT_PROGBITS,SHF_ALLOC|SHF_EXECINSTR,4
	0x43037c90		$t
	0x43037c91		__floatscan
	0x43038a38		$d
	0x43038a3c		$t
	0x43038ab4		$d
.text.scanexp	0x43038af8	0x130	C:\Users\2166772\Downloads\snapdragon_sd_llvm_arm.win.4.0_installer_41720.103-16-22_11_46_50\Snapdragon_SD_LLVM_ARM_WIN_4_0_Installer_41720_1\Snapdragon-llvm-4.0.17-windows64\armv7m-none-eabi\libc\lib/libc.a(floatscan.o)	#SHT_PROGBITS,SHF_ALLOC|SHF_EXECINSTR,4
	0x43038af8		$t
	0x43038af9		scanexp
	0x43038c1c		$d
.text.__intscan	0x43038c28	0x418	C:\Users\2166772\Downloads\snapdragon_sd_llvm_arm.win.4.0_installer_41720.103-16-22_11_46_50\Snapdragon_SD_LLVM_ARM_WIN_4_0_Installer_41720_1\Snapdragon-llvm-4.0.17-windows64\armv7m-none-eabi\libc\lib/libc.a(intscan.o)	#SHT_PROGBITS,SHF_ALLOC|SHF_EXECINSTR,4
	0x43038c28		$t
	0x43038c29		__intscan
	0x4303902c		$d
.text.__shlim	0x43039040	0x2a	C:\Users\2166772\Downloads\snapdragon_sd_llvm_arm.win.4.0_installer_41720.103-16-22_11_46_50\Snapdragon_SD_LLVM_ARM_WIN_4_0_Installer_41720_1\Snapdragon-llvm-4.0.17-windows64\armv7m-none-eabi\libc\lib/libc.a(shgetc.o)	#SHT_PROGBITS,SHF_ALLOC|SHF_EXECINSTR,2
	0x43039040		$t
	0x43039041		__shlim
.text.__shgetc	0x4303906a	0x8c	C:\Users\2166772\Downloads\snapdragon_sd_llvm_arm.win.4.0_installer_41720.103-16-22_11_46_50\Snapdragon_SD_LLVM_ARM_WIN_4_0_Installer_41720_1\Snapdragon-llvm-4.0.17-windows64\armv7m-none-eabi\libc\lib/libc.a(shgetc.o)	#SHT_PROGBITS,SHF_ALLOC|SHF_EXECINSTR,2
	0x4303906a		$t
	0x4303906b		__shgetc
PADDING_ALIGNMENT	0x430390f6	0x2	0x0
.text.__syscall_ret	0x430390f8	0x20	C:\Users\2166772\Downloads\snapdragon_sd_llvm_arm.win.4.0_installer_41720.103-16-22_11_46_50\Snapdragon_SD_LLVM_ARM_WIN_4_0_Installer_41720_1\Snapdragon-llvm-4.0.17-windows64\armv7m-none-eabi\libc\lib/libc.a(syscall_ret.o)	#SHT_PROGBITS,SHF_ALLOC|SHF_EXECINSTR,4
	0x430390f8		$t
	0x430390f9		__syscall_ret
	0x43039114		$d
.text.dummy	0x43039118	0x2	C:\Users\2166772\Downloads\snapdragon_sd_llvm_arm.win.4.0_installer_41720.103-16-22_11_46_50\Snapdragon_SD_LLVM_ARM_WIN_4_0_Installer_41720_1\Snapdragon-llvm-4.0.17-windows64\armv7m-none-eabi\libc\lib/libc.a(__lctrans.o)	#SHT_PROGBITS,SHF_ALLOC|SHF_EXECINSTR,2
	0x43039118		$t
	0x43039119		dummy
	0x43039119		__lctrans_impl
.text.__lctrans	0x4303911a	0x4	C:\Users\2166772\Downloads\snapdragon_sd_llvm_arm.win.4.0_installer_41720.103-16-22_11_46_50\Snapdragon_SD_LLVM_ARM_WIN_4_0_Installer_41720_1\Snapdragon-llvm-4.0.17-windows64\armv7m-none-eabi\libc\lib/libc.a(__lctrans.o)	#SHT_PROGBITS,SHF_ALLOC|SHF_EXECINSTR,2
	0x4303911a		$t
	0x4303911b		__lctrans
.text.__lctrans_cur	0x4303911e	0xe	C:\Users\2166772\Downloads\snapdragon_sd_llvm_arm.win.4.0_installer_41720.103-16-22_11_46_50\Snapdragon_SD_LLVM_ARM_WIN_4_0_Installer_41720_1\Snapdragon-llvm-4.0.17-windows64\armv7m-none-eabi\libc\lib/libc.a(__lctrans.o)	#SHT_PROGBITS,SHF_ALLOC|SHF_EXECINSTR,2
	0x4303911e		$t
	0x4303911f		__lctrans_cur
.text.__expand_heap	0x4303912c	0x50	C:\Users\2166772\Downloads\snapdragon_sd_llvm_arm.win.4.0_installer_41720.103-16-22_11_46_50\Snapdragon_SD_LLVM_ARM_WIN_4_0_Installer_41720_1\Snapdragon-llvm-4.0.17-windows64\armv7m-none-eabi\libc\lib/libc.a(expand_heap.o)	#SHT_PROGBITS,SHF_ALLOC|SHF_EXECINSTR,4
	0x4303912c		$t
	0x4303912d		__expand_heap
	0x43039170		$d
.text.fabs	0x4303917c	0x6	C:\Users\2166772\Downloads\snapdragon_sd_llvm_arm.win.4.0_installer_41720.103-16-22_11_46_50\Snapdragon_SD_LLVM_ARM_WIN_4_0_Installer_41720_1\Snapdragon-llvm-4.0.17-windows64\armv7m-none-eabi\libc\lib/libc.a(fabs.o)	#SHT_PROGBITS,SHF_ALLOC|SHF_EXECINSTR,2
	0x4303917c		$t
	0x4303917d		fabs
PADDING_ALIGNMENT	0x43039182	0x2	0x0
.text.sqrt	0x43039184	0x164	C:\Users\2166772\Downloads\snapdragon_sd_llvm_arm.win.4.0_installer_41720.103-16-22_11_46_50\Snapdragon_SD_LLVM_ARM_WIN_4_0_Installer_41720_1\Snapdragon-llvm-4.0.17-windows64\armv7m-none-eabi\libc\lib/libc.a(sqrt.o)	#SHT_PROGBITS,SHF_ALLOC|SHF_EXECINSTR,4
	0x43039184		$t
	0x43039185		sqrt
	0x430392dc		$d
.text.copysignl	0x430392e8	0x4	C:\Users\2166772\Downloads\snapdragon_sd_llvm_arm.win.4.0_installer_41720.103-16-22_11_46_50\Snapdragon_SD_LLVM_ARM_WIN_4_0_Installer_41720_1\Snapdragon-llvm-4.0.17-windows64\armv7m-none-eabi\libc\lib/libc.a(copysignl.o)	#SHT_PROGBITS,SHF_ALLOC|SHF_EXECINSTR,2
	0x430392e8		$t
	0x430392e9		copysignl
.text.fmodl	0x430392ec	0x4	C:\Users\2166772\Downloads\snapdragon_sd_llvm_arm.win.4.0_installer_41720.103-16-22_11_46_50\Snapdragon_SD_LLVM_ARM_WIN_4_0_Installer_41720_1\Snapdragon-llvm-4.0.17-windows64\armv7m-none-eabi\libc\lib/libc.a(fmodl.o)	#SHT_PROGBITS,SHF_ALLOC|SHF_EXECINSTR,2
	0x430392ec		$t
	0x430392ed		fmodl
.text.scalbnl	0x430392f0	0x4	C:\Users\2166772\Downloads\snapdragon_sd_llvm_arm.win.4.0_installer_41720.103-16-22_11_46_50\Snapdragon_SD_LLVM_ARM_WIN_4_0_Installer_41720_1\Snapdragon-llvm-4.0.17-windows64\armv7m-none-eabi\libc\lib/libc.a(scalbnl.o)	#SHT_PROGBITS,SHF_ALLOC|SHF_EXECINSTR,2
	0x430392f0		$t
	0x430392f1		scalbnl
.text.wctomb	0x430392f4	0xc	C:\Users\2166772\Downloads\snapdragon_sd_llvm_arm.win.4.0_installer_41720.103-16-22_11_46_50\Snapdragon_SD_LLVM_ARM_WIN_4_0_Installer_41720_1\Snapdragon-llvm-4.0.17-windows64\armv7m-none-eabi\libc\lib/libc.a(wctomb.o)	#SHT_PROGBITS,SHF_ALLOC|SHF_EXECINSTR,2
	0x430392f4		$t
	0x430392f5		wctomb
.text.__towrite	0x43039300	0x38	C:\Users\2166772\Downloads\snapdragon_sd_llvm_arm.win.4.0_installer_41720.103-16-22_11_46_50\Snapdragon_SD_LLVM_ARM_WIN_4_0_Installer_41720_1\Snapdragon-llvm-4.0.17-windows64\armv7m-none-eabi\libc\lib/libc.a(__towrite.o)	#SHT_PROGBITS,SHF_ALLOC|SHF_EXECINSTR,2
	0x43039300		$t
	0x43039301		__towrite
.text.__towrite_needs_stdio_exit	0x43039338	0x4	C:\Users\2166772\Downloads\snapdragon_sd_llvm_arm.win.4.0_installer_41720.103-16-22_11_46_50\Snapdragon_SD_LLVM_ARM_WIN_4_0_Installer_41720_1\Snapdragon-llvm-4.0.17-windows64\armv7m-none-eabi\libc\lib/libc.a(__towrite.o)	#SHT_PROGBITS,SHF_ALLOC|SHF_EXECINSTR,2
	0x43039338		$t
	0x43039339		__towrite_needs_stdio_exit
.text.__uflow	0x4303933c	0x2a	C:\Users\2166772\Downloads\snapdragon_sd_llvm_arm.win.4.0_installer_41720.103-16-22_11_46_50\Snapdragon_SD_LLVM_ARM_WIN_4_0_Installer_41720_1\Snapdragon-llvm-4.0.17-windows64\armv7m-none-eabi\libc\lib/libc.a(__uflow.o)	#SHT_PROGBITS,SHF_ALLOC|SHF_EXECINSTR,2
	0x4303933c		$t
	0x4303933d		__uflow
.text.__lockfile	0x43039366	0x4	C:\Users\2166772\Downloads\snapdragon_sd_llvm_arm.win.4.0_installer_41720.103-16-22_11_46_50\Snapdragon_SD_LLVM_ARM_WIN_4_0_Installer_41720_1\Snapdragon-llvm-4.0.17-windows64\armv7m-none-eabi\libc\lib/libc.a(__lockfile.o)	#SHT_PROGBITS,SHF_ALLOC|SHF_EXECINSTR,2
	0x43039366		$t
	0x43039367		__lockfile
.text.__unlockfile	0x4303936a	0x2	C:\Users\2166772\Downloads\snapdragon_sd_llvm_arm.win.4.0_installer_41720.103-16-22_11_46_50\Snapdragon_SD_LLVM_ARM_WIN_4_0_Installer_41720_1\Snapdragon-llvm-4.0.17-windows64\armv7m-none-eabi\libc\lib/libc.a(__lockfile.o)	#SHT_PROGBITS,SHF_ALLOC|SHF_EXECINSTR,2
	0x4303936a		$t
	0x4303936b		__unlockfile
.text.memcmp	0x4303936c	0x1c	C:\Users\2166772\Downloads\snapdragon_sd_llvm_arm.win.4.0_installer_41720.103-16-22_11_46_50\Snapdragon_SD_LLVM_ARM_WIN_4_0_Installer_41720_1\Snapdragon-llvm-4.0.17-windows64\armv7m-none-eabi\libc\lib/libc.a(memcmp.o)	#SHT_PROGBITS,SHF_ALLOC|SHF_EXECINSTR,2
	0x4303936c		$t
	0x4303936d		memcmp
.text.__brk	0x43039388	0x78	C:\Users\2166772\Downloads\snapdragon_sd_llvm_arm.win.4.0_installer_41720.103-16-22_11_46_50\Snapdragon_SD_LLVM_ARM_WIN_4_0_Installer_41720_1\Snapdragon-llvm-4.0.17-windows64\armv7m-none-eabi\libc\lib/libc.a(__brk.o)	#SHT_PROGBITS,SHF_ALLOC|SHF_EXECINSTR,4
	0x43039388		$t
	0x43039389		__brk
	0x430393e8		$d
.text.copysign	0x43039400	0x8	C:\Users\2166772\Downloads\snapdragon_sd_llvm_arm.win.4.0_installer_41720.103-16-22_11_46_50\Snapdragon_SD_LLVM_ARM_WIN_4_0_Installer_41720_1\Snapdragon-llvm-4.0.17-windows64\armv7m-none-eabi\libc\lib/libc.a(copysign.o)	#SHT_PROGBITS,SHF_ALLOC|SHF_EXECINSTR,2
	0x43039400		$t
	0x43039401		copysign
.text.fmod	0x43039408	0x1f4	C:\Users\2166772\Downloads\snapdragon_sd_llvm_arm.win.4.0_installer_41720.103-16-22_11_46_50\Snapdragon_SD_LLVM_ARM_WIN_4_0_Installer_41720_1\Snapdragon-llvm-4.0.17-windows64\armv7m-none-eabi\libc\lib/libc.a(fmod.o)	#SHT_PROGBITS,SHF_ALLOC|SHF_EXECINSTR,4
	0x43039408		$t
	0x43039409		fmod
	0x430395f8		$d
.text.wcrtomb	0x430395fc	0xb0	C:\Users\2166772\Downloads\snapdragon_sd_llvm_arm.win.4.0_installer_41720.103-16-22_11_46_50\Snapdragon_SD_LLVM_ARM_WIN_4_0_Installer_41720_1\Snapdragon-llvm-4.0.17-windows64\armv7m-none-eabi\libc\lib/libc.a(wcrtomb.o)	#SHT_PROGBITS,SHF_ALLOC|SHF_EXECINSTR,2
	0x430395fc		$t
	0x430395fd		wcrtomb
.text.__stdio_exit	0x430396ac	0x30	C:\Users\2166772\Downloads\snapdragon_sd_llvm_arm.win.4.0_installer_41720.103-16-22_11_46_50\Snapdragon_SD_LLVM_ARM_WIN_4_0_Installer_41720_1\Snapdragon-llvm-4.0.17-windows64\armv7m-none-eabi\libc\lib/libc.a(__stdio_exit.o)	#SHT_PROGBITS,SHF_ALLOC|SHF_EXECINSTR,4
	0x430396ac		$t
	0x430396ad		__stdio_exit
	0x430396ad		__stdio_exit_needed
	0x430396d4		$d
.text.close_file	0x430396dc	0x3c	C:\Users\2166772\Downloads\snapdragon_sd_llvm_arm.win.4.0_installer_41720.103-16-22_11_46_50\Snapdragon_SD_LLVM_ARM_WIN_4_0_Installer_41720_1\Snapdragon-llvm-4.0.17-windows64\armv7m-none-eabi\libc\lib/libc.a(__stdio_exit.o)	#SHT_PROGBITS,SHF_ALLOC|SHF_EXECINSTR,2
	0x430396dc		$t
	0x430396dd		close_file
.text.__toread	0x43039718	0x50	C:\Users\2166772\Downloads\snapdragon_sd_llvm_arm.win.4.0_installer_41720.103-16-22_11_46_50\Snapdragon_SD_LLVM_ARM_WIN_4_0_Installer_41720_1\Snapdragon-llvm-4.0.17-windows64\armv7m-none-eabi\libc\lib/libc.a(__toread.o)	#SHT_PROGBITS,SHF_ALLOC|SHF_EXECINSTR,2
	0x43039718		$t
	0x43039719		__toread
.text.__toread_needs_stdio_exit	0x43039768	0x4	C:\Users\2166772\Downloads\snapdragon_sd_llvm_arm.win.4.0_installer_41720.103-16-22_11_46_50\Snapdragon_SD_LLVM_ARM_WIN_4_0_Installer_41720_1\Snapdragon-llvm-4.0.17-windows64\armv7m-none-eabi\libc\lib/libc.a(__toread.o)	#SHT_PROGBITS,SHF_ALLOC|SHF_EXECINSTR,2
	0x43039768		$t
	0x43039769		__toread_needs_stdio_exit
.text.__ofl_lock	0x4303976c	0x8	C:\Users\2166772\Downloads\snapdragon_sd_llvm_arm.win.4.0_installer_41720.103-16-22_11_46_50\Snapdragon_SD_LLVM_ARM_WIN_4_0_Installer_41720_1\Snapdragon-llvm-4.0.17-windows64\armv7m-none-eabi\libc\lib/libc.a(ofl.o)	#SHT_PROGBITS,SHF_ALLOC|SHF_EXECINSTR,4
	0x4303976c		$t
	0x4303976d		__ofl_lock
	0x43039770		$d
.text.__ofl_unlock	0x43039774	0x2	C:\Users\2166772\Downloads\snapdragon_sd_llvm_arm.win.4.0_installer_41720.103-16-22_11_46_50\Snapdragon_SD_LLVM_ARM_WIN_4_0_Installer_41720_1\Snapdragon-llvm-4.0.17-windows64\armv7m-none-eabi\libc\lib/libc.a(ofl.o)	#SHT_PROGBITS,SHF_ALLOC|SHF_EXECINSTR,2
	0x43039774		$t
	0x43039775		__ofl_unlock
PADDING_ALIGNMENT	0x43039776	0x2	0x0
.text	0x43039778	0x62	C:\Users\2166772\Downloads\snapdragon_sd_llvm_arm.win.4.0_installer_41720.103-16-22_11_46_50\Snapdragon_SD_LLVM_ARM_WIN_4_0_Installer_41720_1\Snapdragon-llvm-4.0.17-windows64\lib\clang\4.0.17\lib\baremetal/libclang_rt.builtins-armv7m.a(aeabi_dcmp.S.obj)	#SHT_PROGBITS,SHF_ALLOC|SHF_EXECINSTR,4
	0x43039778		$t.0
	0x43039779		__aeabi_dcmpeq
	0x4303978d		__aeabi_dcmplt
	0x430397a1		__aeabi_dcmple
	0x430397b5		__aeabi_dcmpge
	0x430397c9		__aeabi_dcmpgt
PADDING_ALIGNMENT	0x430397da	0x2	0x0
.text	0x430397dc	0x62	C:\Users\2166772\Downloads\snapdragon_sd_llvm_arm.win.4.0_installer_41720.103-16-22_11_46_50\Snapdragon_SD_LLVM_ARM_WIN_4_0_Installer_41720_1\Snapdragon-llvm-4.0.17-windows64\lib\clang\4.0.17\lib\baremetal/libclang_rt.builtins-armv7m.a(aeabi_fcmp.S.obj)	#SHT_PROGBITS,SHF_ALLOC|SHF_EXECINSTR,4
	0x430397dc		$t.0
	0x430397dd		__aeabi_fcmpeq
	0x430397f1		__aeabi_fcmplt
	0x43039805		__aeabi_fcmple
	0x43039819		__aeabi_fcmpge
	0x4303982d		__aeabi_fcmpgt
PADDING_ALIGNMENT	0x4303983e	0x2	0x0
.text	0x43039840	0x14	C:\Users\2166772\Downloads\snapdragon_sd_llvm_arm.win.4.0_installer_41720.103-16-22_11_46_50\Snapdragon_SD_LLVM_ARM_WIN_4_0_Installer_41720_1\Snapdragon-llvm-4.0.17-windows64\lib\clang\4.0.17\lib\baremetal/libclang_rt.builtins-armv7m.a(aeabi_ldivmod.S.obj)	#SHT_PROGBITS,SHF_ALLOC|SHF_EXECINSTR,4
	0x43039840		$t.0
	0x43039841		__aeabi_ldivmod
.text	0x43039854	0x14	C:\Users\2166772\Downloads\snapdragon_sd_llvm_arm.win.4.0_installer_41720.103-16-22_11_46_50\Snapdragon_SD_LLVM_ARM_WIN_4_0_Installer_41720_1\Snapdragon-llvm-4.0.17-windows64\lib\clang\4.0.17\lib\baremetal/libclang_rt.builtins-armv7m.a(aeabi_uldivmod.S.obj)	#SHT_PROGBITS,SHF_ALLOC|SHF_EXECINSTR,4
	0x43039854		$t.0
	0x43039855		__aeabi_uldivmod
.text.__adddf3	0x43039868	0x340	C:\Users\2166772\Downloads\snapdragon_sd_llvm_arm.win.4.0_installer_41720.103-16-22_11_46_50\Snapdragon_SD_LLVM_ARM_WIN_4_0_Installer_41720_1\Snapdragon-llvm-4.0.17-windows64\lib\clang\4.0.17\lib\baremetal/libclang_rt.builtins-armv7m.a(adddf3.c.obj)	#SHT_PROGBITS,SHF_ALLOC|SHF_EXECINSTR,4
	0x43039868		$t.0
	0x43039869		__adddf3
	0x43039869		__aeabi_dadd
	0x43039b98		$d.1
.text.fromRep	0x43039ba8	0x2	C:\Users\2166772\Downloads\snapdragon_sd_llvm_arm.win.4.0_installer_41720.103-16-22_11_46_50\Snapdragon_SD_LLVM_ARM_WIN_4_0_Installer_41720_1\Snapdragon-llvm-4.0.17-windows64\lib\clang\4.0.17\lib\baremetal/libclang_rt.builtins-armv7m.a(adddf3.c.obj)	#SHT_PROGBITS,SHF_ALLOC|SHF_EXECINSTR,2
	0x43039ba8		$t.2
	0x43039ba9		fromRep
.text.normalize	0x43039baa	0x44	C:\Users\2166772\Downloads\snapdragon_sd_llvm_arm.win.4.0_installer_41720.103-16-22_11_46_50\Snapdragon_SD_LLVM_ARM_WIN_4_0_Installer_41720_1\Snapdragon-llvm-4.0.17-windows64\lib\clang\4.0.17\lib\baremetal/libclang_rt.builtins-armv7m.a(adddf3.c.obj)	#SHT_PROGBITS,SHF_ALLOC|SHF_EXECINSTR,2
	0x43039baa		$t.3
	0x43039bab		normalize
.text.rep_clz	0x43039bee	0x10	C:\Users\2166772\Downloads\snapdragon_sd_llvm_arm.win.4.0_installer_41720.103-16-22_11_46_50\Snapdragon_SD_LLVM_ARM_WIN_4_0_Installer_41720_1\Snapdragon-llvm-4.0.17-windows64\lib\clang\4.0.17\lib\baremetal/libclang_rt.builtins-armv7m.a(adddf3.c.obj)	#SHT_PROGBITS,SHF_ALLOC|SHF_EXECINSTR,2
	0x43039bee		$t.4
	0x43039bef		rep_clz
.text.__addsf3	0x43039c00	0x180	C:\Users\2166772\Downloads\snapdragon_sd_llvm_arm.win.4.0_installer_41720.103-16-22_11_46_50\Snapdragon_SD_LLVM_ARM_WIN_4_0_Installer_41720_1\Snapdragon-llvm-4.0.17-windows64\lib\clang\4.0.17\lib\baremetal/libclang_rt.builtins-armv7m.a(addsf3.c.obj)	#SHT_PROGBITS,SHF_ALLOC|SHF_EXECINSTR,4
	0x43039c00		$t.0
	0x43039c01		__addsf3
	0x43039c01		__aeabi_fadd
	0x43039d74		$d.1
.text.fromRep	0x43039d80	0x2	C:\Users\2166772\Downloads\snapdragon_sd_llvm_arm.win.4.0_installer_41720.103-16-22_11_46_50\Snapdragon_SD_LLVM_ARM_WIN_4_0_Installer_41720_1\Snapdragon-llvm-4.0.17-windows64\lib\clang\4.0.17\lib\baremetal/libclang_rt.builtins-armv7m.a(addsf3.c.obj)	#SHT_PROGBITS,SHF_ALLOC|SHF_EXECINSTR,2
	0x43039d80		$t.2
	0x43039d81		fromRep
.text.normalize	0x43039d82	0x14	C:\Users\2166772\Downloads\snapdragon_sd_llvm_arm.win.4.0_installer_41720.103-16-22_11_46_50\Snapdragon_SD_LLVM_ARM_WIN_4_0_Installer_41720_1\Snapdragon-llvm-4.0.17-windows64\lib\clang\4.0.17\lib\baremetal/libclang_rt.builtins-armv7m.a(addsf3.c.obj)	#SHT_PROGBITS,SHF_ALLOC|SHF_EXECINSTR,2
	0x43039d82		$t.3
	0x43039d83		normalize
.text.__ledf2	0x43039d98	0x74	C:\Users\2166772\Downloads\snapdragon_sd_llvm_arm.win.4.0_installer_41720.103-16-22_11_46_50\Snapdragon_SD_LLVM_ARM_WIN_4_0_Installer_41720_1\Snapdragon-llvm-4.0.17-windows64\lib\clang\4.0.17\lib\baremetal/libclang_rt.builtins-armv7m.a(comparedf2.c.obj)	#SHT_PROGBITS,SHF_ALLOC|SHF_EXECINSTR,4
	0x43039d98		$t.0
	0x43039d99		__cmpdf2
	0x43039d99		__ledf2
	0x43039e08		$d.1
.text.__gedf2	0x43039e0c	0x7c	C:\Users\2166772\Downloads\snapdragon_sd_llvm_arm.win.4.0_installer_41720.103-16-22_11_46_50\Snapdragon_SD_LLVM_ARM_WIN_4_0_Installer_41720_1\Snapdragon-llvm-4.0.17-windows64\lib\clang\4.0.17\lib\baremetal/libclang_rt.builtins-armv7m.a(comparedf2.c.obj)	#SHT_PROGBITS,SHF_ALLOC|SHF_EXECINSTR,4
	0x43039e0c		$t.2
	0x43039e0d		__gedf2
	0x43039e84		$d.3
.text.__unorddf2	0x43039e88	0x44	C:\Users\2166772\Downloads\snapdragon_sd_llvm_arm.win.4.0_installer_41720.103-16-22_11_46_50\Snapdragon_SD_LLVM_ARM_WIN_4_0_Installer_41720_1\Snapdragon-llvm-4.0.17-windows64\lib\clang\4.0.17\lib\baremetal/libclang_rt.builtins-armv7m.a(comparedf2.c.obj)	#SHT_PROGBITS,SHF_ALLOC|SHF_EXECINSTR,4
	0x43039e88		$t.4
	0x43039e89		__aeabi_dcmpun
	0x43039e89		__unorddf2
	0x43039ec4		$d.5
.text.__eqdf2	0x43039ecc	0x8	C:\Users\2166772\Downloads\snapdragon_sd_llvm_arm.win.4.0_installer_41720.103-16-22_11_46_50\Snapdragon_SD_LLVM_ARM_WIN_4_0_Installer_41720_1\Snapdragon-llvm-4.0.17-windows64\lib\clang\4.0.17\lib\baremetal/libclang_rt.builtins-armv7m.a(comparedf2.c.obj)	#SHT_PROGBITS,SHF_ALLOC|SHF_EXECINSTR,2
	0x43039ecc		$t.6
	0x43039ecd		__eqdf2
.text.__ltdf2	0x43039ed4	0x8	C:\Users\2166772\Downloads\snapdragon_sd_llvm_arm.win.4.0_installer_41720.103-16-22_11_46_50\Snapdragon_SD_LLVM_ARM_WIN_4_0_Installer_41720_1\Snapdragon-llvm-4.0.17-windows64\lib\clang\4.0.17\lib\baremetal/libclang_rt.builtins-armv7m.a(comparedf2.c.obj)	#SHT_PROGBITS,SHF_ALLOC|SHF_EXECINSTR,2
	0x43039ed4		$t.7
	0x43039ed5		__ltdf2
.text.__nedf2	0x43039edc	0x8	C:\Users\2166772\Downloads\snapdragon_sd_llvm_arm.win.4.0_installer_41720.103-16-22_11_46_50\Snapdragon_SD_LLVM_ARM_WIN_4_0_Installer_41720_1\Snapdragon-llvm-4.0.17-windows64\lib\clang\4.0.17\lib\baremetal/libclang_rt.builtins-armv7m.a(comparedf2.c.obj)	#SHT_PROGBITS,SHF_ALLOC|SHF_EXECINSTR,2
	0x43039edc		$t.8
	0x43039edd		__nedf2
.text.__gtdf2	0x43039ee4	0x8	C:\Users\2166772\Downloads\snapdragon_sd_llvm_arm.win.4.0_installer_41720.103-16-22_11_46_50\Snapdragon_SD_LLVM_ARM_WIN_4_0_Installer_41720_1\Snapdragon-llvm-4.0.17-windows64\lib\clang\4.0.17\lib\baremetal/libclang_rt.builtins-armv7m.a(comparedf2.c.obj)	#SHT_PROGBITS,SHF_ALLOC|SHF_EXECINSTR,2
	0x43039ee4		$t.9
	0x43039ee5		__gtdf2
.text.__lesf2	0x43039eec	0x40	C:\Users\2166772\Downloads\snapdragon_sd_llvm_arm.win.4.0_installer_41720.103-16-22_11_46_50\Snapdragon_SD_LLVM_ARM_WIN_4_0_Installer_41720_1\Snapdragon-llvm-4.0.17-windows64\lib\clang\4.0.17\lib\baremetal/libclang_rt.builtins-armv7m.a(comparesf2.c.obj)	#SHT_PROGBITS,SHF_ALLOC|SHF_EXECINSTR,2
	0x43039eec		$t.0
	0x43039eed		__cmpsf2
	0x43039eed		__lesf2
.text.__gesf2	0x43039f2c	0x42	C:\Users\2166772\Downloads\snapdragon_sd_llvm_arm.win.4.0_installer_41720.103-16-22_11_46_50\Snapdragon_SD_LLVM_ARM_WIN_4_0_Installer_41720_1\Snapdragon-llvm-4.0.17-windows64\lib\clang\4.0.17\lib\baremetal/libclang_rt.builtins-armv7m.a(comparesf2.c.obj)	#SHT_PROGBITS,SHF_ALLOC|SHF_EXECINSTR,2
	0x43039f2c		$t.1
	0x43039f2d		__gesf2
.text.__unordsf2	0x43039f6e	0x24	C:\Users\2166772\Downloads\snapdragon_sd_llvm_arm.win.4.0_installer_41720.103-16-22_11_46_50\Snapdragon_SD_LLVM_ARM_WIN_4_0_Installer_41720_1\Snapdragon-llvm-4.0.17-windows64\lib\clang\4.0.17\lib\baremetal/libclang_rt.builtins-armv7m.a(comparesf2.c.obj)	#SHT_PROGBITS,SHF_ALLOC|SHF_EXECINSTR,2
	0x43039f6e		$t.2
	0x43039f6f		__aeabi_fcmpun
	0x43039f6f		__unordsf2
.text.__eqsf2	0x43039f92	0x8	C:\Users\2166772\Downloads\snapdragon_sd_llvm_arm.win.4.0_installer_41720.103-16-22_11_46_50\Snapdragon_SD_LLVM_ARM_WIN_4_0_Installer_41720_1\Snapdragon-llvm-4.0.17-windows64\lib\clang\4.0.17\lib\baremetal/libclang_rt.builtins-armv7m.a(comparesf2.c.obj)	#SHT_PROGBITS,SHF_ALLOC|SHF_EXECINSTR,2
	0x43039f92		$t.3
	0x43039f93		__eqsf2
.text.__ltsf2	0x43039f9a	0x8	C:\Users\2166772\Downloads\snapdragon_sd_llvm_arm.win.4.0_installer_41720.103-16-22_11_46_50\Snapdragon_SD_LLVM_ARM_WIN_4_0_Installer_41720_1\Snapdragon-llvm-4.0.17-windows64\lib\clang\4.0.17\lib\baremetal/libclang_rt.builtins-armv7m.a(comparesf2.c.obj)	#SHT_PROGBITS,SHF_ALLOC|SHF_EXECINSTR,2
	0x43039f9a		$t.4
	0x43039f9b		__ltsf2
.text.__nesf2	0x43039fa2	0x8	C:\Users\2166772\Downloads\snapdragon_sd_llvm_arm.win.4.0_installer_41720.103-16-22_11_46_50\Snapdragon_SD_LLVM_ARM_WIN_4_0_Installer_41720_1\Snapdragon-llvm-4.0.17-windows64\lib\clang\4.0.17\lib\baremetal/libclang_rt.builtins-armv7m.a(comparesf2.c.obj)	#SHT_PROGBITS,SHF_ALLOC|SHF_EXECINSTR,2
	0x43039fa2		$t.5
	0x43039fa3		__nesf2
.text.__gtsf2	0x43039faa	0x8	C:\Users\2166772\Downloads\snapdragon_sd_llvm_arm.win.4.0_installer_41720.103-16-22_11_46_50\Snapdragon_SD_LLVM_ARM_WIN_4_0_Installer_41720_1\Snapdragon-llvm-4.0.17-windows64\lib\clang\4.0.17\lib\baremetal/libclang_rt.builtins-armv7m.a(comparesf2.c.obj)	#SHT_PROGBITS,SHF_ALLOC|SHF_EXECINSTR,2
	0x43039faa		$t.6
	0x43039fab		__gtsf2
.text.__divdf3	0x43039fb4	0x3b8	C:\Users\2166772\Downloads\snapdragon_sd_llvm_arm.win.4.0_installer_41720.103-16-22_11_46_50\Snapdragon_SD_LLVM_ARM_WIN_4_0_Installer_41720_1\Snapdragon-llvm-4.0.17-windows64\lib\clang\4.0.17\lib\baremetal/libclang_rt.builtins-armv7m.a(divdf3.c.obj)	#SHT_PROGBITS,SHF_ALLOC|SHF_EXECINSTR,4
	0x43039fb4		$t.0
	0x43039fb5		__aeabi_ddiv
	0x43039fb5		__divdf3
	0x4303a354		$d.1
.text.fromRep	0x4303a36c	0x2	C:\Users\2166772\Downloads\snapdragon_sd_llvm_arm.win.4.0_installer_41720.103-16-22_11_46_50\Snapdragon_SD_LLVM_ARM_WIN_4_0_Installer_41720_1\Snapdragon-llvm-4.0.17-windows64\lib\clang\4.0.17\lib\baremetal/libclang_rt.builtins-armv7m.a(divdf3.c.obj)	#SHT_PROGBITS,SHF_ALLOC|SHF_EXECINSTR,2
	0x4303a36c		$t.2
	0x4303a36d		fromRep
.text.normalize	0x4303a36e	0x46	C:\Users\2166772\Downloads\snapdragon_sd_llvm_arm.win.4.0_installer_41720.103-16-22_11_46_50\Snapdragon_SD_LLVM_ARM_WIN_4_0_Installer_41720_1\Snapdragon-llvm-4.0.17-windows64\lib\clang\4.0.17\lib\baremetal/libclang_rt.builtins-armv7m.a(divdf3.c.obj)	#SHT_PROGBITS,SHF_ALLOC|SHF_EXECINSTR,2
	0x4303a36e		$t.3
	0x4303a36f		normalize
.text.__divmoddi4	0x4303a3b4	0x2c	C:\Users\2166772\Downloads\snapdragon_sd_llvm_arm.win.4.0_installer_41720.103-16-22_11_46_50\Snapdragon_SD_LLVM_ARM_WIN_4_0_Installer_41720_1\Snapdragon-llvm-4.0.17-windows64\lib\clang\4.0.17\lib\baremetal/libclang_rt.builtins-armv7m.a(divmoddi4.c.obj)	#SHT_PROGBITS,SHF_ALLOC|SHF_EXECINSTR,2
	0x4303a3b4		$t.0
	0x4303a3b5		__divmoddi4
.text.__divsf3	0x4303a3e0	0x16c	C:\Users\2166772\Downloads\snapdragon_sd_llvm_arm.win.4.0_installer_41720.103-16-22_11_46_50\Snapdragon_SD_LLVM_ARM_WIN_4_0_Installer_41720_1\Snapdragon-llvm-4.0.17-windows64\lib\clang\4.0.17\lib\baremetal/libclang_rt.builtins-armv7m.a(divsf3.c.obj)	#SHT_PROGBITS,SHF_ALLOC|SHF_EXECINSTR,4
	0x4303a3e0		$t.0
	0x4303a3e1		__aeabi_fdiv
	0x4303a3e1		__divsf3
	0x4303a540		$d.1
.text.normalize	0x4303a54c	0x14	C:\Users\2166772\Downloads\snapdragon_sd_llvm_arm.win.4.0_installer_41720.103-16-22_11_46_50\Snapdragon_SD_LLVM_ARM_WIN_4_0_Installer_41720_1\Snapdragon-llvm-4.0.17-windows64\lib\clang\4.0.17\lib\baremetal/libclang_rt.builtins-armv7m.a(divsf3.c.obj)	#SHT_PROGBITS,SHF_ALLOC|SHF_EXECINSTR,2
	0x4303a54c		$t.2
	0x4303a54d		normalize
.text.__extendsfdf2	0x4303a560	0x78	C:\Users\2166772\Downloads\snapdragon_sd_llvm_arm.win.4.0_installer_41720.103-16-22_11_46_50\Snapdragon_SD_LLVM_ARM_WIN_4_0_Installer_41720_1\Snapdragon-llvm-4.0.17-windows64\lib\clang\4.0.17\lib\baremetal/libclang_rt.builtins-armv7m.a(extendsfdf2.c.obj)	#SHT_PROGBITS,SHF_ALLOC|SHF_EXECINSTR,4
	0x4303a560		$t.0
	0x4303a561		__aeabi_f2d
	0x4303a561		__extendsfdf2
	0x4303a5d4		$d.1
.text.__fixdfdi	0x4303a5d8	0x2e	C:\Users\2166772\Downloads\snapdragon_sd_llvm_arm.win.4.0_installer_41720.103-16-22_11_46_50\Snapdragon_SD_LLVM_ARM_WIN_4_0_Installer_41720_1\Snapdragon-llvm-4.0.17-windows64\lib\clang\4.0.17\lib\baremetal/libclang_rt.builtins-armv7m.a(fixdfdi.c.obj)	#SHT_PROGBITS,SHF_ALLOC|SHF_EXECINSTR,2
	0x4303a5d8		$t.0
	0x4303a5d9		__aeabi_d2lz
	0x4303a5d9		__fixdfdi
.text.__fixdfsi	0x4303a608	0x68	C:\Users\2166772\Downloads\snapdragon_sd_llvm_arm.win.4.0_installer_41720.103-16-22_11_46_50\Snapdragon_SD_LLVM_ARM_WIN_4_0_Installer_41720_1\Snapdragon-llvm-4.0.17-windows64\lib\clang\4.0.17\lib\baremetal/libclang_rt.builtins-armv7m.a(fixdfsi.c.obj)	#SHT_PROGBITS,SHF_ALLOC|SHF_EXECINSTR,4
	0x4303a608		$t.0
	0x4303a609		__aeabi_d2iz
	0x4303a609		__fixdfsi
	0x4303a668		$d.1
.text.__fixsfsi	0x4303a670	0x54	C:\Users\2166772\Downloads\snapdragon_sd_llvm_arm.win.4.0_installer_41720.103-16-22_11_46_50\Snapdragon_SD_LLVM_ARM_WIN_4_0_Installer_41720_1\Snapdragon-llvm-4.0.17-windows64\lib\clang\4.0.17\lib\baremetal/libclang_rt.builtins-armv7m.a(fixsfsi.c.obj)	#SHT_PROGBITS,SHF_ALLOC|SHF_EXECINSTR,4
	0x4303a670		$t.0
	0x4303a671		__aeabi_f2iz
	0x4303a671		__fixsfsi
	0x4303a6c0		$d.1
.text.__fixunsdfdi	0x4303a6c4	0x58	C:\Users\2166772\Downloads\snapdragon_sd_llvm_arm.win.4.0_installer_41720.103-16-22_11_46_50\Snapdragon_SD_LLVM_ARM_WIN_4_0_Installer_41720_1\Snapdragon-llvm-4.0.17-windows64\lib\clang\4.0.17\lib\baremetal/libclang_rt.builtins-armv7m.a(fixunsdfdi.c.obj)	#SHT_PROGBITS,SHF_ALLOC|SHF_EXECINSTR,4
	0x4303a6c4		$t.0
	0x4303a6c5		__aeabi_d2ulz
	0x4303a6c5		__fixunsdfdi
	0x4303a714		$d.1
.text.__fixunsdfsi	0x4303a71c	0x58	C:\Users\2166772\Downloads\snapdragon_sd_llvm_arm.win.4.0_installer_41720.103-16-22_11_46_50\Snapdragon_SD_LLVM_ARM_WIN_4_0_Installer_41720_1\Snapdragon-llvm-4.0.17-windows64\lib\clang\4.0.17\lib\baremetal/libclang_rt.builtins-armv7m.a(fixunsdfsi.c.obj)	#SHT_PROGBITS,SHF_ALLOC|SHF_EXECINSTR,4
	0x4303a71c		$t.0
	0x4303a71d		__aeabi_d2uiz
	0x4303a71d		__fixunsdfsi
	0x4303a770		$d.1
.text.__floatdidf	0x4303a774	0x30	C:\Users\2166772\Downloads\snapdragon_sd_llvm_arm.win.4.0_installer_41720.103-16-22_11_46_50\Snapdragon_SD_LLVM_ARM_WIN_4_0_Installer_41720_1\Snapdragon-llvm-4.0.17-windows64\lib\clang\4.0.17\lib\baremetal/libclang_rt.builtins-armv7m.a(floatdidf.c.obj)	#SHT_PROGBITS,SHF_ALLOC|SHF_EXECINSTR,4
	0x4303a774		$t.0
	0x4303a775		__aeabi_l2d
	0x4303a775		__floatdidf
	0x4303a798		$d.1
.text.__floatsidf	0x4303a7a4	0x68	C:\Users\2166772\Downloads\snapdragon_sd_llvm_arm.win.4.0_installer_41720.103-16-22_11_46_50\Snapdragon_SD_LLVM_ARM_WIN_4_0_Installer_41720_1\Snapdragon-llvm-4.0.17-windows64\lib\clang\4.0.17\lib\baremetal/libclang_rt.builtins-armv7m.a(floatsidf.c.obj)	#SHT_PROGBITS,SHF_ALLOC|SHF_EXECINSTR,4
	0x4303a7a4		$t.0
	0x4303a7a5		__aeabi_i2d
	0x4303a7a5		__floatsidf
	0x4303a808		$d.1
.text.__floatsisf	0x4303a80c	0x62	C:\Users\2166772\Downloads\snapdragon_sd_llvm_arm.win.4.0_installer_41720.103-16-22_11_46_50\Snapdragon_SD_LLVM_ARM_WIN_4_0_Installer_41720_1\Snapdragon-llvm-4.0.17-windows64\lib\clang\4.0.17\lib\baremetal/libclang_rt.builtins-armv7m.a(floatsisf.c.obj)	#SHT_PROGBITS,SHF_ALLOC|SHF_EXECINSTR,2
	0x4303a80c		$t.0
	0x4303a80d		__aeabi_i2f
	0x4303a80d		__floatsisf
.text.__floatunsidf	0x4303a870	0x46	C:\Users\2166772\Downloads\snapdragon_sd_llvm_arm.win.4.0_installer_41720.103-16-22_11_46_50\Snapdragon_SD_LLVM_ARM_WIN_4_0_Installer_41720_1\Snapdragon-llvm-4.0.17-windows64\lib\clang\4.0.17\lib\baremetal/libclang_rt.builtins-armv7m.a(floatunsidf.c.obj)	#SHT_PROGBITS,SHF_ALLOC|SHF_EXECINSTR,2
	0x4303a870		$t.0
	0x4303a871		__aeabi_ui2d
	0x4303a871		__floatunsidf
.text.__muldf3	0x4303a8b8	0x32c	C:\Users\2166772\Downloads\snapdragon_sd_llvm_arm.win.4.0_installer_41720.103-16-22_11_46_50\Snapdragon_SD_LLVM_ARM_WIN_4_0_Installer_41720_1\Snapdragon-llvm-4.0.17-windows64\lib\clang\4.0.17\lib\baremetal/libclang_rt.builtins-armv7m.a(muldf3.c.obj)	#SHT_PROGBITS,SHF_ALLOC|SHF_EXECINSTR,4
	0x4303a8b8		$t.0
	0x4303a8b9		__aeabi_dmul
	0x4303a8b9		__muldf3
	0x4303abd0		$d.1
.text.normalize	0x4303abe4	0x46	C:\Users\2166772\Downloads\snapdragon_sd_llvm_arm.win.4.0_installer_41720.103-16-22_11_46_50\Snapdragon_SD_LLVM_ARM_WIN_4_0_Installer_41720_1\Snapdragon-llvm-4.0.17-windows64\lib\clang\4.0.17\lib\baremetal/libclang_rt.builtins-armv7m.a(muldf3.c.obj)	#SHT_PROGBITS,SHF_ALLOC|SHF_EXECINSTR,2
	0x4303abe4		$t.2
	0x4303abe5		normalize
.text.__mulsf3	0x4303ac2c	0x13c	C:\Users\2166772\Downloads\snapdragon_sd_llvm_arm.win.4.0_installer_41720.103-16-22_11_46_50\Snapdragon_SD_LLVM_ARM_WIN_4_0_Installer_41720_1\Snapdragon-llvm-4.0.17-windows64\lib\clang\4.0.17\lib\baremetal/libclang_rt.builtins-armv7m.a(mulsf3.c.obj)	#SHT_PROGBITS,SHF_ALLOC|SHF_EXECINSTR,4
	0x4303ac2c		$t.0
	0x4303ac2d		__aeabi_fmul
	0x4303ac2d		__mulsf3
	0x4303ad60		$d.1
.text.normalize	0x4303ad68	0x14	C:\Users\2166772\Downloads\snapdragon_sd_llvm_arm.win.4.0_installer_41720.103-16-22_11_46_50\Snapdragon_SD_LLVM_ARM_WIN_4_0_Installer_41720_1\Snapdragon-llvm-4.0.17-windows64\lib\clang\4.0.17\lib\baremetal/libclang_rt.builtins-armv7m.a(mulsf3.c.obj)	#SHT_PROGBITS,SHF_ALLOC|SHF_EXECINSTR,2
	0x4303ad68		$t.2
	0x4303ad69		normalize
.text.__subdf3	0x4303ad7c	0xc	C:\Users\2166772\Downloads\snapdragon_sd_llvm_arm.win.4.0_installer_41720.103-16-22_11_46_50\Snapdragon_SD_LLVM_ARM_WIN_4_0_Installer_41720_1\Snapdragon-llvm-4.0.17-windows64\lib\clang\4.0.17\lib\baremetal/libclang_rt.builtins-armv7m.a(subdf3.c.obj)	#SHT_PROGBITS,SHF_ALLOC|SHF_EXECINSTR,2
	0x4303ad7c		$t.0
	0x4303ad7d		__aeabi_dsub
	0x4303ad7d		__subdf3
.text.__truncdfsf2	0x4303ad88	0x130	C:\Users\2166772\Downloads\snapdragon_sd_llvm_arm.win.4.0_installer_41720.103-16-22_11_46_50\Snapdragon_SD_LLVM_ARM_WIN_4_0_Installer_41720_1\Snapdragon-llvm-4.0.17-windows64\lib\clang\4.0.17\lib\baremetal/libclang_rt.builtins-armv7m.a(truncdfsf2.c.obj)	#SHT_PROGBITS,SHF_ALLOC|SHF_EXECINSTR,4
	0x4303ad88		$t.0
	0x4303ad89		__aeabi_d2f
	0x4303ad89		__truncdfsf2
	0x4303ae98		$d.1
.text.__udivmoddi4	0x4303aeb8	0x1d4	C:\Users\2166772\Downloads\snapdragon_sd_llvm_arm.win.4.0_installer_41720.103-16-22_11_46_50\Snapdragon_SD_LLVM_ARM_WIN_4_0_Installer_41720_1\Snapdragon-llvm-4.0.17-windows64\lib\clang\4.0.17\lib\baremetal/libclang_rt.builtins-armv7m.a(udivmoddi4.c.obj)	#SHT_PROGBITS,SHF_ALLOC|SHF_EXECINSTR,2
	0x4303aeb8		$t.0
	0x4303aeb9		__udivmoddi4
.text.__divdi3	0x4303b08c	0x46	C:\Users\2166772\Downloads\snapdragon_sd_llvm_arm.win.4.0_installer_41720.103-16-22_11_46_50\Snapdragon_SD_LLVM_ARM_WIN_4_0_Installer_41720_1\Snapdragon-llvm-4.0.17-windows64\lib\clang\4.0.17\lib\baremetal/libclang_rt.builtins-armv7m.a(divdi3.c.obj)	#SHT_PROGBITS,SHF_ALLOC|SHF_EXECINSTR,2
	0x4303b08c		$t.0
	0x4303b08d		__divdi3
*(Init )
*(.rodata .rodata.* )
.rodata.str1.1	0x4303b0d2	0x11	src\build\aware_client\app_config.o	#SHT_PROGBITS,SHF_ALLOC|SHF_MERGE|SHF_STRINGS,1
	0x4303b0d2		.L.str
.rodata.str1.1	0x4303b0e3	0x3	src\build\aware_client\app_config.o	#SHT_PROGBITS,SHF_ALLOC|SHF_MERGE|SHF_STRINGS,1
	0x4303b0e3		.L.str.1
.rodata.str1.1	0x4303b0e6	0x3	src\build\aware_client\app_config.o	#SHT_PROGBITS,SHF_ALLOC|SHF_MERGE|SHF_STRINGS,1
	0x4303b0e6		.L.str.2
.rodata.str1.1	0x4303b0e9	0x7	src\build\aware_client\app_config.o	#SHT_PROGBITS,SHF_ALLOC|SHF_MERGE|SHF_STRINGS,1
	0x4303b0e9		.L.str.3
.rodata.str1.1	0x4303b0f0	0x8	src\build\aware_client\app_config.o	#SHT_PROGBITS,SHF_ALLOC|SHF_MERGE|SHF_STRINGS,1
	0x4303b0f0		.L.str.4
.rodata.str1.1	0x4303b0f8	0x7	src\build\aware_client\app_config.o	#SHT_PROGBITS,SHF_ALLOC|SHF_MERGE|SHF_STRINGS,1
	0x4303b0f8		.L.str.5
.rodata.str1.1	0x4303b0ff	0x8	src\build\aware_client\app_config.o	#SHT_PROGBITS,SHF_ALLOC|SHF_MERGE|SHF_STRINGS,1
	0x4303b0ff		.L.str.6
.rodata.str1.1	0x4303b107	0x8	src\build\aware_client\app_config.o	#SHT_PROGBITS,SHF_ALLOC|SHF_MERGE|SHF_STRINGS,1
	0x4303b107		.L.str.7
.rodata.str1.1	0x4303b10f	0x7	src\build\aware_client\app_config.o	#SHT_PROGBITS,SHF_ALLOC|SHF_MERGE|SHF_STRINGS,1
	0x4303b10f		.L.str.8
.rodata.str1.1	0x4303b116	0x8	src\build\aware_client\app_config.o	#SHT_PROGBITS,SHF_ALLOC|SHF_MERGE|SHF_STRINGS,1
	0x4303b116		.L.str.9
.rodata.str1.1	0x4303b11e	0x8	src\build\aware_client\app_config.o	#SHT_PROGBITS,SHF_ALLOC|SHF_MERGE|SHF_STRINGS,1
	0x4303b11e		.L.str.10
.rodata.str1.1	0x4303b126	0x5	src\build\aware_client\app_config.o	#SHT_PROGBITS,SHF_ALLOC|SHF_MERGE|SHF_STRINGS,1
	0x4303b126		.L.str.11
.rodata.str1.1	0x4303b12b	0x6	src\build\aware_client\app_config.o	#SHT_PROGBITS,SHF_ALLOC|SHF_MERGE|SHF_STRINGS,1
	0x4303b12b		.L.str.12
.rodata.str1.1	0x4303b131	0x6	src\build\aware_client\app_config.o	#SHT_PROGBITS,SHF_ALLOC|SHF_MERGE|SHF_STRINGS,1
	0x4303b131		.L.str.13
.rodata.str1.1	0x4303b137	0x5	src\build\aware_client\app_config.o	#SHT_PROGBITS,SHF_ALLOC|SHF_MERGE|SHF_STRINGS,1
	0x4303b137		.L.str.14
.rodata.str1.1	0x4303b13c	0x5	src\build\aware_client\app_config.o	#SHT_PROGBITS,SHF_ALLOC|SHF_MERGE|SHF_STRINGS,1
	0x4303b13c		.L.str.15
.rodata.str1.1	0x4303b141	0x6	src\build\aware_client\app_config.o	#SHT_PROGBITS,SHF_ALLOC|SHF_MERGE|SHF_STRINGS,1
	0x4303b141		.L.str.16
.rodata.str1.1	0x4303b147	0x6	src\build\aware_client\app_config.o	#SHT_PROGBITS,SHF_ALLOC|SHF_MERGE|SHF_STRINGS,1
	0x4303b147		.L.str.17
.rodata.str1.1	0x4303b14d	0x6	src\build\aware_client\app_config.o	#SHT_PROGBITS,SHF_ALLOC|SHF_MERGE|SHF_STRINGS,1
	0x4303b14d		.L.str.18
.rodata.str1.1	0x4303b153	0x6	src\build\aware_client\app_config.o	#SHT_PROGBITS,SHF_ALLOC|SHF_MERGE|SHF_STRINGS,1
	0x4303b153		.L.str.19
.rodata.str1.1	0x4303b159	0x4	src\build\aware_client\app_config.o	#SHT_PROGBITS,SHF_ALLOC|SHF_MERGE|SHF_STRINGS,1
	0x4303b159		.L.str.20
.rodata.str1.1	0x4303b15d	0x5	src\build\aware_client\app_config.o	#SHT_PROGBITS,SHF_ALLOC|SHF_MERGE|SHF_STRINGS,1
	0x4303b15d		.L.str.21
.rodata.str1.1	0x4303b162	0x4	src\build\aware_client\app_config.o	#SHT_PROGBITS,SHF_ALLOC|SHF_MERGE|SHF_STRINGS,1
	0x4303b162		.L.str.22
.rodata.str1.1	0x4303b166	0x5	src\build\aware_client\app_config.o	#SHT_PROGBITS,SHF_ALLOC|SHF_MERGE|SHF_STRINGS,1
	0x4303b166		.L.str.23
.rodata.str1.1	0x4303b16b	0x5	src\build\aware_client\app_config.o	#SHT_PROGBITS,SHF_ALLOC|SHF_MERGE|SHF_STRINGS,1
	0x4303b16b		.L.str.24
.rodata.str1.1	0x4303b170	0x3c	src\build\aware_client\app_config.o	#SHT_PROGBITS,SHF_ALLOC|SHF_MERGE|SHF_STRINGS,1
	0x4303b170		.L.str.25
.rodata.str1.1	0x4303b1ac	0x3	src\build\aware_client\app_config.o	#SHT_PROGBITS,SHF_ALLOC|SHF_MERGE|SHF_STRINGS,1
	0x4303b1ac		.L.str.26
.rodata.str1.1	0x4303b1af	0x2a	src\build\aware_client\app_config.o	#SHT_PROGBITS,SHF_ALLOC|SHF_MERGE|SHF_STRINGS,1
	0x4303b1af		.L.str.27
.rodata.str1.1	0x4303b1d9	0x22	src\build\aware_client\app_config.o	#SHT_PROGBITS,SHF_ALLOC|SHF_MERGE|SHF_STRINGS,1
	0x4303b1d9		.L.str.29
.rodata.str1.1	0x4303b1fb	0x27	src\build\aware_client\app_config.o	#SHT_PROGBITS,SHF_ALLOC|SHF_MERGE|SHF_STRINGS,1
	0x4303b1fb		.L.str.34
.rodata.str1.1	0x4303b222	0x20	src\build\aware_client\app_config.o	#SHT_PROGBITS,SHF_ALLOC|SHF_MERGE|SHF_STRINGS,1
	0x4303b222		.L.str.37
.rodata.str1.1	0x4303b242	0x2d	src\build\aware_client\app_config.o	#SHT_PROGBITS,SHF_ALLOC|SHF_MERGE|SHF_STRINGS,1
	0x4303b242		.L.str.40
.rodata.str1.1	0x4303b26f	0x31	src\build\aware_client\app_config.o	#SHT_PROGBITS,SHF_ALLOC|SHF_MERGE|SHF_STRINGS,1
	0x4303b26f		.L.str.43
.rodata.str1.1	0x4303b2a0	0x2d	src\build\aware_client\app_config.o	#SHT_PROGBITS,SHF_ALLOC|SHF_MERGE|SHF_STRINGS,1
	0x4303b2a0		.L.str.46
.rodata.str1.1	0x4303b2cd	0x31	src\build\aware_client\app_config.o	#SHT_PROGBITS,SHF_ALLOC|SHF_MERGE|SHF_STRINGS,1
	0x4303b2cd		.L.str.49
.rodata.str1.1	0x4303b2fe	0x25	src\build\aware_client\app_config.o	#SHT_PROGBITS,SHF_ALLOC|SHF_MERGE|SHF_STRINGS,1
	0x4303b2fe		.L.str.52
.rodata.str1.1	0x4303b323	0x2e	src\build\aware_client\app_config.o	#SHT_PROGBITS,SHF_ALLOC|SHF_MERGE|SHF_STRINGS,1
	0x4303b323		.L.str.55
.rodata.str1.1	0x4303b351	0x32	src\build\aware_client\app_config.o	#SHT_PROGBITS,SHF_ALLOC|SHF_MERGE|SHF_STRINGS,1
	0x4303b351		.L.str.58
.rodata.str1.1	0x4303b383	0x26	src\build\aware_client\app_config.o	#SHT_PROGBITS,SHF_ALLOC|SHF_MERGE|SHF_STRINGS,1
	0x4303b383		.L.str.61
.rodata.str1.1	0x4303b3a9	0x24	src\build\aware_client\app_config.o	#SHT_PROGBITS,SHF_ALLOC|SHF_MERGE|SHF_STRINGS,1
	0x4303b3a9		.L.str.64
.rodata.str1.1	0x4303b3cd	0x37	src\build\aware_client\app_config.o	#SHT_PROGBITS,SHF_ALLOC|SHF_MERGE|SHF_STRINGS,1
	0x4303b3cd		.L.str.67
.rodata.str1.1	0x4303b404	0x22	src\build\aware_client\app_config.o	#SHT_PROGBITS,SHF_ALLOC|SHF_MERGE|SHF_STRINGS,1
	0x4303b404		.L.str.70
.rodata.str1.1	0x4303b426	0x2a	src\build\aware_client\app_config.o	#SHT_PROGBITS,SHF_ALLOC|SHF_MERGE|SHF_STRINGS,1
	0x4303b426		.L.str.73
.rodata.str1.1	0x4303b450	0x29	src\build\aware_client\app_config.o	#SHT_PROGBITS,SHF_ALLOC|SHF_MERGE|SHF_STRINGS,1
	0x4303b450		.L.str.76
.rodata.str1.1	0x4303b479	0x2b	src\build\aware_client\app_config.o	#SHT_PROGBITS,SHF_ALLOC|SHF_MERGE|SHF_STRINGS,1
	0x4303b479		.L.str.79
.rodata.str1.1	0x4303b4a4	0x25	src\build\aware_client\app_config.o	#SHT_PROGBITS,SHF_ALLOC|SHF_MERGE|SHF_STRINGS,1
	0x4303b4a4		.L.str.82
.rodata.str1.1	0x4303b4c9	0x25	src\build\aware_client\app_config.o	#SHT_PROGBITS,SHF_ALLOC|SHF_MERGE|SHF_STRINGS,1
	0x4303b4c9		.L.str.85
.rodata.str1.1	0x4303b4ee	0x21	src\build\aware_client\app_config.o	#SHT_PROGBITS,SHF_ALLOC|SHF_MERGE|SHF_STRINGS,1
	0x4303b4ee		.L.str.88
.rodata.str1.1	0x4303b50f	0x21	src\build\aware_client\app_config.o	#SHT_PROGBITS,SHF_ALLOC|SHF_MERGE|SHF_STRINGS,1
	0x4303b50f		.L.str.91
.rodata.str1.1	0x4303b530	0x1e	src\build\aware_client\app_config.o	#SHT_PROGBITS,SHF_ALLOC|SHF_MERGE|SHF_STRINGS,1
	0x4303b530		.L.str.94
.rodata.str1.1	0x4303b54e	0x27	src\build\aware_client\app_config.o	#SHT_PROGBITS,SHF_ALLOC|SHF_MERGE|SHF_STRINGS,1
	0x4303b54e		.L.str.97
.rodata.str1.1	0x4303b575	0x21	src\build\aware_client\app_config.o	#SHT_PROGBITS,SHF_ALLOC|SHF_MERGE|SHF_STRINGS,1
	0x4303b575		.L.str.100
.rodata.str1.1	0x4303b596	0x21	src\build\aware_client\app_config.o	#SHT_PROGBITS,SHF_ALLOC|SHF_MERGE|SHF_STRINGS,1
	0x4303b596		.L.str.103
.rodata.str1.1	0x4303b5b7	0xb	src\build\aware_client\app_config.o	#SHT_PROGBITS,SHF_ALLOC|SHF_MERGE|SHF_STRINGS,1
	0x4303b5b7		.L.str.108
.rodata.str1.1	0x4303b5c2	0x25	src\build\aware_client\app_config.o	#SHT_PROGBITS,SHF_ALLOC|SHF_MERGE|SHF_STRINGS,1
	0x4303b5c2		.L.str.109
PADDING_ALIGNMENT	0x4303b5e7	0x1	0x0
.rodata	0x4303b5e8	0x3a0	src\build\aware_client\app_config.o	#SHT_PROGBITS,SHF_ALLOC,4
	0x4303b5e8		app_config_load.xx_msg_const
	0x4303b5f8		app_config_load.xx_msg_const.28
	0x4303b608		app_config_load.xx_msg_const.30
	0x4303b618		app_config_load.xx_msg_const.31
	0x4303b628		app_config_load.xx_msg_const.32
	0x4303b638		app_config_load.xx_msg_const.33
	0x4303b648		app_config_load.xx_msg_const.35
	0x4303b658		app_config_load.xx_msg_const.36
	0x4303b668		app_config_load.xx_msg_const.38
	0x4303b678		app_config_load.xx_msg_const.39
	0x4303b688		app_config_load.xx_msg_const.41
	0x4303b698		app_config_load.xx_msg_const.42
	0x4303b6a8		app_config_load.xx_msg_const.44
	0x4303b6b8		app_config_load.xx_msg_const.45
	0x4303b6c8		app_config_load.xx_msg_const.47
	0x4303b6d8		app_config_load.xx_msg_const.48
	0x4303b6e8		app_config_load.xx_msg_const.50
	0x4303b6f8		app_config_load.xx_msg_const.51
	0x4303b708		app_config_load.xx_msg_const.53
	0x4303b718		app_config_load.xx_msg_const.54
	0x4303b728		app_config_load.xx_msg_const.56
	0x4303b738		app_config_load.xx_msg_const.57
	0x4303b748		app_config_load.xx_msg_const.59
	0x4303b758		app_config_load.xx_msg_const.60
	0x4303b768		app_config_load.xx_msg_const.62
	0x4303b778		app_config_load.xx_msg_const.63
	0x4303b788		app_config_load.xx_msg_const.65
	0x4303b798		app_config_load.xx_msg_const.66
	0x4303b7a8		app_config_load.xx_msg_const.68
	0x4303b7b8		app_config_load.xx_msg_const.69
	0x4303b7c8		app_config_load.xx_msg_const.71
	0x4303b7d8		app_config_load.xx_msg_const.72
	0x4303b7e8		app_config_load.xx_msg_const.74
	0x4303b7f8		app_config_load.xx_msg_const.75
	0x4303b808		app_config_load.xx_msg_const.77
	0x4303b818		app_config_load.xx_msg_const.78
	0x4303b828		app_config_load.xx_msg_const.80
	0x4303b838		app_config_load.xx_msg_const.81
	0x4303b848		app_config_load.xx_msg_const.83
	0x4303b858		app_config_load.xx_msg_const.84
	0x4303b868		app_config_load.xx_msg_const.86
	0x4303b878		app_config_load.xx_msg_const.87
	0x4303b888		app_config_load.xx_msg_const.89
	0x4303b898		app_config_load.xx_msg_const.90
	0x4303b8a8		app_config_load.xx_msg_const.92
	0x4303b8b8		app_config_load.xx_msg_const.93
	0x4303b8c8		app_config_load.xx_msg_const.95
	0x4303b8d8		app_config_load.xx_msg_const.96
	0x4303b8e8		app_config_load.xx_msg_const.98
	0x4303b8f8		app_config_load.xx_msg_const.99
	0x4303b908		app_config_load.xx_msg_const.101
	0x4303b918		app_config_load.xx_msg_const.102
	0x4303b928		app_config_load.xx_msg_const.104
	0x4303b938		app_config_load.xx_msg_const.105
	0x4303b948		app_config_load.xx_msg_const.106
	0x4303b958		app_config_load.xx_msg_const.107
	0x4303b968		app_config_update.xx_msg_const
	0x4303b978		app_config_update.xx_msg_const.110
.rodata.str1.1	0x4303b988	0x1e	src\build\aware_client\app_msg_q.o	#SHT_PROGBITS,SHF_ALLOC|SHF_MERGE|SHF_STRINGS,1
	0x4303b988		.L.str
.rodata.str1.1	0x4303b9a6	0x26	src\build\aware_client\app_msg_q.o	#SHT_PROGBITS,SHF_ALLOC|SHF_MERGE|SHF_STRINGS,1
	0x4303b9a6		.L.str.2
.rodata.str1.1	0x4303b9cc	0x2c	src\build\aware_client\app_msg_q.o	#SHT_PROGBITS,SHF_ALLOC|SHF_MERGE|SHF_STRINGS,1
	0x4303b9cc		.L.str.4
.rodata.str1.1	0x4303b9f8	0x23	src\build\aware_client\app_msg_q.o	#SHT_PROGBITS,SHF_ALLOC|SHF_MERGE|SHF_STRINGS,1
	0x4303b9f8		.L.str.7
.rodata.str1.1	0x4303ba1b	0xb	src\build\aware_client\app_msg_q.o	#SHT_PROGBITS,SHF_ALLOC|SHF_MERGE|SHF_STRINGS,1
	0x4303ba1b		.L.str.10
.rodata.str1.1	0x4303ba26	0x21	src\build\aware_client\app_msg_q.o	#SHT_PROGBITS,SHF_ALLOC|SHF_MERGE|SHF_STRINGS,1
	0x4303ba26		.L.str.11
.rodata.str1.1	0x4303ba47	0xc	src\build\aware_client\app_msg_q.o	#SHT_PROGBITS,SHF_ALLOC|SHF_MERGE|SHF_STRINGS,1
	0x4303ba47		.L.str.14
.rodata.str1.1	0x4303ba53	0x22	src\build\aware_client\app_msg_q.o	#SHT_PROGBITS,SHF_ALLOC|SHF_MERGE|SHF_STRINGS,1
	0x4303ba53		.L.str.15
.rodata.str1.1	0x4303ba75	0x1b	src\build\aware_client\app_msg_q.o	#SHT_PROGBITS,SHF_ALLOC|SHF_MERGE|SHF_STRINGS,1
	0x4303ba75		.L.str.20
.rodata	0x4303ba90	0x160	src\build\aware_client\app_msg_q.o	#SHT_PROGBITS,SHF_ALLOC,4
	0x4303ba90		app_msg_q_init.xx_msg_const
	0x4303baa0		app_msg_q_init.xx_msg_const.3
	0x4303bab0		app_msg_q_init.xx_msg_const.5
	0x4303bac0		app_msg_q_init.xx_msg_const.6
	0x4303bad0		app_msg_q_init.xx_msg_const.8
	0x4303bae0		app_msg_q_init.xx_msg_const.9
	0x4303baf0		app_msg_q_init.xx_msg_const.12
	0x4303bb00		app_msg_q_init.xx_msg_const.13
	0x4303bb10		app_msg_q_init.xx_msg_const.16
	0x4303bb20		app_msg_q_init.xx_msg_const.17
	0x4303bb30		app_msg_q_destroy.xx_msg_const
	0x4303bb40		app_msg_q_destroy.xx_msg_const.18
	0x4303bb50		app_msg_q_snd.xx_msg_const
	0x4303bb60		app_msg_q_snd.xx_msg_const.19
	0x4303bb70		app_msg_q_snd.xx_msg_const.21
	0x4303bb80		app_msg_q_snd.xx_msg_const.22
	0x4303bb90		app_msg_q_rcv.xx_msg_const
	0x4303bba0		app_msg_q_rcv.xx_msg_const.23
	0x4303bbb0		app_msg_q_rcv.xx_msg_const.24
	0x4303bbc0		app_msg_q_rcv.xx_msg_const.25
	0x4303bbd0		app_msg_q_flush.xx_msg_const
	0x4303bbe0		app_msg_q_flush.xx_msg_const.26
.rodata.str1.1	0x4303bbf0	0x1b	src\build\aware_client\app_thread.o	#SHT_PROGBITS,SHF_ALLOC|SHF_MERGE|SHF_STRINGS,1
	0x4303bbf0		.L.str
.rodata.str1.1	0x4303bc0b	0x27	src\build\aware_client\app_thread.o	#SHT_PROGBITS,SHF_ALLOC|SHF_MERGE|SHF_STRINGS,1
	0x4303bc0b		.L.str.2
.rodata.str1.1	0x4303bc32	0xe	src\build\aware_client\app_thread.o	#SHT_PROGBITS,SHF_ALLOC|SHF_MERGE|SHF_STRINGS,1
	0x4303bc32		.L.str.4
.rodata.str1.1	0x4303bc40	0x1a	src\build\aware_client\app_thread.o	#SHT_PROGBITS,SHF_ALLOC|SHF_MERGE|SHF_STRINGS,1
	0x4303bc40		.L.str.6
.rodata.str1.1	0x4303bc5a	0x1b	src\build\aware_client\app_thread.o	#SHT_PROGBITS,SHF_ALLOC|SHF_MERGE|SHF_STRINGS,1
	0x4303bc5a		.L.str.9
.rodata.str1.1	0x4303bc75	0x1f	src\build\aware_client\app_thread.o	#SHT_PROGBITS,SHF_ALLOC|SHF_MERGE|SHF_STRINGS,1
	0x4303bc75		.L.str.12
.rodata.str1.1	0x4303bc94	0x1e	src\build\aware_client\app_thread.o	#SHT_PROGBITS,SHF_ALLOC|SHF_MERGE|SHF_STRINGS,1
	0x4303bc94		.L.str.15
.rodata.str1.1	0x4303bcb2	0x15	src\build\aware_client\app_thread.o	#SHT_PROGBITS,SHF_ALLOC|SHF_MERGE|SHF_STRINGS,1
	0x4303bcb2		.L.str.18
.rodata.str1.1	0x4303bcc7	0x1c	src\build\aware_client\app_thread.o	#SHT_PROGBITS,SHF_ALLOC|SHF_MERGE|SHF_STRINGS,1
	0x4303bcc7		.L.str.20
.rodata.str1.1	0x4303bce3	0x21	src\build\aware_client\app_thread.o	#SHT_PROGBITS,SHF_ALLOC|SHF_MERGE|SHF_STRINGS,1
	0x4303bce3		.L.str.23
.rodata.str1.1	0x4303bd04	0x1c	src\build\aware_client\app_thread.o	#SHT_PROGBITS,SHF_ALLOC|SHF_MERGE|SHF_STRINGS,1
	0x4303bd04		.L.str.26
.rodata.str1.1	0x4303bd20	0x13	src\build\aware_client\app_thread.o	#SHT_PROGBITS,SHF_ALLOC|SHF_MERGE|SHF_STRINGS,1
	0x4303bd20		.L.str.30
.rodata.str1.1	0x4303bd33	0x21	src\build\aware_client\app_thread.o	#SHT_PROGBITS,SHF_ALLOC|SHF_MERGE|SHF_STRINGS,1
	0x4303bd33		.L.str.33
.rodata.str1.1	0x4303bd54	0x1d	src\build\aware_client\app_thread.o	#SHT_PROGBITS,SHF_ALLOC|SHF_MERGE|SHF_STRINGS,1
	0x4303bd54		.L.str.36
.rodata.str1.1	0x4303bd71	0x23	src\build\aware_client\app_thread.o	#SHT_PROGBITS,SHF_ALLOC|SHF_MERGE|SHF_STRINGS,1
	0x4303bd71		.L.str.39
.rodata.str1.1	0x4303bd94	0x1d	src\build\aware_client\app_thread.o	#SHT_PROGBITS,SHF_ALLOC|SHF_MERGE|SHF_STRINGS,1
	0x4303bd94		.L.str.41
.rodata.str1.1	0x4303bdb1	0x21	src\build\aware_client\app_thread.o	#SHT_PROGBITS,SHF_ALLOC|SHF_MERGE|SHF_STRINGS,1
	0x4303bdb1		.L.str.47
.rodata.str1.1	0x4303bdd2	0x1b	src\build\aware_client\app_thread.o	#SHT_PROGBITS,SHF_ALLOC|SHF_MERGE|SHF_STRINGS,1
	0x4303bdd2		.L.str.50
.rodata.str1.1	0x4303bded	0x1f	src\build\aware_client\app_thread.o	#SHT_PROGBITS,SHF_ALLOC|SHF_MERGE|SHF_STRINGS,1
	0x4303bded		.L.str.52
.rodata.str1.1	0x4303be0c	0x13	src\build\aware_client\app_thread.o	#SHT_PROGBITS,SHF_ALLOC|SHF_MERGE|SHF_STRINGS,1
	0x4303be0c		.L.str.54
.rodata.str1.1	0x4303be1f	0x23	src\build\aware_client\app_thread.o	#SHT_PROGBITS,SHF_ALLOC|SHF_MERGE|SHF_STRINGS,1
	0x4303be1f		.L.str.56
.rodata.str1.1	0x4303be42	0x19	src\build\aware_client\app_thread.o	#SHT_PROGBITS,SHF_ALLOC|SHF_MERGE|SHF_STRINGS,1
	0x4303be42		.L.str.59
.rodata.str1.1	0x4303be5b	0x12	src\build\aware_client\app_thread.o	#SHT_PROGBITS,SHF_ALLOC|SHF_MERGE|SHF_STRINGS,1
	0x4303be5b		.L.str.61
.rodata.str1.1	0x4303be6d	0x12	src\build\aware_client\app_thread.o	#SHT_PROGBITS,SHF_ALLOC|SHF_MERGE|SHF_STRINGS,1
	0x4303be6d		.L.str.63
.rodata.str1.1	0x4303be7f	0x15	src\build\aware_client\app_thread.o	#SHT_PROGBITS,SHF_ALLOC|SHF_MERGE|SHF_STRINGS,1
	0x4303be7f		.L.str.65
.rodata.str1.1	0x4303be94	0x20	src\build\aware_client\app_thread.o	#SHT_PROGBITS,SHF_ALLOC|SHF_MERGE|SHF_STRINGS,1
	0x4303be94		.L.str.69
.rodata.str1.1	0x4303beb4	0x17	src\build\aware_client\app_thread.o	#SHT_PROGBITS,SHF_ALLOC|SHF_MERGE|SHF_STRINGS,1
	0x4303beb4		.L.str.72
PADDING_ALIGNMENT	0x4303becb	0x1	0x0
.rodata	0x4303becc	0x3b0	src\build\aware_client\app_thread.o	#SHT_PROGBITS,SHF_ALLOC,4
	0x4303becc		app_thread_module_init.xx_msg_const
	0x4303bedc		app_thread_module_init.xx_msg_const.3
	0x4303beec		app_thread_create.xx_msg_const
	0x4303befc		app_thread_create.xx_msg_const.5
	0x4303bf0c		app_thread_create.xx_msg_const.7
	0x4303bf1c		app_thread_create.xx_msg_const.8
	0x4303bf2c		app_thread_create.xx_msg_const.10
	0x4303bf3c		app_thread_create.xx_msg_const.11
	0x4303bf4c		app_thread_create.xx_msg_const.13
	0x4303bf5c		app_thread_create.xx_msg_const.14
	0x4303bf6c		app_thread_create.xx_msg_const.16
	0x4303bf7c		app_thread_create.xx_msg_const.17
	0x4303bf8c		app_thread_destroy.xx_msg_const
	0x4303bf9c		app_thread_destroy.xx_msg_const.19
	0x4303bfac		app_thread_destroy.xx_msg_const.21
	0x4303bfbc		app_thread_destroy.xx_msg_const.22
	0x4303bfcc		app_thread_destroy.xx_msg_const.24
	0x4303bfdc		app_thread_destroy.xx_msg_const.25
	0x4303bfec		app_thread_destroy.xx_msg_const.27
	0x4303bffc		app_thread_destroy.xx_msg_const.28
	0x4303c00c		app_thread_send_msg.xx_msg_const
	0x4303c01c		app_thread_send_msg.xx_msg_const.29
	0x4303c02c		app_thread_send_msg.xx_msg_const.31
	0x4303c03c		app_thread_send_msg.xx_msg_const.32
	0x4303c04c		app_thread_send_msg.xx_msg_const.34
	0x4303c05c		app_thread_send_msg.xx_msg_const.35
	0x4303c06c		app_thread_send_msg.xx_msg_const.37
	0x4303c07c		app_thread_send_msg.xx_msg_const.38
	0x4303c08c		app_thread_send_msg.xx_msg_const.40
	0x4303c09c		app_thread_send_msg.xx_msg_const.42
	0x4303c0ac		app_thread_send_msg.xx_msg_const.43
	0x4303c0bc		app_thread_rcv_msg.xx_msg_const
	0x4303c0cc		app_thread_rcv_msg.xx_msg_const.44
	0x4303c0dc		app_thread_rcv_msg.xx_msg_const.45
	0x4303c0ec		app_thread_rcv_msg.xx_msg_const.46
	0x4303c0fc		app_thread_rcv_msg.xx_msg_const.48
	0x4303c10c		app_thread_rcv_msg.xx_msg_const.49
	0x4303c11c		app_thread_rcv_msg.xx_msg_const.51
	0x4303c12c		app_utils_sleep_ms_with_log.xx_msg_const
	0x4303c13c		app_utils_sleep_ms_with_log.xx_msg_const.53
	0x4303c14c		app_utils_mutex_init.xx_msg_const
	0x4303c15c		app_utils_mutex_init.xx_msg_const.55
	0x4303c16c		app_utils_mutex_init.xx_msg_const.57
	0x4303c17c		app_utils_mutex_init.xx_msg_const.58
	0x4303c18c		app_utils_mutex_init.xx_msg_const.60
	0x4303c19c		app_utils_mutex_get.xx_msg_const
	0x4303c1ac		app_utils_mutex_get.xx_msg_const.62
	0x4303c1bc		app_utils_mutex_put.xx_msg_const
	0x4303c1cc		app_utils_mutex_put.xx_msg_const.64
	0x4303c1dc		app_utils_mutex_delete.xx_msg_const
	0x4303c1ec		app_utils_mutex_delete.xx_msg_const.66
	0x4303c1fc		app_thread_context_reset.xx_msg_const
	0x4303c20c		app_thread_context_reset.xx_msg_const.67
	0x4303c21c		app_thread_context_init.xx_msg_const.70
	0x4303c22c		app_thread_context_init.xx_msg_const.71
	0x4303c23c		app_thread_context_init.xx_msg_const.73
	0x4303c24c		app_thread_context_init.xx_msg_const.74
	0x4303c25c		app_thread_context_deinit.xx_msg_const
	0x4303c26c		app_thread_context_deinit.xx_msg_const.75
.rodata.str1.1	0x4303c27c	0x18	src\build\aware_client\app_utils_list.o	#SHT_PROGBITS,SHF_ALLOC|SHF_MERGE|SHF_STRINGS,1
	0x4303c27c		.L.str
.rodata.str1.1	0x4303c294	0x2b	src\build\aware_client\app_utils_list.o	#SHT_PROGBITS,SHF_ALLOC|SHF_MERGE|SHF_STRINGS,1
	0x4303c294		.L.str.2
.rodata.str1.1	0x4303c2bf	0x26	src\build\aware_client\app_utils_list.o	#SHT_PROGBITS,SHF_ALLOC|SHF_MERGE|SHF_STRINGS,1
	0x4303c2bf		.L.str.4
.rodata.str1.1	0x4303c2e5	0x19	src\build\aware_client\app_utils_list.o	#SHT_PROGBITS,SHF_ALLOC|SHF_MERGE|SHF_STRINGS,1
	0x4303c2e5		.L.str.9
.rodata.str1.1	0x4303c2fe	0x20	src\build\aware_client\app_utils_list.o	#SHT_PROGBITS,SHF_ALLOC|SHF_MERGE|SHF_STRINGS,1
	0x4303c2fe		.L.str.12
.rodata.str1.1	0x4303c31e	0x2e	src\build\aware_client\app_utils_list.o	#SHT_PROGBITS,SHF_ALLOC|SHF_MERGE|SHF_STRINGS,1
	0x4303c31e		.L.str.20
.rodata	0x4303c34c	0x160	src\build\aware_client\app_utils_list.o	#SHT_PROGBITS,SHF_ALLOC,4
	0x4303c34c		app_utils_list_init.xx_msg_const
	0x4303c35c		app_utils_list_init.xx_msg_const.3
	0x4303c36c		app_utils_list_init.xx_msg_const.5
	0x4303c37c		app_utils_list_init.xx_msg_const.6
	0x4303c38c		app_utils_list_destroy.xx_msg_const
	0x4303c39c		app_utils_list_destroy.xx_msg_const.7
	0x4303c3ac		app_utils_list_add.xx_msg_const
	0x4303c3bc		app_utils_list_add.xx_msg_const.8
	0x4303c3cc		app_utils_list_add.xx_msg_const.10
	0x4303c3dc		app_utils_list_add.xx_msg_const.11
	0x4303c3ec		app_utils_list_add.xx_msg_const.13
	0x4303c3fc		app_utils_list_add.xx_msg_const.14
	0x4303c40c		app_utils_list_remove.xx_msg_const
	0x4303c41c		app_utils_list_remove.xx_msg_const.15
	0x4303c42c		app_utils_list_remove.xx_msg_const.16
	0x4303c43c		app_utils_list_remove.xx_msg_const.17
	0x4303c44c		app_utils_list_empty.xx_msg_const
	0x4303c45c		app_utils_list_empty.xx_msg_const.18
	0x4303c46c		app_utils_list_flush.xx_msg_const
	0x4303c47c		app_utils_list_flush.xx_msg_const.19
	0x4303c48c		app_utils_list_search.xx_msg_const
	0x4303c49c		app_utils_list_search.xx_msg_const.21
.rodata.str1.1	0x4303c4ac	0x1	src\build\aware_client\app_utils_log.o	#SHT_PROGBITS,SHF_ALLOC|SHF_MERGE|SHF_STRINGS,1
	0x4303c4ac		.L.str
.rodata.str1.1	0x4303c4ad	0x6	src\build\aware_client\app_utils_log.o	#SHT_PROGBITS,SHF_ALLOC|SHF_MERGE|SHF_STRINGS,1
	0x4303c4ad		.L.str.1
.rodata.str1.1	0x4303c4b3	0x6	src\build\aware_client\app_utils_log.o	#SHT_PROGBITS,SHF_ALLOC|SHF_MERGE|SHF_STRINGS,1
	0x4303c4b3		.L.str.2
.rodata.str1.1	0x4303c4b9	0x1f	src\build\aware_client\app_utils_log.o	#SHT_PROGBITS,SHF_ALLOC|SHF_MERGE|SHF_STRINGS,1
	0x4303c4b9		.L.str.3
.rodata.str1.1	0x4303c4d8	0x2a	src\build\aware_client\app_utils_log.o	#SHT_PROGBITS,SHF_ALLOC|SHF_MERGE|SHF_STRINGS,1
	0x4303c4d8		.L.str.5
.rodata.str1.1	0x4303c502	0x10	src\build\aware_client\app_utils_log.o	#SHT_PROGBITS,SHF_ALLOC|SHF_MERGE|SHF_STRINGS,1
	0x4303c502		.L.str.7
.rodata.str1.1	0x4303c512	0x11	src\build\aware_client\app_utils_log.o	#SHT_PROGBITS,SHF_ALLOC|SHF_MERGE|SHF_STRINGS,1
	0x4303c512		.L.str.10
.rodata.str1.1	0x4303c523	0x28	src\build\aware_client\app_utils_log.o	#SHT_PROGBITS,SHF_ALLOC|SHF_MERGE|SHF_STRINGS,1
	0x4303c523		.L.str.13
.rodata.str1.1	0x4303c54b	0x10	src\build\aware_client\app_utils_log.o	#SHT_PROGBITS,SHF_ALLOC|SHF_MERGE|SHF_STRINGS,1
	0x4303c54b		.L.str.16
.rodata.str1.1	0x4303c55b	0x14	src\build\aware_client\app_utils_log.o	#SHT_PROGBITS,SHF_ALLOC|SHF_MERGE|SHF_STRINGS,1
	0x4303c55b		.L.str.19
.rodata.str1.1	0x4303c56f	0x19	src\build\aware_client\app_utils_log.o	#SHT_PROGBITS,SHF_ALLOC|SHF_MERGE|SHF_STRINGS,1
	0x4303c56f		.L.str.22
.rodata.str1.1	0x4303c588	0xd	src\build\aware_client\app_utils_log.o	#SHT_PROGBITS,SHF_ALLOC|SHF_MERGE|SHF_STRINGS,1
	0x4303c588		.L.str.25
.rodata.str1.1	0x4303c595	0x16	src\build\aware_client\app_utils_log.o	#SHT_PROGBITS,SHF_ALLOC|SHF_MERGE|SHF_STRINGS,1
	0x4303c595		.L.str.28
.rodata.str1.1	0x4303c5ab	0xf	src\build\aware_client\app_utils_log.o	#SHT_PROGBITS,SHF_ALLOC|SHF_MERGE|SHF_STRINGS,1
	0x4303c5ab		.L.str.31
.rodata.str1.1	0x4303c5ba	0x18	src\build\aware_client\app_utils_log.o	#SHT_PROGBITS,SHF_ALLOC|SHF_MERGE|SHF_STRINGS,1
	0x4303c5ba		.L.str.34
.rodata.str1.1	0x4303c5d2	0x10	src\build\aware_client\app_utils_log.o	#SHT_PROGBITS,SHF_ALLOC|SHF_MERGE|SHF_STRINGS,1
	0x4303c5d2		.L.str.37
.rodata.str1.1	0x4303c5e2	0x19	src\build\aware_client\app_utils_log.o	#SHT_PROGBITS,SHF_ALLOC|SHF_MERGE|SHF_STRINGS,1
	0x4303c5e2		.L.str.40
.rodata.str1.1	0x4303c5fb	0x19	src\build\aware_client\app_utils_log.o	#SHT_PROGBITS,SHF_ALLOC|SHF_MERGE|SHF_STRINGS,1
	0x4303c5fb		.L.str.43
.rodata.str1.1	0x4303c614	0x22	src\build\aware_client\app_utils_log.o	#SHT_PROGBITS,SHF_ALLOC|SHF_MERGE|SHF_STRINGS,1
	0x4303c614		.L.str.46
.rodata.str1.1	0x4303c636	0x16	src\build\aware_client\app_utils_log.o	#SHT_PROGBITS,SHF_ALLOC|SHF_MERGE|SHF_STRINGS,1
	0x4303c636		.L.str.49
.rodata.str1.1	0x4303c64c	0x1f	src\build\aware_client\app_utils_log.o	#SHT_PROGBITS,SHF_ALLOC|SHF_MERGE|SHF_STRINGS,1
	0x4303c64c		.L.str.52
.rodata.str1.1	0x4303c66b	0x18	src\build\aware_client\app_utils_log.o	#SHT_PROGBITS,SHF_ALLOC|SHF_MERGE|SHF_STRINGS,1
	0x4303c66b		.L.str.55
.rodata.str1.1	0x4303c683	0x21	src\build\aware_client\app_utils_log.o	#SHT_PROGBITS,SHF_ALLOC|SHF_MERGE|SHF_STRINGS,1
	0x4303c683		.L.str.58
.rodata.str1.1	0x4303c6a4	0x12	src\build\aware_client\app_utils_log.o	#SHT_PROGBITS,SHF_ALLOC|SHF_MERGE|SHF_STRINGS,1
	0x4303c6a4		.L.str.61
.rodata.str1.1	0x4303c6b6	0x15	src\build\aware_client\app_utils_log.o	#SHT_PROGBITS,SHF_ALLOC|SHF_MERGE|SHF_STRINGS,1
	0x4303c6b6		.L.str.63
.rodata.str1.1	0x4303c6cb	0x18	src\build\aware_client\app_utils_log.o	#SHT_PROGBITS,SHF_ALLOC|SHF_MERGE|SHF_STRINGS,1
	0x4303c6cb		.L.str.66
PADDING_ALIGNMENT	0x4303c6e3	0x1	0x0
.rodata	0x4303c6e4	0x2c0	src\build\aware_client\app_utils_log.o	#SHT_PROGBITS,SHF_ALLOC,4
	0x4303c6e4		app_utils_log_location.xx_msg_const
	0x4303c6f4		app_utils_log_location.xx_msg_const.6
	0x4303c704		app_utils_log_location.xx_msg_const.8
	0x4303c714		app_utils_log_location.xx_msg_const.9
	0x4303c724		app_utils_log_location.xx_msg_const.11
	0x4303c734		app_utils_log_location.xx_msg_const.12
	0x4303c744		app_utils_log_location.xx_msg_const.14
	0x4303c754		app_utils_log_location.xx_msg_const.15
	0x4303c764		app_utils_log_location.xx_msg_const.17
	0x4303c774		app_utils_log_location.xx_msg_const.18
	0x4303c784		app_utils_log_location.xx_msg_const.20
	0x4303c794		app_utils_log_location.xx_msg_const.21
	0x4303c7a4		app_utils_log_location.xx_msg_const.23
	0x4303c7b4		app_utils_log_location.xx_msg_const.24
	0x4303c7c4		app_utils_log_location.xx_msg_const.26
	0x4303c7d4		app_utils_log_location.xx_msg_const.27
	0x4303c7e4		app_utils_log_location.xx_msg_const.29
	0x4303c7f4		app_utils_log_location.xx_msg_const.30
	0x4303c804		app_utils_log_location.xx_msg_const.32
	0x4303c814		app_utils_log_location.xx_msg_const.33
	0x4303c824		app_utils_log_location.xx_msg_const.35
	0x4303c834		app_utils_log_location.xx_msg_const.36
	0x4303c844		app_utils_log_location.xx_msg_const.38
	0x4303c854		app_utils_log_location.xx_msg_const.39
	0x4303c864		app_utils_log_location.xx_msg_const.41
	0x4303c874		app_utils_log_location.xx_msg_const.42
	0x4303c884		app_utils_log_location.xx_msg_const.44
	0x4303c894		app_utils_log_location.xx_msg_const.45
	0x4303c8a4		app_utils_log_location.xx_msg_const.47
	0x4303c8b4		app_utils_log_location.xx_msg_const.48
	0x4303c8c4		app_utils_log_location.xx_msg_const.50
	0x4303c8d4		app_utils_log_location.xx_msg_const.51
	0x4303c8e4		app_utils_log_location.xx_msg_const.53
	0x4303c8f4		app_utils_log_location.xx_msg_const.54
	0x4303c904		app_utils_log_location.xx_msg_const.56
	0x4303c914		app_utils_log_location.xx_msg_const.57
	0x4303c924		app_utils_log_location.xx_msg_const.59
	0x4303c934		app_utils_log_location.xx_msg_const.60
	0x4303c944		app_utils_log_gtpdata.xx_msg_const
	0x4303c954		app_utils_log_gtpdata.xx_msg_const.62
	0x4303c964		app_utils_log_gtpdata.xx_msg_const.64
	0x4303c974		app_utils_log_gtpdata.xx_msg_const.65
	0x4303c984		app_utils_log_nmea.xx_msg_const
	0x4303c994		app_utils_log_nmea.xx_msg_const.67
.rodata.str1.1	0x4303c9a4	0x29	src\build\aware_client\app_utils_mem.o	#SHT_PROGBITS,SHF_ALLOC|SHF_MERGE|SHF_STRINGS,1
	0x4303c9a4		.L.str
.rodata.str1.1	0x4303c9cd	0x2a	src\build\aware_client\app_utils_mem.o	#SHT_PROGBITS,SHF_ALLOC|SHF_MERGE|SHF_STRINGS,1
	0x4303c9cd		.L.str.2
.rodata.str1.1	0x4303c9f7	0x1a	src\build\aware_client\app_utils_mem.o	#SHT_PROGBITS,SHF_ALLOC|SHF_MERGE|SHF_STRINGS,1
	0x4303c9f7		.L.str.4
.rodata.str1.1	0x4303ca11	0x22	src\build\aware_client\app_utils_mem.o	#SHT_PROGBITS,SHF_ALLOC|SHF_MERGE|SHF_STRINGS,1
	0x4303ca11		.L.str.5
.rodata.str1.1	0x4303ca33	0x20	src\build\aware_client\app_utils_mem.o	#SHT_PROGBITS,SHF_ALLOC|SHF_MERGE|SHF_STRINGS,1
	0x4303ca33		.L.str.8
.rodata.str1.1	0x4303ca53	0x14	src\build\aware_client\app_utils_mem.o	#SHT_PROGBITS,SHF_ALLOC|SHF_MERGE|SHF_STRINGS,1
	0x4303ca53		.L.str.11
.rodata.str1.1	0x4303ca67	0x13	src\build\aware_client\app_utils_mem.o	#SHT_PROGBITS,SHF_ALLOC|SHF_MERGE|SHF_STRINGS,1
	0x4303ca67		.L.str.13
PADDING_ALIGNMENT	0x4303ca7a	0x2	0x0
.rodata	0x4303ca7c	0xa0	src\build\aware_client\app_utils_mem.o	#SHT_PROGBITS,SHF_ALLOC,4
	0x4303ca7c		app_utils_byte_create_pool.xx_msg_const
	0x4303ca8c		app_utils_byte_create_pool.xx_msg_const.3
	0x4303ca9c		app_utils_byte_create_pool.xx_msg_const.6
	0x4303caac		app_utils_byte_create_pool.xx_msg_const.7
	0x4303cabc		app_utils_byte_create_pool.xx_msg_const.9
	0x4303cacc		app_utils_byte_create_pool.xx_msg_const.10
	0x4303cadc		app_utils_byte_release.xx_msg_const
	0x4303caec		app_utils_byte_release.xx_msg_const.12
	0x4303cafc		app_utils_get_byte_pool.xx_msg_const
	0x4303cb0c		app_utils_get_byte_pool.xx_msg_const.14
.rodata.str1.1	0x4303cb1c	0x3	src\build\aware_client\app_utils_str.o	#SHT_PROGBITS,SHF_ALLOC|SHF_MERGE|SHF_STRINGS,1
	0x4303cb1c		.L.str
.rodata.str1.1	0x4303cb1f	0x2a	src\build\aware_client\app_utils_str.o	#SHT_PROGBITS,SHF_ALLOC|SHF_MERGE|SHF_STRINGS,1
	0x4303cb1f		.L.str.2
PADDING_ALIGNMENT	0x4303cb49	0x3	0x0
.rodata	0x4303cb4c	0x20	src\build\aware_client\app_utils_str.o	#SHT_PROGBITS,SHF_ALLOC,4
	0x4303cb4c		print_byte_array.xx_msg_const
	0x4303cb5c		print_byte_array.xx_msg_const.3
.rodata.str1.1	0x4303cb6c	0x1a	src\build\aware_client\app_utils_time.o	#SHT_PROGBITS,SHF_ALLOC|SHF_MERGE|SHF_STRINGS,1
	0x4303cb6c		.L.str
.rodata.str1.1	0x4303cb86	0x2b	src\build\aware_client\app_utils_time.o	#SHT_PROGBITS,SHF_ALLOC|SHF_MERGE|SHF_STRINGS,1
	0x4303cb86		.L.str.2
.rodata.str1.1	0x4303cbb1	0x17	src\build\aware_client\app_utils_time.o	#SHT_PROGBITS,SHF_ALLOC|SHF_MERGE|SHF_STRINGS,1
	0x4303cbb1		.L.str.4
.rodata.str1.1	0x4303cbc8	0x22	src\build\aware_client\app_utils_time.o	#SHT_PROGBITS,SHF_ALLOC|SHF_MERGE|SHF_STRINGS,1
	0x4303cbc8		.L.str.7
.rodata.str1.1	0x4303cbea	0x17	src\build\aware_client\app_utils_time.o	#SHT_PROGBITS,SHF_ALLOC|SHF_MERGE|SHF_STRINGS,1
	0x4303cbea		.L.str.9
.rodata.str1.1	0x4303cc01	0x15	src\build\aware_client\app_utils_time.o	#SHT_PROGBITS,SHF_ALLOC|SHF_MERGE|SHF_STRINGS,1
	0x4303cc01		.L.str.12
PADDING_ALIGNMENT	0x4303cc16	0x2	0x0
.rodata	0x4303cc18	0xc0	src\build\aware_client\app_utils_time.o	#SHT_PROGBITS,SHF_ALLOC,4
	0x4303cc18		app_utils_timer_init.xx_msg_const
	0x4303cc28		app_utils_timer_init.xx_msg_const.3
	0x4303cc38		app_utils_timer_init.xx_msg_const.5
	0x4303cc48		app_utils_timer_init.xx_msg_const.6
	0x4303cc58		app_utils_timer_start.xx_msg_const
	0x4303cc68		app_utils_timer_start.xx_msg_const.8
	0x4303cc78		app_utils_timer_start.xx_msg_const.10
	0x4303cc88		app_utils_timer_start.xx_msg_const.11
	0x4303cc98		app_utils_timer_stop.xx_msg_const
	0x4303cca8		app_utils_timer_stop.xx_msg_const.13
	0x4303ccb8		app_utils_timer_delete.xx_msg_const
	0x4303ccc8		app_utils_timer_delete.xx_msg_const.14
.rodata.str1.1	0x4303ccd8	0xd	src\build\aware_client\aware_app.o	#SHT_PROGBITS,SHF_ALLOC|SHF_MERGE|SHF_STRINGS,1
	0x4303ccd8		.L.str
.rodata.str1.1	0x4303cce5	0x22	src\build\aware_client\aware_app.o	#SHT_PROGBITS,SHF_ALLOC|SHF_MERGE|SHF_STRINGS,1
	0x4303cce5		.L.str.1
.rodata.str1.1	0x4303cd07	0x26	src\build\aware_client\aware_app.o	#SHT_PROGBITS,SHF_ALLOC|SHF_MERGE|SHF_STRINGS,1
	0x4303cd07		.L.str.3
.rodata.str1.1	0x4303cd2d	0x2c	src\build\aware_client\aware_app.o	#SHT_PROGBITS,SHF_ALLOC|SHF_MERGE|SHF_STRINGS,1
	0x4303cd2d		.L.str.5
.rodata.str1.1	0x4303cd59	0xc	src\build\aware_client\aware_app.o	#SHT_PROGBITS,SHF_ALLOC|SHF_MERGE|SHF_STRINGS,1
	0x4303cd59		.L.str.6
.rodata.str1.1	0x4303cd65	0x9	src\build\aware_client\aware_app.o	#SHT_PROGBITS,SHF_ALLOC|SHF_MERGE|SHF_STRINGS,1
	0x4303cd65		.L.str.7
.rodata.str1.1	0x4303cd6e	0x2c	src\build\aware_client\aware_app.o	#SHT_PROGBITS,SHF_ALLOC|SHF_MERGE|SHF_STRINGS,1
	0x4303cd6e		.L.str.10
.rodata.str1.1	0x4303cd9a	0x33	src\build\aware_client\aware_app.o	#SHT_PROGBITS,SHF_ALLOC|SHF_MERGE|SHF_STRINGS,1
	0x4303cd9a		.L.str.13
.rodata.str1.1	0x4303cdcd	0x34	src\build\aware_client\aware_app.o	#SHT_PROGBITS,SHF_ALLOC|SHF_MERGE|SHF_STRINGS,1
	0x4303cdcd		.L.str.16
.rodata.str1.1	0x4303ce01	0x33	src\build\aware_client\aware_app.o	#SHT_PROGBITS,SHF_ALLOC|SHF_MERGE|SHF_STRINGS,1
	0x4303ce01		.L.str.19
.rodata.str1.1	0x4303ce34	0x29	src\build\aware_client\aware_app.o	#SHT_PROGBITS,SHF_ALLOC|SHF_MERGE|SHF_STRINGS,1
	0x4303ce34		.L.str.22
.rodata.str1.1	0x4303ce5d	0x19	src\build\aware_client\aware_app.o	#SHT_PROGBITS,SHF_ALLOC|SHF_MERGE|SHF_STRINGS,1
	0x4303ce5d		.L.str.35
.rodata.str1.1	0x4303ce76	0x28	src\build\aware_client\aware_app.o	#SHT_PROGBITS,SHF_ALLOC|SHF_MERGE|SHF_STRINGS,1
	0x4303ce76		.L.str.38
.rodata.str1.1	0x4303ce9e	0x1b	src\build\aware_client\aware_app.o	#SHT_PROGBITS,SHF_ALLOC|SHF_MERGE|SHF_STRINGS,1
	0x4303ce9e		.L.str.41
.rodata.str1.1	0x4303ceb9	0x27	src\build\aware_client\aware_app.o	#SHT_PROGBITS,SHF_ALLOC|SHF_MERGE|SHF_STRINGS,1
	0x4303ceb9		.L.str.44
.rodata.str1.1	0x4303cee0	0x15	src\build\aware_client\aware_app.o	#SHT_PROGBITS,SHF_ALLOC|SHF_MERGE|SHF_STRINGS,1
	0x4303cee0		.L.str.47
.rodata.str1.1	0x4303cef5	0x21	src\build\aware_client\aware_app.o	#SHT_PROGBITS,SHF_ALLOC|SHF_MERGE|SHF_STRINGS,1
	0x4303cef5		.L.str.50
.rodata.str1.1	0x4303cf16	0x19	src\build\aware_client\aware_app.o	#SHT_PROGBITS,SHF_ALLOC|SHF_MERGE|SHF_STRINGS,1
	0x4303cf16		.L.str.53
.rodata.str1.1	0x4303cf2f	0x25	src\build\aware_client\aware_app.o	#SHT_PROGBITS,SHF_ALLOC|SHF_MERGE|SHF_STRINGS,1
	0x4303cf2f		.L.str.56
.rodata.str1.1	0x4303cf54	0x1b	src\build\aware_client\aware_app.o	#SHT_PROGBITS,SHF_ALLOC|SHF_MERGE|SHF_STRINGS,1
	0x4303cf54		.L.str.59
.rodata.str1.1	0x4303cf6f	0x13	src\build\aware_client\aware_app.o	#SHT_PROGBITS,SHF_ALLOC|SHF_MERGE|SHF_STRINGS,1
	0x4303cf6f		.L.str.64
PADDING_ALIGNMENT	0x4303cf82	0x2	0x0
.rodata	0x4303cf84	0x2e0	src\build\aware_client\aware_app.o	#SHT_PROGBITS,SHF_ALLOC,4
	0x4303cf84		aware_dam_app_start.xx_msg_const
	0x4303cf94		aware_dam_app_start.xx_msg_const.4
	0x4303cfa4		aware_dam_app_start.xx_msg_const.8
	0x4303cfb4		aware_dam_app_start.xx_msg_const.9
	0x4303cfc4		aware_dam_app_start.xx_msg_const.11
	0x4303cfd4		aware_dam_app_start.xx_msg_const.12
	0x4303cfe4		aware_dam_app_start.xx_msg_const.14
	0x4303cff4		aware_dam_app_start.xx_msg_const.15
	0x4303d004		aware_dam_app_start.xx_msg_const.17
	0x4303d014		aware_dam_app_start.xx_msg_const.18
	0x4303d024		aware_dam_app_start.xx_msg_const.20
	0x4303d034		aware_dam_app_start.xx_msg_const.21
	0x4303d044		aware_dam_app_start.xx_msg_const.23
	0x4303d054		aware_dam_app_start.xx_msg_const.24
	0x4303d064		aware_dam_app_start.xx_msg_const.25
	0x4303d074		aware_dam_app_start.xx_msg_const.26
	0x4303d084		aware_dam_app_start.xx_msg_const.27
	0x4303d094		aware_dam_app_start.xx_msg_const.28
	0x4303d0a4		aware_dam_app_start.xx_msg_const.29
	0x4303d0b4		aware_dam_app_start.xx_msg_const.30
	0x4303d0c4		aware_dam_app_start.xx_msg_const.31
	0x4303d0d4		aware_dam_app_start.xx_msg_const.32
	0x4303d0e4		aware_dam_app_start.xx_msg_const.33
	0x4303d0f4		aware_dam_app_start.xx_msg_const.34
	0x4303d104		aware_dam_app_start.xx_msg_const.36
	0x4303d114		aware_dam_app_start.xx_msg_const.37
	0x4303d124		aware_dam_app_start.xx_msg_const.39
	0x4303d134		aware_dam_app_start.xx_msg_const.40
	0x4303d144		aware_dam_app_start.xx_msg_const.42
	0x4303d154		aware_dam_app_start.xx_msg_const.43
	0x4303d164		aware_dam_app_start.xx_msg_const.45
	0x4303d174		aware_dam_app_start.xx_msg_const.46
	0x4303d184		aware_dam_app_start.xx_msg_const.48
	0x4303d194		aware_dam_app_start.xx_msg_const.49
	0x4303d1a4		aware_dam_app_start.xx_msg_const.51
	0x4303d1b4		aware_dam_app_start.xx_msg_const.52
	0x4303d1c4		aware_dam_app_start.xx_msg_const.54
	0x4303d1d4		aware_dam_app_start.xx_msg_const.55
	0x4303d1e4		aware_dam_app_start.xx_msg_const.57
	0x4303d1f4		aware_dam_app_start.xx_msg_const.58
	0x4303d204		aware_dam_app_start.xx_msg_const.60
	0x4303d214		aware_dam_app_start.xx_msg_const.61
	0x4303d224		aware_dam_app_start.xx_msg_const.62
	0x4303d234		aware_dam_app_start.xx_msg_const.63
	0x4303d244		aware_dam_app_start.xx_msg_const.65
	0x4303d254		aware_dam_app_start.xx_msg_const.66
.rodata.str1.1	0x4303d264	0x2b	src\build\aware_client\aware_app_state.o	#SHT_PROGBITS,SHF_ALLOC|SHF_MERGE|SHF_STRINGS,1
	0x4303d264		.L.str
.rodata.str1.1	0x4303d28f	0x2c	src\build\aware_client\aware_app_state.o	#SHT_PROGBITS,SHF_ALLOC|SHF_MERGE|SHF_STRINGS,1
	0x4303d28f		.L.str.2
.rodata.str1.1	0x4303d2bb	0x2c	src\build\aware_client\aware_app_state.o	#SHT_PROGBITS,SHF_ALLOC|SHF_MERGE|SHF_STRINGS,1
	0x4303d2bb		.L.str.4
.rodata.str1.1	0x4303d2e7	0x26	src\build\aware_client\aware_app_state.o	#SHT_PROGBITS,SHF_ALLOC|SHF_MERGE|SHF_STRINGS,1
	0x4303d2e7		.L.str.7
.rodata.str1.1	0x4303d30d	0x2f	src\build\aware_client\aware_app_state.o	#SHT_PROGBITS,SHF_ALLOC|SHF_MERGE|SHF_STRINGS,1
	0x4303d30d		.L.str.10
.rodata.str1.1	0x4303d33c	0x25	src\build\aware_client\aware_app_state.o	#SHT_PROGBITS,SHF_ALLOC|SHF_MERGE|SHF_STRINGS,1
	0x4303d33c		.L.str.13
.rodata.str1.1	0x4303d361	0x20	src\build\aware_client\aware_app_state.o	#SHT_PROGBITS,SHF_ALLOC|SHF_MERGE|SHF_STRINGS,1
	0x4303d361		.L.str.16
.rodata.str1.1	0x4303d381	0x26	src\build\aware_client\aware_app_state.o	#SHT_PROGBITS,SHF_ALLOC|SHF_MERGE|SHF_STRINGS,1
	0x4303d381		.L.str.18
.rodata.str1.1	0x4303d3a7	0x24	src\build\aware_client\aware_app_state.o	#SHT_PROGBITS,SHF_ALLOC|SHF_MERGE|SHF_STRINGS,1
	0x4303d3a7		.L.str.21
.rodata.str1.1	0x4303d3cb	0x24	src\build\aware_client\aware_app_state.o	#SHT_PROGBITS,SHF_ALLOC|SHF_MERGE|SHF_STRINGS,1
	0x4303d3cb		.L.str.24
.rodata.str1.1	0x4303d3ef	0x29	src\build\aware_client\aware_app_state.o	#SHT_PROGBITS,SHF_ALLOC|SHF_MERGE|SHF_STRINGS,1
	0x4303d3ef		.L.str.27
.rodata.str1.1	0x4303d418	0x28	src\build\aware_client\aware_app_state.o	#SHT_PROGBITS,SHF_ALLOC|SHF_MERGE|SHF_STRINGS,1
	0x4303d418		.L.str.30
.rodata.str1.1	0x4303d440	0x22	src\build\aware_client\aware_app_state.o	#SHT_PROGBITS,SHF_ALLOC|SHF_MERGE|SHF_STRINGS,1
	0x4303d440		.L.str.33
.rodata.str1.1	0x4303d462	0x1f	src\build\aware_client\aware_app_state.o	#SHT_PROGBITS,SHF_ALLOC|SHF_MERGE|SHF_STRINGS,1
	0x4303d462		.L.str.36
.rodata.str1.1	0x4303d481	0x24	src\build\aware_client\aware_app_state.o	#SHT_PROGBITS,SHF_ALLOC|SHF_MERGE|SHF_STRINGS,1
	0x4303d481		.L.str.38
.rodata.str1.1	0x4303d4a5	0x35	src\build\aware_client\aware_app_state.o	#SHT_PROGBITS,SHF_ALLOC|SHF_MERGE|SHF_STRINGS,1
	0x4303d4a5		.L.str.41
.rodata.str1.1	0x4303d4da	0x1d	src\build\aware_client\aware_app_state.o	#SHT_PROGBITS,SHF_ALLOC|SHF_MERGE|SHF_STRINGS,1
	0x4303d4da		.L.str.44
.rodata.str1.1	0x4303d4f7	0x25	src\build\aware_client\aware_app_state.o	#SHT_PROGBITS,SHF_ALLOC|SHF_MERGE|SHF_STRINGS,1
	0x4303d4f7		.L.str.47
.rodata.str1.1	0x4303d51c	0x1e	src\build\aware_client\aware_app_state.o	#SHT_PROGBITS,SHF_ALLOC|SHF_MERGE|SHF_STRINGS,1
	0x4303d51c		.L.str.50
.rodata.str1.1	0x4303d53a	0x1e	src\build\aware_client\aware_app_state.o	#SHT_PROGBITS,SHF_ALLOC|SHF_MERGE|SHF_STRINGS,1
	0x4303d53a		.L.str.52
.rodata.str1.1	0x4303d558	0x1e	src\build\aware_client\aware_app_state.o	#SHT_PROGBITS,SHF_ALLOC|SHF_MERGE|SHF_STRINGS,1
	0x4303d558		.L.str.55
.rodata.str1.1	0x4303d576	0x21	src\build\aware_client\aware_app_state.o	#SHT_PROGBITS,SHF_ALLOC|SHF_MERGE|SHF_STRINGS,1
	0x4303d576		.L.str.58
.rodata.str1.1	0x4303d597	0x21	src\build\aware_client\aware_app_state.o	#SHT_PROGBITS,SHF_ALLOC|SHF_MERGE|SHF_STRINGS,1
	0x4303d597		.L.str.61
.rodata.str1.1	0x4303d5b8	0x21	src\build\aware_client\aware_app_state.o	#SHT_PROGBITS,SHF_ALLOC|SHF_MERGE|SHF_STRINGS,1
	0x4303d5b8		.L.str.64
PADDING_ALIGNMENT	0x4303d5d9	0x3	0x0
.rodata	0x4303d5dc	0x2e0	src\build\aware_client\aware_app_state.o	#SHT_PROGBITS,SHF_ALLOC,4
	0x4303d5dc		set_fota_state.xx_msg_const
	0x4303d5ec		set_fota_state.xx_msg_const.3
	0x4303d5fc		set_fota_state.xx_msg_const.5
	0x4303d60c		set_fota_state.xx_msg_const.6
	0x4303d61c		set_fota_state.xx_msg_const.8
	0x4303d62c		set_fota_state.xx_msg_const.9
	0x4303d63c		set_fota_state.xx_msg_const.11
	0x4303d64c		set_fota_state.xx_msg_const.12
	0x4303d65c		set_fota_state.xx_msg_const.14
	0x4303d66c		set_fota_state.xx_msg_const.15
	0x4303d67c		set_device_state.xx_msg_const
	0x4303d68c		set_device_state.xx_msg_const.17
	0x4303d69c		set_device_state.xx_msg_const.19
	0x4303d6ac		set_device_state.xx_msg_const.20
	0x4303d6bc		set_device_state.xx_msg_const.22
	0x4303d6cc		set_device_state.xx_msg_const.23
	0x4303d6dc		set_device_state.xx_msg_const.25
	0x4303d6ec		set_device_state.xx_msg_const.26
	0x4303d6fc		set_device_state.xx_msg_const.28
	0x4303d70c		set_device_state.xx_msg_const.29
	0x4303d71c		set_device_state.xx_msg_const.31
	0x4303d72c		set_device_state.xx_msg_const.32
	0x4303d73c		set_device_state.xx_msg_const.34
	0x4303d74c		set_device_state.xx_msg_const.35
	0x4303d75c		set_app_state.xx_msg_const
	0x4303d76c		set_app_state.xx_msg_const.37
	0x4303d77c		set_app_state.xx_msg_const.39
	0x4303d78c		set_app_state.xx_msg_const.40
	0x4303d79c		set_app_state.xx_msg_const.42
	0x4303d7ac		set_app_state.xx_msg_const.43
	0x4303d7bc		set_app_state.xx_msg_const.45
	0x4303d7cc		set_app_state.xx_msg_const.46
	0x4303d7dc		set_app_state.xx_msg_const.48
	0x4303d7ec		set_app_state.xx_msg_const.49
	0x4303d7fc		set_app_mode.xx_msg_const
	0x4303d80c		set_app_mode.xx_msg_const.51
	0x4303d81c		set_app_mode.xx_msg_const.53
	0x4303d82c		set_app_mode.xx_msg_const.54
	0x4303d83c		set_app_mode.xx_msg_const.56
	0x4303d84c		set_app_mode.xx_msg_const.57
	0x4303d85c		set_app_mode.xx_msg_const.59
	0x4303d86c		set_app_mode.xx_msg_const.60
	0x4303d87c		set_app_mode.xx_msg_const.62
	0x4303d88c		set_app_mode.xx_msg_const.63
	0x4303d89c		set_app_mode.xx_msg_const.65
	0x4303d8ac		set_app_mode.xx_msg_const.66
.rodata.str1.1	0x4303d8bc	0x20	src\build\aware_client\aware_device_info.o	#SHT_PROGBITS,SHF_ALLOC|SHF_MERGE|SHF_STRINGS,1
	0x4303d8bc		.L.str
.rodata.str1.1	0x4303d8dc	0x2e	src\build\aware_client\aware_device_info.o	#SHT_PROGBITS,SHF_ALLOC|SHF_MERGE|SHF_STRINGS,1
	0x4303d8dc		.L.str.2
PADDING_ALIGNMENT	0x4303d90a	0x2	0x0
.rodata	0x4303d90c	0x20	src\build\aware_client\aware_device_info.o	#SHT_PROGBITS,SHF_ALLOC,4
	0x4303d90c		get_aware_device_info.xx_msg_const
	0x4303d91c		get_aware_device_info.xx_msg_const.3
.rodata.str1.1	0x4303d92c	0x1d	src\build\aware_client\aware_health_check.o	#SHT_PROGBITS,SHF_ALLOC|SHF_MERGE|SHF_STRINGS,1
	0x4303d92c		.L.str
.rodata.str1.1	0x4303d949	0x2f	src\build\aware_client\aware_health_check.o	#SHT_PROGBITS,SHF_ALLOC|SHF_MERGE|SHF_STRINGS,1
	0x4303d949		.L.str.2
.rodata.str1.1	0x4303d978	0x3	src\build\aware_client\aware_health_check.o	#SHT_PROGBITS,SHF_ALLOC|SHF_MERGE|SHF_STRINGS,1
	0x4303d978		.L.str.4
.rodata.str1.1	0x4303d97b	0x3	src\build\aware_client\aware_health_check.o	#SHT_PROGBITS,SHF_ALLOC|SHF_MERGE|SHF_STRINGS,1
	0x4303d97b		.L.str.5
.rodata.str1.1	0x4303d97e	0x30	src\build\aware_client\aware_health_check.o	#SHT_PROGBITS,SHF_ALLOC|SHF_MERGE|SHF_STRINGS,1
	0x4303d97e		.L.str.6
.rodata.str1.1	0x4303d9ae	0x3e	src\build\aware_client\aware_health_check.o	#SHT_PROGBITS,SHF_ALLOC|SHF_MERGE|SHF_STRINGS,1
	0x4303d9ae		.L.str.9
.rodata.str1.1	0x4303d9ec	0x3e	src\build\aware_client\aware_health_check.o	#SHT_PROGBITS,SHF_ALLOC|SHF_MERGE|SHF_STRINGS,1
	0x4303d9ec		.L.str.11
.rodata.str1.1	0x4303da2a	0x13	src\build\aware_client\aware_health_check.o	#SHT_PROGBITS,SHF_ALLOC|SHF_MERGE|SHF_STRINGS,1
	0x4303da2a		.L.str.16
.rodata.str1.1	0x4303da3d	0x21	src\build\aware_client\aware_health_check.o	#SHT_PROGBITS,SHF_ALLOC|SHF_MERGE|SHF_STRINGS,1
	0x4303da3d		.L.str.17
.rodata.str1.1	0x4303da5e	0x27	src\build\aware_client\aware_health_check.o	#SHT_PROGBITS,SHF_ALLOC|SHF_MERGE|SHF_STRINGS,1
	0x4303da5e		.L.str.20
.rodata.str1.1	0x4303da85	0x13	src\build\aware_client\aware_health_check.o	#SHT_PROGBITS,SHF_ALLOC|SHF_MERGE|SHF_STRINGS,1
	0x4303da85		.L.str.23
.rodata.str1.1	0x4303da98	0x11	src\build\aware_client\aware_health_check.o	#SHT_PROGBITS,SHF_ALLOC|SHF_MERGE|SHF_STRINGS,1
	0x4303da98		.L.str.28
.rodata.str1.1	0x4303daa9	0x18	src\build\aware_client\aware_health_check.o	#SHT_PROGBITS,SHF_ALLOC|SHF_MERGE|SHF_STRINGS,1
	0x4303daa9		.L.str.33
.rodata.str1.1	0x4303dac1	0x21	src\build\aware_client\aware_health_check.o	#SHT_PROGBITS,SHF_ALLOC|SHF_MERGE|SHF_STRINGS,1
	0x4303dac1		.L.str.34
.rodata.str1.1	0x4303dae2	0x27	src\build\aware_client\aware_health_check.o	#SHT_PROGBITS,SHF_ALLOC|SHF_MERGE|SHF_STRINGS,1
	0x4303dae2		.L.str.37
.rodata.str1.1	0x4303db09	0x3	src\build\aware_client\aware_health_check.o	#SHT_PROGBITS,SHF_ALLOC|SHF_MERGE|SHF_STRINGS,1
	0x4303db09		.L.str.40
.rodata.str1.1	0x4303db0c	0x4	src\build\aware_client\aware_health_check.o	#SHT_PROGBITS,SHF_ALLOC|SHF_MERGE|SHF_STRINGS,1
	0x4303db0c		.L.str.41
.rodata.str1.1	0x4303db10	0x28	src\build\aware_client\aware_health_check.o	#SHT_PROGBITS,SHF_ALLOC|SHF_MERGE|SHF_STRINGS,1
	0x4303db10		.L.str.42
.rodata.str1.1	0x4303db38	0x44	src\build\aware_client\aware_health_check.o	#SHT_PROGBITS,SHF_ALLOC|SHF_MERGE|SHF_STRINGS,1
	0x4303db38		.L.str.45
.rodata.str1.1	0x4303db7c	0x22	src\build\aware_client\aware_health_check.o	#SHT_PROGBITS,SHF_ALLOC|SHF_MERGE|SHF_STRINGS,1
	0x4303db7c		.L.str.48
.rodata.str1.1	0x4303db9e	0x3f	src\build\aware_client\aware_health_check.o	#SHT_PROGBITS,SHF_ALLOC|SHF_MERGE|SHF_STRINGS,1
	0x4303db9e		.L.str.51
.rodata.str1.1	0x4303dbdd	0x21	src\build\aware_client\aware_health_check.o	#SHT_PROGBITS,SHF_ALLOC|SHF_MERGE|SHF_STRINGS,1
	0x4303dbdd		.L.str.54
.rodata.str1.1	0x4303dbfe	0x22	src\build\aware_client\aware_health_check.o	#SHT_PROGBITS,SHF_ALLOC|SHF_MERGE|SHF_STRINGS,1
	0x4303dbfe		.L.str.56
.rodata.str1.1	0x4303dc20	0x32	src\build\aware_client\aware_health_check.o	#SHT_PROGBITS,SHF_ALLOC|SHF_MERGE|SHF_STRINGS,1
	0x4303dc20		.L.str.59
.rodata.str1.1	0x4303dc52	0x3a	src\build\aware_client\aware_health_check.o	#SHT_PROGBITS,SHF_ALLOC|SHF_MERGE|SHF_STRINGS,1
	0x4303dc52		.L.str.62
.rodata.str1.1	0x4303dc8c	0x3f	src\build\aware_client\aware_health_check.o	#SHT_PROGBITS,SHF_ALLOC|SHF_MERGE|SHF_STRINGS,1
	0x4303dc8c		.L.str.65
.rodata.str1.1	0x4303dccb	0x29	src\build\aware_client\aware_health_check.o	#SHT_PROGBITS,SHF_ALLOC|SHF_MERGE|SHF_STRINGS,1
	0x4303dccb		.L.str.68
.rodata.str1.1	0x4303dcf4	0x21	src\build\aware_client\aware_health_check.o	#SHT_PROGBITS,SHF_ALLOC|SHF_MERGE|SHF_STRINGS,1
	0x4303dcf4		.L.str.71
.rodata.str1.1	0x4303dd15	0x1f	src\build\aware_client\aware_health_check.o	#SHT_PROGBITS,SHF_ALLOC|SHF_MERGE|SHF_STRINGS,1
	0x4303dd15		.L.str.74
.rodata.str1.1	0x4303dd34	0xf	src\build\aware_client\aware_health_check.o	#SHT_PROGBITS,SHF_ALLOC|SHF_MERGE|SHF_STRINGS,1
	0x4303dd34		.L.str.77
.rodata.str1.1	0x4303dd43	0x5a	src\build\aware_client\aware_health_check.o	#SHT_PROGBITS,SHF_ALLOC|SHF_MERGE|SHF_STRINGS,1
	0x4303dd43		.L.str.78
.rodata.str1.1	0x4303dd9d	0x56	src\build\aware_client\aware_health_check.o	#SHT_PROGBITS,SHF_ALLOC|SHF_MERGE|SHF_STRINGS,1
	0x4303dd9d		.L.str.80
.rodata.str1.1	0x4303ddf3	0x59	src\build\aware_client\aware_health_check.o	#SHT_PROGBITS,SHF_ALLOC|SHF_MERGE|SHF_STRINGS,1
	0x4303ddf3		.L.str.83
.rodata	0x4303de4c	0x380	src\build\aware_client\aware_health_check.o	#SHT_PROGBITS,SHF_ALLOC,4
	0x4303de4c		valid_config.xx_msg_const
	0x4303de5c		valid_config.xx_msg_const.3
	0x4303de6c		valid_config.xx_msg_const.7
	0x4303de7c		valid_config.xx_msg_const.8
	0x4303de8c		perform_health_check.xx_msg_const
	0x4303de9c		perform_health_check.xx_msg_const.10
	0x4303deac		perform_health_check.xx_msg_const.12
	0x4303debc		perform_health_check.xx_msg_const.13
	0x4303decc		perform_health_check.xx_msg_const.14
	0x4303dedc		perform_health_check.xx_msg_const.15
	0x4303deec		perform_health_check.xx_msg_const.18
	0x4303defc		perform_health_check.xx_msg_const.19
	0x4303df0c		perform_health_check.xx_msg_const.21
	0x4303df1c		perform_health_check.xx_msg_const.22
	0x4303df2c		perform_health_check.xx_msg_const.24
	0x4303df3c		perform_health_check.xx_msg_const.25
	0x4303df4c		perform_health_check.xx_msg_const.26
	0x4303df5c		perform_health_check.xx_msg_const.27
	0x4303df6c		perform_health_check.xx_msg_const.29
	0x4303df7c		perform_health_check.xx_msg_const.30
	0x4303df8c		perform_health_check.xx_msg_const.31
	0x4303df9c		perform_health_check.xx_msg_const.32
	0x4303dfac		perform_health_check.xx_msg_const.35
	0x4303dfbc		perform_health_check.xx_msg_const.36
	0x4303dfcc		perform_health_check.xx_msg_const.38
	0x4303dfdc		perform_health_check.xx_msg_const.39
	0x4303dfec		perform_health_check.xx_msg_const.43
	0x4303dffc		perform_health_check.xx_msg_const.44
	0x4303e00c		perform_health_check.xx_msg_const.46
	0x4303e01c		perform_health_check.xx_msg_const.47
	0x4303e02c		perform_health_check.xx_msg_const.49
	0x4303e03c		perform_health_check.xx_msg_const.50
	0x4303e04c		perform_health_check.xx_msg_const.52
	0x4303e05c		perform_health_check.xx_msg_const.53
	0x4303e06c		print_sim_status.xx_msg_const
	0x4303e07c		print_sim_status.xx_msg_const.55
	0x4303e08c		print_sim_status.xx_msg_const.57
	0x4303e09c		print_sim_status.xx_msg_const.58
	0x4303e0ac		print_sim_status.xx_msg_const.60
	0x4303e0bc		print_sim_status.xx_msg_const.61
	0x4303e0cc		print_sim_status.xx_msg_const.63
	0x4303e0dc		print_sim_status.xx_msg_const.64
	0x4303e0ec		print_sim_status.xx_msg_const.66
	0x4303e0fc		print_sim_status.xx_msg_const.67
	0x4303e10c		print_sim_status.xx_msg_const.69
	0x4303e11c		print_sim_status.xx_msg_const.70
	0x4303e12c		print_sim_status.xx_msg_const.72
	0x4303e13c		print_sim_status.xx_msg_const.73
	0x4303e14c		print_sim_status.xx_msg_const.75
	0x4303e15c		print_sim_status.xx_msg_const.76
	0x4303e16c		hc_log_to_file.xx_msg_const
	0x4303e17c		hc_log_to_file.xx_msg_const.79
	0x4303e18c		hc_log_to_file.xx_msg_const.81
	0x4303e19c		hc_log_to_file.xx_msg_const.82
	0x4303e1ac		hc_log_to_file.xx_msg_const.84
	0x4303e1bc		hc_log_to_file.xx_msg_const.85
.rodata.str1.1	0x4303e1cc	0x19	src\build\aware_client\aware_log.o	#SHT_PROGBITS,SHF_ALLOC|SHF_MERGE|SHF_STRINGS,1
	0x4303e1cc		.L.str
.rodata.str1.1	0x4303e1e5	0x1c	src\build\aware_client\aware_main_thread.o	#SHT_PROGBITS,SHF_ALLOC|SHF_MERGE|SHF_STRINGS,1
	0x4303e1e5		.L.str
.rodata.str1.1	0x4303e201	0x2e	src\build\aware_client\aware_main_thread.o	#SHT_PROGBITS,SHF_ALLOC|SHF_MERGE|SHF_STRINGS,1
	0x4303e201		.L.str.2
.rodata.str1.1	0x4303e22f	0x29	src\build\aware_client\aware_main_thread.o	#SHT_PROGBITS,SHF_ALLOC|SHF_MERGE|SHF_STRINGS,1
	0x4303e22f		.L.str.6
.rodata.str1.1	0x4303e258	0x12	src\build\aware_client\aware_main_thread.o	#SHT_PROGBITS,SHF_ALLOC|SHF_MERGE|SHF_STRINGS,1
	0x4303e258		.L.str.8
.rodata.str1.1	0x4303e26a	0x27	src\build\aware_client\aware_main_thread.o	#SHT_PROGBITS,SHF_ALLOC|SHF_MERGE|SHF_STRINGS,1
	0x4303e26a		.L.str.9
.rodata.str1.1	0x4303e291	0x11	src\build\aware_client\aware_main_thread.o	#SHT_PROGBITS,SHF_ALLOC|SHF_MERGE|SHF_STRINGS,1
	0x4303e291		.L.str.10
.rodata.str1.1	0x4303e2a2	0x32	src\build\aware_client\aware_main_thread.o	#SHT_PROGBITS,SHF_ALLOC|SHF_MERGE|SHF_STRINGS,1
	0x4303e2a2		.L.str.13
.rodata.str1.1	0x4303e2d4	0x10	src\build\aware_client\aware_main_thread.o	#SHT_PROGBITS,SHF_ALLOC|SHF_MERGE|SHF_STRINGS,1
	0x4303e2d4		.L.str.15
.rodata.str1.1	0x4303e2e4	0xf	src\build\aware_client\aware_main_thread.o	#SHT_PROGBITS,SHF_ALLOC|SHF_MERGE|SHF_STRINGS,1
	0x4303e2e4		.L.str.16
.rodata.str1.1	0x4303e2f3	0x6	src\build\aware_client\aware_main_thread.o	#SHT_PROGBITS,SHF_ALLOC|SHF_MERGE|SHF_STRINGS,1
	0x4303e2f3		.L.str.18
.rodata.str1.1	0x4303e2f9	0x23	src\build\aware_client\aware_main_thread.o	#SHT_PROGBITS,SHF_ALLOC|SHF_MERGE|SHF_STRINGS,1
	0x4303e2f9		.L.str.19
.rodata.str1.1	0x4303e31c	0xc	src\build\aware_client\aware_main_thread.o	#SHT_PROGBITS,SHF_ALLOC|SHF_MERGE|SHF_STRINGS,1
	0x4303e31c		.L.str.20
.rodata.str1.1	0x4303e328	0x23	src\build\aware_client\aware_main_thread.o	#SHT_PROGBITS,SHF_ALLOC|SHF_MERGE|SHF_STRINGS,1
	0x4303e328		.L.str.23
.rodata.str1.1	0x4303e34b	0x26	src\build\aware_client\aware_main_thread.o	#SHT_PROGBITS,SHF_ALLOC|SHF_MERGE|SHF_STRINGS,1
	0x4303e34b		.L.str.26
.rodata.str1.1	0x4303e371	0x8	src\build\aware_client\aware_main_thread.o	#SHT_PROGBITS,SHF_ALLOC|SHF_MERGE|SHF_STRINGS,1
	0x4303e371		.L.str.29
.rodata.str1.1	0x4303e379	0x8	src\build\aware_client\aware_main_thread.o	#SHT_PROGBITS,SHF_ALLOC|SHF_MERGE|SHF_STRINGS,1
	0x4303e379		.L.str.30
.rodata.str1.1	0x4303e381	0x8	src\build\aware_client\aware_main_thread.o	#SHT_PROGBITS,SHF_ALLOC|SHF_MERGE|SHF_STRINGS,1
	0x4303e381		.L.str.31
.rodata.str1.1	0x4303e389	0x19	src\build\aware_client\aware_main_thread.o	#SHT_PROGBITS,SHF_ALLOC|SHF_MERGE|SHF_STRINGS,1
	0x4303e389		.L.str.32
.rodata.str1.1	0x4303e3a2	0x21	src\build\aware_client\aware_main_thread.o	#SHT_PROGBITS,SHF_ALLOC|SHF_MERGE|SHF_STRINGS,1
	0x4303e3a2		.L.str.34
.rodata.str1.1	0x4303e3c3	0x8	src\build\aware_client\aware_main_thread.o	#SHT_PROGBITS,SHF_ALLOC|SHF_MERGE|SHF_STRINGS,1
	0x4303e3c3		.L.str.35
.rodata.str1.1	0x4303e3cb	0x21	src\build\aware_client\aware_main_thread.o	#SHT_PROGBITS,SHF_ALLOC|SHF_MERGE|SHF_STRINGS,1
	0x4303e3cb		.L.str.37
.rodata	0x4303e3ec	0x1b0	src\build\aware_client\aware_main_thread.o	#SHT_PROGBITS,SHF_ALLOC,4
	0x4303e3ec		aware_main_thread_send_msg_report_location.xx_msg_const
	0x4303e3fc		aware_main_thread_send_msg_report_location.xx_msg_const.3
	0x4303e40c		aware_main_thread_send_msg_report_gtpdata.xx_msg_const
	0x4303e41c		aware_main_thread_send_msg_report_gtpdata.xx_msg_const.4
	0x4303e42c		aware_main_thread_send_msg_report_sensor_data.xx_msg_const
	0x4303e43c		aware_main_thread_send_msg_report_sensor_data.xx_msg_const.5
	0x4303e44c		aware_main_thread_task_entry.xx_msg_const
	0x4303e45c		aware_main_thread_task_entry.xx_msg_const.7
	0x4303e46c		_aware_main_thread_process_msg.xx_msg_const
	0x4303e47c		_aware_main_thread_process_msg.xx_msg_const.11
	0x4303e48c		_aware_main_thread_process_msg.xx_msg_const.12
	0x4303e49c		_aware_main_thread_process_msg.xx_msg_const.14
	0x4303e4ac		_aware_main_thread_handle_msg_init.xx_msg_const
	0x4303e4bc		periodic_checkin_timer_expiry_cb.xx_msg_const
	0x4303e4cc		periodic_checkin_timer_expiry_cb.xx_msg_const.17
	0x4303e4dc		_aware_main_thread_handle_msg_report_location.xx_msg_const
	0x4303e4ec		_aware_main_thread_handle_msg_report_location.xx_msg_const.21
	0x4303e4fc		_aware_main_thread_handle_msg_report_location.xx_msg_const.22
	0x4303e50c		_aware_main_thread_handle_msg_report_gtpdata.xx_msg_const
	0x4303e51c		_aware_main_thread_handle_msg_report_gtpdata.xx_msg_const.24
	0x4303e52c		_aware_main_thread_handle_msg_report_gtpdata.xx_msg_const.25
	0x4303e53c		_aware_main_thread_handle_msg_report_sensor_data.xx_msg_const
	0x4303e54c		_aware_main_thread_handle_msg_report_sensor_data.xx_msg_const.27
	0x4303e55c		_aware_main_thread_handle_msg_report_sensor_data.xx_msg_const.28
	0x4303e56c		_aware_main_thread_handle_msg_report_sensor_data.xx_msg_const.33
	0x4303e57c		_aware_main_thread_handle_msg_config_update.xx_msg_const
	0x4303e58c		_aware_main_thread_handle_msg_config_update.xx_msg_const.38
.rodata.str1.1	0x4303e59c	0x20	src\build\aware_client\aware_psm.o	#SHT_PROGBITS,SHF_ALLOC|SHF_MERGE|SHF_STRINGS,1
	0x4303e59c		.L.str
.rodata.str1.1	0x4303e5bc	0x26	src\build\aware_client\aware_psm.o	#SHT_PROGBITS,SHF_ALLOC|SHF_MERGE|SHF_STRINGS,1
	0x4303e5bc		.L.str.2
.rodata.str1.1	0x4303e5e2	0x21	src\build\aware_client\aware_psm.o	#SHT_PROGBITS,SHF_ALLOC|SHF_MERGE|SHF_STRINGS,1
	0x4303e5e2		.L.str.4
.rodata.str1.1	0x4303e603	0x33	src\build\aware_client\aware_psm.o	#SHT_PROGBITS,SHF_ALLOC|SHF_MERGE|SHF_STRINGS,1
	0x4303e603		.L.str.7
.rodata.str1.1	0x4303e636	0x28	src\build\aware_client\aware_psm.o	#SHT_PROGBITS,SHF_ALLOC|SHF_MERGE|SHF_STRINGS,1
	0x4303e636		.L.str.9
.rodata.str1.1	0x4303e65e	0x5	src\build\aware_client\aware_psm.o	#SHT_PROGBITS,SHF_ALLOC|SHF_MERGE|SHF_STRINGS,1
	0x4303e65e		.L.str.10
.rodata.str1.1	0x4303e663	0x8	src\build\aware_client\aware_psm.o	#SHT_PROGBITS,SHF_ALLOC|SHF_MERGE|SHF_STRINGS,1
	0x4303e663		.L.str.11
.rodata.str1.1	0x4303e66b	0x2d	src\build\aware_client\aware_psm.o	#SHT_PROGBITS,SHF_ALLOC|SHF_MERGE|SHF_STRINGS,1
	0x4303e66b		.L.str.13
.rodata.str1.1	0x4303e698	0x27	src\build\aware_client\aware_psm.o	#SHT_PROGBITS,SHF_ALLOC|SHF_MERGE|SHF_STRINGS,1
	0x4303e698		.L.str.15
.rodata.str1.1	0x4303e6bf	0x28	src\build\aware_client\aware_psm.o	#SHT_PROGBITS,SHF_ALLOC|SHF_MERGE|SHF_STRINGS,1
	0x4303e6bf		.L.str.18
PADDING_ALIGNMENT	0x4303e6e7	0x1	0x0
.rodata	0x4303e6e8	0xe0	src\build\aware_client\aware_psm.o	#SHT_PROGBITS,SHF_ALLOC,4
	0x4303e6e8		aware_psm_cb.xx_msg_const
	0x4303e6f8		aware_psm_cb.xx_msg_const.3
	0x4303e708		aware_psm_cb.xx_msg_const.5
	0x4303e718		aware_psm_cb.xx_msg_const.6
	0x4303e728		aware_psm_init.xx_msg_const
	0x4303e738		aware_psm_init.xx_msg_const.8
	0x4303e748		aware_psm_deinit.xx_msg_const
	0x4303e758		aware_psm_deinit.xx_msg_const.12
	0x4303e768		aware_vote_for_psm.xx_msg_const
	0x4303e778		aware_vote_for_psm.xx_msg_const.14
	0x4303e788		aware_vote_for_psm.xx_msg_const.16
	0x4303e798		aware_vote_for_psm.xx_msg_const.17
	0x4303e7a8		aware_cancel_vote_for_psm.xx_msg_const
	0x4303e7b8		aware_cancel_vote_for_psm.xx_msg_const.19
.rodata.str1.1	0x4303e7c8	0x36	src\build\aware_client\cfg_mgr_util.o	#SHT_PROGBITS,SHF_ALLOC|SHF_MERGE|SHF_STRINGS,1
	0x4303e7c8		.L.str
.rodata.str1.1	0x4303e7fe	0x2c	src\build\aware_client\cfg_mgr_util.o	#SHT_PROGBITS,SHF_ALLOC|SHF_MERGE|SHF_STRINGS,1
	0x4303e7fe		.L.str.2
PADDING_ALIGNMENT	0x4303e82a	0x2	0x0
.rodata	0x4303e82c	0x20	src\build\aware_client\cfg_mgr_util.o	#SHT_PROGBITS,SHF_ALLOC,4
	0x4303e82c		cfg_mgr_apply_update.xx_msg_const
	0x4303e83c		cfg_mgr_apply_update.xx_msg_const.3
.rodata.str1.1	0x4303e84c	0x5	src\build\aware_client\cJSON.o	#SHT_PROGBITS,SHF_ALLOC|SHF_MERGE|SHF_STRINGS,1
	0x4303e84c		.L.str
.rodata.str1.1	0x4303e851	0x6	src\build\aware_client\cJSON.o	#SHT_PROGBITS,SHF_ALLOC|SHF_MERGE|SHF_STRINGS,1
	0x4303e851		.L.str.1
.rodata.str1.1	0x4303e857	0x5	src\build\aware_client\cJSON.o	#SHT_PROGBITS,SHF_ALLOC|SHF_MERGE|SHF_STRINGS,1
	0x4303e857		.L.str.2
.rodata.str1.1	0x4303e85c	0x5	src\build\aware_client\cJSON.o	#SHT_PROGBITS,SHF_ALLOC|SHF_MERGE|SHF_STRINGS,1
	0x4303e85c		.L.str.4
.rodata.str1.1	0x4303e861	0x3	src\build\aware_client\cJSON.o	#SHT_PROGBITS,SHF_ALLOC|SHF_MERGE|SHF_STRINGS,1
	0x4303e861		.L.str.5
.rodata.str1.1	0x4303e864	0x3	src\build\aware_client\cJSON.o	#SHT_PROGBITS,SHF_ALLOC|SHF_MERGE|SHF_STRINGS,1
	0x4303e864		.L.str.6
.rodata.str1.1	0x4303e867	0x8	src\build\aware_client\cJSON.o	#SHT_PROGBITS,SHF_ALLOC|SHF_MERGE|SHF_STRINGS,1
	0x4303e867		.L.str.8
.rodata.str1.1	0x4303e86f	0x6	src\build\aware_client\cJSON.o	#SHT_PROGBITS,SHF_ALLOC|SHF_MERGE|SHF_STRINGS,1
	0x4303e86f		.L.str.9
.rodata.str1.1	0x4303e875	0x3	src\build\aware_client\cJSON.o	#SHT_PROGBITS,SHF_ALLOC|SHF_MERGE|SHF_STRINGS,1
	0x4303e875		.L.str.10
.rodata	0x4303e878	0x7	src\build\aware_client\cJSON.o	#SHT_PROGBITS,SHF_ALLOC,1
	0x4303e878		firstByteMark
.rodata.str1.1	0x4303e87f	0x6	src\build\aware_client\config_parser.o	#SHT_PROGBITS,SHF_ALLOC|SHF_MERGE|SHF_STRINGS,1
	0x4303e87f		.L.str.1
.rodata.str1.1	0x4303e885	0x2d	src\build\aware_client\config_parser.o	#SHT_PROGBITS,SHF_ALLOC|SHF_MERGE|SHF_STRINGS,1
	0x4303e885		.L.str.3
.rodata.str1.1	0x4303e8b2	0x7	src\build\aware_client\config_parser.o	#SHT_PROGBITS,SHF_ALLOC|SHF_MERGE|SHF_STRINGS,1
	0x4303e8b2		.L.str.5
.rodata.str1.1	0x4303e8b9	0x5	src\build\aware_client\config_parser.o	#SHT_PROGBITS,SHF_ALLOC|SHF_MERGE|SHF_STRINGS,1
	0x4303e8b9		.L.str.6
.rodata.str1.1	0x4303e8be	0x6	src\build\aware_client\config_parser.o	#SHT_PROGBITS,SHF_ALLOC|SHF_MERGE|SHF_STRINGS,1
	0x4303e8be		.L.str.7
.rodata.str1.1	0x4303e8c4	0x1b	src\build\aware_client\config_parser.o	#SHT_PROGBITS,SHF_ALLOC|SHF_MERGE|SHF_STRINGS,1
	0x4303e8c4		.L.str.9
.rodata.str1.1	0x4303e8df	0x1f	src\build\aware_client\config_parser.o	#SHT_PROGBITS,SHF_ALLOC|SHF_MERGE|SHF_STRINGS,1
	0x4303e8df		.L.str.11
PADDING_ALIGNMENT	0x4303e8fe	0x2	0x0
.rodata	0x4303e900	0x60	src\build\aware_client\config_parser.o	#SHT_PROGBITS,SHF_ALLOC,4
	0x4303e900		config_parser_print.xx_msg_const
	0x4303e910		config_parser_print.xx_msg_const.4
	0x4303e920		config_parser_load.xx_msg_const
	0x4303e930		config_parser_load.xx_msg_const.10
	0x4303e940		config_parser_load.xx_msg_const.12
	0x4303e950		config_parser_load.xx_msg_const.13
.rodata.str1.1	0x4303e960	0x22	src\build\aware_client\data_mgr.o	#SHT_PROGBITS,SHF_ALLOC|SHF_MERGE|SHF_STRINGS,1
	0x4303e960		.L.str
.rodata.str1.1	0x4303e982	0x29	src\build\aware_client\data_mgr.o	#SHT_PROGBITS,SHF_ALLOC|SHF_MERGE|SHF_STRINGS,1
	0x4303e982		.L.str.2
.rodata.str1.1	0x4303e9ab	0x27	src\build\aware_client\data_mgr.o	#SHT_PROGBITS,SHF_ALLOC|SHF_MERGE|SHF_STRINGS,1
	0x4303e9ab		.L.str.4
.rodata.str1.1	0x4303e9d2	0x25	src\build\aware_client\data_mgr.o	#SHT_PROGBITS,SHF_ALLOC|SHF_MERGE|SHF_STRINGS,1
	0x4303e9d2		.L.str.7
.rodata.str1.1	0x4303e9f7	0x2a	src\build\aware_client\data_mgr.o	#SHT_PROGBITS,SHF_ALLOC|SHF_MERGE|SHF_STRINGS,1
	0x4303e9f7		.L.str.10
.rodata.str1.1	0x4303ea21	0x32	src\build\aware_client\data_mgr.o	#SHT_PROGBITS,SHF_ALLOC|SHF_MERGE|SHF_STRINGS,1
	0x4303ea21		.L.str.13
.rodata.str1.1	0x4303ea53	0x31	src\build\aware_client\data_mgr.o	#SHT_PROGBITS,SHF_ALLOC|SHF_MERGE|SHF_STRINGS,1
	0x4303ea53		.L.str.16
.rodata.str1.1	0x4303ea84	0x2a	src\build\aware_client\data_mgr.o	#SHT_PROGBITS,SHF_ALLOC|SHF_MERGE|SHF_STRINGS,1
	0x4303ea84		.L.str.18
.rodata.str1.1	0x4303eaae	0x42	src\build\aware_client\data_mgr.o	#SHT_PROGBITS,SHF_ALLOC|SHF_MERGE|SHF_STRINGS,1
	0x4303eaae		.L.str.21
.rodata.str1.1	0x4303eaf0	0x3d	src\build\aware_client\data_mgr.o	#SHT_PROGBITS,SHF_ALLOC|SHF_MERGE|SHF_STRINGS,1
	0x4303eaf0		.L.str.23
.rodata.str1.1	0x4303eb2d	0x50	src\build\aware_client\data_mgr.o	#SHT_PROGBITS,SHF_ALLOC|SHF_MERGE|SHF_STRINGS,1
	0x4303eb2d		.L.str.26
.rodata.str1.1	0x4303eb7d	0x4c	src\build\aware_client\data_mgr.o	#SHT_PROGBITS,SHF_ALLOC|SHF_MERGE|SHF_STRINGS,1
	0x4303eb7d		.L.str.29
.rodata.str1.1	0x4303ebc9	0x62	src\build\aware_client\data_mgr.o	#SHT_PROGBITS,SHF_ALLOC|SHF_MERGE|SHF_STRINGS,1
	0x4303ebc9		.L.str.32
.rodata.str1.1	0x4303ec2b	0x55	src\build\aware_client\data_mgr.o	#SHT_PROGBITS,SHF_ALLOC|SHF_MERGE|SHF_STRINGS,1
	0x4303ec2b		.L.str.35
.rodata.str1.1	0x4303ec80	0x3d	src\build\aware_client\data_mgr.o	#SHT_PROGBITS,SHF_ALLOC|SHF_MERGE|SHF_STRINGS,1
	0x4303ec80		.L.str.38
.rodata.str1.1	0x4303ecbd	0x42	src\build\aware_client\data_mgr.o	#SHT_PROGBITS,SHF_ALLOC|SHF_MERGE|SHF_STRINGS,1
	0x4303ecbd		.L.str.41
PADDING_ALIGNMENT	0x4303ecff	0x1	0x0
.rodata	0x4303ed00	0x1e0	src\build\aware_client\data_mgr.o	#SHT_PROGBITS,SHF_ALLOC,4
	0x4303ed00		data_mgr_connect_coap_server.xx_msg_const
	0x4303ed10		data_mgr_connect_coap_server.xx_msg_const.3
	0x4303ed20		data_mgr_connect_coap_server.xx_msg_const.5
	0x4303ed30		data_mgr_connect_coap_server.xx_msg_const.6
	0x4303ed40		data_mgr_connect_coap_server.xx_msg_const.8
	0x4303ed50		data_mgr_connect_coap_server.xx_msg_const.9
	0x4303ed60		data_mgr_connect_coap_server.xx_msg_const.11
	0x4303ed70		data_mgr_connect_coap_server.xx_msg_const.12
	0x4303ed80		data_mgr_connect_coap_server.xx_msg_const.14
	0x4303ed90		data_mgr_connect_coap_server.xx_msg_const.15
	0x4303eda0		data_mgr_disconnect_coap_server.xx_msg_const
	0x4303edb0		data_mgr_disconnect_coap_server.xx_msg_const.17
	0x4303edc0		data_mgr_disconnect_coap_server.xx_msg_const.19
	0x4303edd0		data_mgr_disconnect_coap_server.xx_msg_const.20
	0x4303ede0		data_mgr_coap_fota_file_download.xx_msg_const
	0x4303edf0		data_mgr_coap_fota_file_download.xx_msg_const.22
	0x4303ee00		data_mgr_coap_fota_file_download.xx_msg_const.24
	0x4303ee10		data_mgr_coap_fota_file_download.xx_msg_const.25
	0x4303ee20		data_mgr_coap_fota_file_download.xx_msg_const.27
	0x4303ee30		data_mgr_coap_fota_file_download.xx_msg_const.28
	0x4303ee40		data_mgr_coap_fota_file_download.xx_msg_const.30
	0x4303ee50		data_mgr_coap_fota_file_download.xx_msg_const.31
	0x4303ee60		data_mgr_coap_fota_file_download.xx_msg_const.33
	0x4303ee70		data_mgr_coap_fota_file_download.xx_msg_const.34
	0x4303ee80		data_mgr_coap_fota_file_download.xx_msg_const.36
	0x4303ee90		data_mgr_coap_fota_file_download.xx_msg_const.37
	0x4303eea0		data_mgr_coap_fota_file_download.xx_msg_const.39
	0x4303eeb0		data_mgr_coap_fota_file_download.xx_msg_const.40
	0x4303eec0		data_mgr_coap_fota_file_download.xx_msg_const.42
	0x4303eed0		data_mgr_coap_fota_file_download.xx_msg_const.43
.rodata.str1.1	0x4303eee0	0xc	src\build\aware_client\data_mgr_coap.o	#SHT_PROGBITS,SHF_ALLOC|SHF_MERGE|SHF_STRINGS,1
	0x4303eee0		.L.str
.rodata.str1.1	0x4303eeec	0x28	src\build\aware_client\data_mgr_coap.o	#SHT_PROGBITS,SHF_ALLOC|SHF_MERGE|SHF_STRINGS,1
	0x4303eeec		.L.str.1
.rodata.str1.1	0x4303ef14	0x2e	src\build\aware_client\data_mgr_coap.o	#SHT_PROGBITS,SHF_ALLOC|SHF_MERGE|SHF_STRINGS,1
	0x4303ef14		.L.str.3
.rodata.str1.1	0x4303ef42	0x27	src\build\aware_client\data_mgr_coap.o	#SHT_PROGBITS,SHF_ALLOC|SHF_MERGE|SHF_STRINGS,1
	0x4303ef42		.L.str.5
.rodata.str1.1	0x4303ef69	0x29	src\build\aware_client\data_mgr_coap.o	#SHT_PROGBITS,SHF_ALLOC|SHF_MERGE|SHF_STRINGS,1
	0x4303ef69		.L.str.10
.rodata.str1.1	0x4303ef92	0x2d	src\build\aware_client\data_mgr_coap.o	#SHT_PROGBITS,SHF_ALLOC|SHF_MERGE|SHF_STRINGS,1
	0x4303ef92		.L.str.13
.rodata.str1.1	0x4303efbf	0x38	src\build\aware_client\data_mgr_coap.o	#SHT_PROGBITS,SHF_ALLOC|SHF_MERGE|SHF_STRINGS,1
	0x4303efbf		.L.str.15
.rodata.str1.1	0x4303eff7	0x2a	src\build\aware_client\data_mgr_coap.o	#SHT_PROGBITS,SHF_ALLOC|SHF_MERGE|SHF_STRINGS,1
	0x4303eff7		.L.str.18
.rodata.str1.1	0x4303f021	0x21	src\build\aware_client\data_mgr_coap.o	#SHT_PROGBITS,SHF_ALLOC|SHF_MERGE|SHF_STRINGS,1
	0x4303f021		.L.str.22
.rodata.str1.1	0x4303f042	0x36	src\build\aware_client\data_mgr_coap.o	#SHT_PROGBITS,SHF_ALLOC|SHF_MERGE|SHF_STRINGS,1
	0x4303f042		.L.str.25
.rodata.str1.1	0x4303f078	0xd	src\build\aware_client\data_mgr_coap.o	#SHT_PROGBITS,SHF_ALLOC|SHF_MERGE|SHF_STRINGS,1
	0x4303f078		.L.str.28
.rodata.str1.1	0x4303f085	0x29	src\build\aware_client\data_mgr_coap.o	#SHT_PROGBITS,SHF_ALLOC|SHF_MERGE|SHF_STRINGS,1
	0x4303f085		.L.str.29
.rodata.str1.1	0x4303f0ae	0x37	src\build\aware_client\data_mgr_coap.o	#SHT_PROGBITS,SHF_ALLOC|SHF_MERGE|SHF_STRINGS,1
	0x4303f0ae		.L.str.32
.rodata.str1.1	0x4303f0e5	0x22	src\build\aware_client\data_mgr_coap.o	#SHT_PROGBITS,SHF_ALLOC|SHF_MERGE|SHF_STRINGS,1
	0x4303f0e5		.L.str.35
.rodata.str1.1	0x4303f107	0x16	src\build\aware_client\data_mgr_coap.o	#SHT_PROGBITS,SHF_ALLOC|SHF_MERGE|SHF_STRINGS,1
	0x4303f107		.L.str.38
.rodata.str1.1	0x4303f11d	0x1f	src\build\aware_client\data_mgr_coap.o	#SHT_PROGBITS,SHF_ALLOC|SHF_MERGE|SHF_STRINGS,1
	0x4303f11d		.L.str.39
.rodata.str1.1	0x4303f13c	0x45	src\build\aware_client\data_mgr_coap.o	#SHT_PROGBITS,SHF_ALLOC|SHF_MERGE|SHF_STRINGS,1
	0x4303f13c		.L.str.42
.rodata.str1.1	0x4303f181	0x15	src\build\aware_client\data_mgr_coap.o	#SHT_PROGBITS,SHF_ALLOC|SHF_MERGE|SHF_STRINGS,1
	0x4303f181		.L.str.45
.rodata.str1.1	0x4303f196	0x3d	src\build\aware_client\data_mgr_coap.o	#SHT_PROGBITS,SHF_ALLOC|SHF_MERGE|SHF_STRINGS,1
	0x4303f196		.L.str.48
.rodata.str1.1	0x4303f1d3	0xe	src\build\aware_client\data_mgr_coap.o	#SHT_PROGBITS,SHF_ALLOC|SHF_MERGE|SHF_STRINGS,1
	0x4303f1d3		.L.str.51
.rodata.str1.1	0x4303f1e1	0x22	src\build\aware_client\data_mgr_coap.o	#SHT_PROGBITS,SHF_ALLOC|SHF_MERGE|SHF_STRINGS,1
	0x4303f1e1		.L.str.56
.rodata.str1.1	0x4303f203	0x4f	src\build\aware_client\data_mgr_coap.o	#SHT_PROGBITS,SHF_ALLOC|SHF_MERGE|SHF_STRINGS,1
	0x4303f203		.L.str.59
.rodata.str1.1	0x4303f252	0x1f	src\build\aware_client\data_mgr_coap.o	#SHT_PROGBITS,SHF_ALLOC|SHF_MERGE|SHF_STRINGS,1
	0x4303f252		.L.str.62
.rodata.str1.1	0x4303f271	0x24	src\build\aware_client\data_mgr_coap.o	#SHT_PROGBITS,SHF_ALLOC|SHF_MERGE|SHF_STRINGS,1
	0x4303f271		.L.str.65
.rodata.str1.1	0x4303f295	0x25	src\build\aware_client\data_mgr_coap.o	#SHT_PROGBITS,SHF_ALLOC|SHF_MERGE|SHF_STRINGS,1
	0x4303f295		.L.str.68
.rodata.str1.1	0x4303f2ba	0x24	src\build\aware_client\data_mgr_coap.o	#SHT_PROGBITS,SHF_ALLOC|SHF_MERGE|SHF_STRINGS,1
	0x4303f2ba		.L.str.73
.rodata.str1.1	0x4303f2de	0x25	src\build\aware_client\data_mgr_coap.o	#SHT_PROGBITS,SHF_ALLOC|SHF_MERGE|SHF_STRINGS,1
	0x4303f2de		.L.str.77
.rodata.str1.1	0x4303f303	0x21	src\build\aware_client\data_mgr_coap.o	#SHT_PROGBITS,SHF_ALLOC|SHF_MERGE|SHF_STRINGS,1
	0x4303f303		.L.str.79
.rodata.str1.1	0x4303f324	0x21	src\build\aware_client\data_mgr_coap.o	#SHT_PROGBITS,SHF_ALLOC|SHF_MERGE|SHF_STRINGS,1
	0x4303f324		.L.str.82
.rodata.str1.1	0x4303f345	0x29	src\build\aware_client\data_mgr_coap.o	#SHT_PROGBITS,SHF_ALLOC|SHF_MERGE|SHF_STRINGS,1
	0x4303f345		.L.str.85
.rodata.str1.1	0x4303f36e	0x2d	src\build\aware_client\data_mgr_coap.o	#SHT_PROGBITS,SHF_ALLOC|SHF_MERGE|SHF_STRINGS,1
	0x4303f36e		.L.str.88
.rodata.str1.1	0x4303f39b	0x34	src\build\aware_client\data_mgr_coap.o	#SHT_PROGBITS,SHF_ALLOC|SHF_MERGE|SHF_STRINGS,1
	0x4303f39b		.L.str.91
.rodata.str1.1	0x4303f3cf	0x2e	src\build\aware_client\data_mgr_coap.o	#SHT_PROGBITS,SHF_ALLOC|SHF_MERGE|SHF_STRINGS,1
	0x4303f3cf		.L.str.94
.rodata.str1.1	0x4303f3fd	0x35	src\build\aware_client\data_mgr_coap.o	#SHT_PROGBITS,SHF_ALLOC|SHF_MERGE|SHF_STRINGS,1
	0x4303f3fd		.L.str.97
.rodata.str1.1	0x4303f432	0x2a	src\build\aware_client\data_mgr_coap.o	#SHT_PROGBITS,SHF_ALLOC|SHF_MERGE|SHF_STRINGS,1
	0x4303f432		.L.str.100
.rodata.str1.1	0x4303f45c	0x29	src\build\aware_client\data_mgr_coap.o	#SHT_PROGBITS,SHF_ALLOC|SHF_MERGE|SHF_STRINGS,1
	0x4303f45c		.L.str.111
.rodata.str1.1	0x4303f485	0x2c	src\build\aware_client\data_mgr_coap.o	#SHT_PROGBITS,SHF_ALLOC|SHF_MERGE|SHF_STRINGS,1
	0x4303f485		.L.str.122
.rodata.str1.1	0x4303f4b1	0x3b	src\build\aware_client\data_mgr_coap.o	#SHT_PROGBITS,SHF_ALLOC|SHF_MERGE|SHF_STRINGS,1
	0x4303f4b1		.L.str.125
.rodata.str1.1	0x4303f4ec	0x3b	src\build\aware_client\data_mgr_coap.o	#SHT_PROGBITS,SHF_ALLOC|SHF_MERGE|SHF_STRINGS,1
	0x4303f4ec		.L.str.128
.rodata.str1.1	0x4303f527	0x3b	src\build\aware_client\data_mgr_coap.o	#SHT_PROGBITS,SHF_ALLOC|SHF_MERGE|SHF_STRINGS,1
	0x4303f527		.L.str.131
.rodata.str1.1	0x4303f562	0x34	src\build\aware_client\data_mgr_coap.o	#SHT_PROGBITS,SHF_ALLOC|SHF_MERGE|SHF_STRINGS,1
	0x4303f562		.L.str.134
.rodata.str1.1	0x4303f596	0x34	src\build\aware_client\data_mgr_coap.o	#SHT_PROGBITS,SHF_ALLOC|SHF_MERGE|SHF_STRINGS,1
	0x4303f596		.L.str.137
.rodata.str1.1	0x4303f5ca	0x22	src\build\aware_client\data_mgr_coap.o	#SHT_PROGBITS,SHF_ALLOC|SHF_MERGE|SHF_STRINGS,1
	0x4303f5ca		.L.str.140
.rodata.str1.1	0x4303f5ec	0x45	src\build\aware_client\data_mgr_coap.o	#SHT_PROGBITS,SHF_ALLOC|SHF_MERGE|SHF_STRINGS,1
	0x4303f5ec		.L.str.143
.rodata.str1.1	0x4303f631	0x33	src\build\aware_client\data_mgr_coap.o	#SHT_PROGBITS,SHF_ALLOC|SHF_MERGE|SHF_STRINGS,1
	0x4303f631		.L.str.146
.rodata.str1.1	0x4303f664	0x27	src\build\aware_client\data_mgr_coap.o	#SHT_PROGBITS,SHF_ALLOC|SHF_MERGE|SHF_STRINGS,1
	0x4303f664		.L.str.148
.rodata.str1.1	0x4303f68b	0x2f	src\build\aware_client\data_mgr_coap.o	#SHT_PROGBITS,SHF_ALLOC|SHF_MERGE|SHF_STRINGS,1
	0x4303f68b		.L.str.151
.rodata.str1.1	0x4303f6ba	0x2b	src\build\aware_client\data_mgr_coap.o	#SHT_PROGBITS,SHF_ALLOC|SHF_MERGE|SHF_STRINGS,1
	0x4303f6ba		.L.str.154
.rodata.str1.1	0x4303f6e5	0x3e	src\build\aware_client\data_mgr_coap.o	#SHT_PROGBITS,SHF_ALLOC|SHF_MERGE|SHF_STRINGS,1
	0x4303f6e5		.L.str.157
.rodata.str1.1	0x4303f723	0x26	src\build\aware_client\data_mgr_coap.o	#SHT_PROGBITS,SHF_ALLOC|SHF_MERGE|SHF_STRINGS,1
	0x4303f723		.L.str.164
.rodata.str1.1	0x4303f749	0x1e	src\build\aware_client\data_mgr_coap.o	#SHT_PROGBITS,SHF_ALLOC|SHF_MERGE|SHF_STRINGS,1
	0x4303f749		.L.str.167
.rodata.str1.1	0x4303f767	0x28	src\build\aware_client\data_mgr_coap.o	#SHT_PROGBITS,SHF_ALLOC|SHF_MERGE|SHF_STRINGS,1
	0x4303f767		.L.str.170
.rodata.str1.1	0x4303f78f	0x24	src\build\aware_client\data_mgr_coap.o	#SHT_PROGBITS,SHF_ALLOC|SHF_MERGE|SHF_STRINGS,1
	0x4303f78f		.L.str.173
.rodata.str1.1	0x4303f7b3	0x30	src\build\aware_client\data_mgr_coap.o	#SHT_PROGBITS,SHF_ALLOC|SHF_MERGE|SHF_STRINGS,1
	0x4303f7b3		.L.str.176
.rodata.str1.1	0x4303f7e3	0x2f	src\build\aware_client\data_mgr_coap.o	#SHT_PROGBITS,SHF_ALLOC|SHF_MERGE|SHF_STRINGS,1
	0x4303f7e3		.L.str.179
.rodata.str1.1	0x4303f812	0x28	src\build\aware_client\data_mgr_coap.o	#SHT_PROGBITS,SHF_ALLOC|SHF_MERGE|SHF_STRINGS,1
	0x4303f812		.L.str.181
.rodata.str1.1	0x4303f83a	0x2a	src\build\aware_client\data_mgr_coap.o	#SHT_PROGBITS,SHF_ALLOC|SHF_MERGE|SHF_STRINGS,1
	0x4303f83a		.L.str.184
.rodata.str1.1	0x4303f864	0x27	src\build\aware_client\data_mgr_coap.o	#SHT_PROGBITS,SHF_ALLOC|SHF_MERGE|SHF_STRINGS,1
	0x4303f864		.L.str.187
.rodata.str1.1	0x4303f88b	0x31	src\build\aware_client\data_mgr_coap.o	#SHT_PROGBITS,SHF_ALLOC|SHF_MERGE|SHF_STRINGS,1
	0x4303f88b		.L.str.190
.rodata.str1.1	0x4303f8bc	0x34	src\build\aware_client\data_mgr_coap.o	#SHT_PROGBITS,SHF_ALLOC|SHF_MERGE|SHF_STRINGS,1
	0x4303f8bc		.L.str.193
.rodata.str1.1	0x4303f8f0	0x38	src\build\aware_client\data_mgr_coap.o	#SHT_PROGBITS,SHF_ALLOC|SHF_MERGE|SHF_STRINGS,1
	0x4303f8f0		.L.str.196
.rodata.str1.1	0x4303f928	0x31	src\build\aware_client\data_mgr_coap.o	#SHT_PROGBITS,SHF_ALLOC|SHF_MERGE|SHF_STRINGS,1
	0x4303f928		.L.str.198
.rodata.str1.1	0x4303f959	0x32	src\build\aware_client\data_mgr_coap.o	#SHT_PROGBITS,SHF_ALLOC|SHF_MERGE|SHF_STRINGS,1
	0x4303f959		.L.str.200
.rodata.str1.1	0x4303f98b	0x34	src\build\aware_client\data_mgr_coap.o	#SHT_PROGBITS,SHF_ALLOC|SHF_MERGE|SHF_STRINGS,1
	0x4303f98b		.L.str.203
.rodata.str1.1	0x4303f9bf	0x29	src\build\aware_client\data_mgr_coap.o	#SHT_PROGBITS,SHF_ALLOC|SHF_MERGE|SHF_STRINGS,1
	0x4303f9bf		.L.str.205
.rodata.str1.1	0x4303f9e8	0x2d	src\build\aware_client\data_mgr_coap.o	#SHT_PROGBITS,SHF_ALLOC|SHF_MERGE|SHF_STRINGS,1
	0x4303f9e8		.L.str.208
.rodata.str1.1	0x4303fa15	0x2e	src\build\aware_client\data_mgr_coap.o	#SHT_PROGBITS,SHF_ALLOC|SHF_MERGE|SHF_STRINGS,1
	0x4303fa15		.L.str.211
.rodata.str1.1	0x4303fa43	0x31	src\build\aware_client\data_mgr_coap.o	#SHT_PROGBITS,SHF_ALLOC|SHF_MERGE|SHF_STRINGS,1
	0x4303fa43		.L.str.214
.rodata.str1.1	0x4303fa74	0x32	src\build\aware_client\data_mgr_coap.o	#SHT_PROGBITS,SHF_ALLOC|SHF_MERGE|SHF_STRINGS,1
	0x4303fa74		.L.str.216
.rodata.str1.1	0x4303faa6	0x25	src\build\aware_client\data_mgr_coap.o	#SHT_PROGBITS,SHF_ALLOC|SHF_MERGE|SHF_STRINGS,1
	0x4303faa6		.L.str.219
.rodata.str1.1	0x4303facb	0x26	src\build\aware_client\data_mgr_coap.o	#SHT_PROGBITS,SHF_ALLOC|SHF_MERGE|SHF_STRINGS,1
	0x4303facb		.L.str.221
.rodata.str1.1	0x4303faf1	0x2c	src\build\aware_client\data_mgr_coap.o	#SHT_PROGBITS,SHF_ALLOC|SHF_MERGE|SHF_STRINGS,1
	0x4303faf1		.L.str.224
.rodata.str1.1	0x4303fb1d	0x2d	src\build\aware_client\data_mgr_coap.o	#SHT_PROGBITS,SHF_ALLOC|SHF_MERGE|SHF_STRINGS,1
	0x4303fb1d		.L.str.226
.rodata.str1.1	0x4303fb4a	0x27	src\build\aware_client\data_mgr_coap.o	#SHT_PROGBITS,SHF_ALLOC|SHF_MERGE|SHF_STRINGS,1
	0x4303fb4a		.L.str.229
.rodata.str1.1	0x4303fb71	0x14	src\build\aware_client\data_mgr_coap.o	#SHT_PROGBITS,SHF_ALLOC|SHF_MERGE|SHF_STRINGS,1
	0x4303fb71		.L.str.231
.rodata.str1.1	0x4303fb85	0x17	src\build\aware_client\data_mgr_coap.o	#SHT_PROGBITS,SHF_ALLOC|SHF_MERGE|SHF_STRINGS,1
	0x4303fb85		.L.str.232
.rodata.str1.1	0x4303fb9c	0xd	src\build\aware_client\data_mgr_coap.o	#SHT_PROGBITS,SHF_ALLOC|SHF_MERGE|SHF_STRINGS,1
	0x4303fb9c		.L.str.233
.rodata.str1.1	0x4303fba9	0x2d	src\build\aware_client\data_mgr_coap.o	#SHT_PROGBITS,SHF_ALLOC|SHF_MERGE|SHF_STRINGS,1
	0x4303fba9		.L.str.234
.rodata.str1.1	0x4303fbd6	0x25	src\build\aware_client\data_mgr_coap.o	#SHT_PROGBITS,SHF_ALLOC|SHF_MERGE|SHF_STRINGS,1
	0x4303fbd6		.L.str.237
.rodata.str1.1	0x4303fbfb	0x1e	src\build\aware_client\data_mgr_coap.o	#SHT_PROGBITS,SHF_ALLOC|SHF_MERGE|SHF_STRINGS,1
	0x4303fbfb		.L.str.240
.rodata.str1.1	0x4303fc19	0x32	src\build\aware_client\data_mgr_coap.o	#SHT_PROGBITS,SHF_ALLOC|SHF_MERGE|SHF_STRINGS,1
	0x4303fc19		.L.str.243
.rodata.str1.1	0x4303fc4b	0x2f	src\build\aware_client\data_mgr_coap.o	#SHT_PROGBITS,SHF_ALLOC|SHF_MERGE|SHF_STRINGS,1
	0x4303fc4b		.L.str.245
.rodata.str1.1	0x4303fc7a	0x30	src\build\aware_client\data_mgr_coap.o	#SHT_PROGBITS,SHF_ALLOC|SHF_MERGE|SHF_STRINGS,1
	0x4303fc7a		.L.str.248
.rodata.str1.1	0x4303fcaa	0x2d	src\build\aware_client\data_mgr_coap.o	#SHT_PROGBITS,SHF_ALLOC|SHF_MERGE|SHF_STRINGS,1
	0x4303fcaa		.L.str.251
.rodata.str1.1	0x4303fcd7	0x25	src\build\aware_client\data_mgr_coap.o	#SHT_PROGBITS,SHF_ALLOC|SHF_MERGE|SHF_STRINGS,1
	0x4303fcd7		.L.str.254
.rodata.str1.1	0x4303fcfc	0x2d	src\build\aware_client\data_mgr_coap.o	#SHT_PROGBITS,SHF_ALLOC|SHF_MERGE|SHF_STRINGS,1
	0x4303fcfc		.L.str.256
.rodata.str1.1	0x4303fd29	0x31	src\build\aware_client\data_mgr_coap.o	#SHT_PROGBITS,SHF_ALLOC|SHF_MERGE|SHF_STRINGS,1
	0x4303fd29		.L.str.259
.rodata.str1.1	0x4303fd5a	0x11	src\build\aware_client\data_mgr_coap.o	#SHT_PROGBITS,SHF_ALLOC|SHF_MERGE|SHF_STRINGS,1
	0x4303fd5a		.L.str.262
.rodata.str1.1	0x4303fd6b	0x29	src\build\aware_client\data_mgr_coap.o	#SHT_PROGBITS,SHF_ALLOC|SHF_MERGE|SHF_STRINGS,1
	0x4303fd6b		.L.str.263
.rodata.str1.1	0x4303fd94	0x2e	src\build\aware_client\data_mgr_coap.o	#SHT_PROGBITS,SHF_ALLOC|SHF_MERGE|SHF_STRINGS,1
	0x4303fd94		.L.str.270
.rodata.str1.1	0x4303fdc2	0x42	src\build\aware_client\data_mgr_coap.o	#SHT_PROGBITS,SHF_ALLOC|SHF_MERGE|SHF_STRINGS,1
	0x4303fdc2		.L.str.275
.rodata.str1.1	0x4303fe04	0x3a	src\build\aware_client\data_mgr_coap.o	#SHT_PROGBITS,SHF_ALLOC|SHF_MERGE|SHF_STRINGS,1
	0x4303fe04		.L.str.277
.rodata.str1.1	0x4303fe3e	0x44	src\build\aware_client\data_mgr_coap.o	#SHT_PROGBITS,SHF_ALLOC|SHF_MERGE|SHF_STRINGS,1
	0x4303fe3e		.L.str.280
.rodata.str1.1	0x4303fe82	0x4e	src\build\aware_client\data_mgr_coap.o	#SHT_PROGBITS,SHF_ALLOC|SHF_MERGE|SHF_STRINGS,1
	0x4303fe82		.L.str.283
.rodata.str1.1	0x4303fed0	0x58	src\build\aware_client\data_mgr_coap.o	#SHT_PROGBITS,SHF_ALLOC|SHF_MERGE|SHF_STRINGS,1
	0x4303fed0		.L.str.286
.rodata.str1.1	0x4303ff28	0x58	src\build\aware_client\data_mgr_coap.o	#SHT_PROGBITS,SHF_ALLOC|SHF_MERGE|SHF_STRINGS,1
	0x4303ff28		.L.str.289
.rodata.str1.1	0x4303ff80	0x50	src\build\aware_client\data_mgr_coap.o	#SHT_PROGBITS,SHF_ALLOC|SHF_MERGE|SHF_STRINGS,1
	0x4303ff80		.L.str.292
.rodata	0x4303ffd0	0xd10	src\build\aware_client\data_mgr_coap.o	#SHT_PROGBITS,SHF_ALLOC,4
	0x4303ffd0		coap_create_session.xx_msg_const
	0x4303ffe0		coap_create_session.xx_msg_const.4
	0x4303fff0		coap_create_session.xx_msg_const.6
	0x43040000		coap_create_session.xx_msg_const.7
	0x43040010		coap_cleanup.xx_msg_const
	0x43040020		coap_cleanup.xx_msg_const.9
	0x43040030		coap_cleanup.xx_msg_const.11
	0x43040040		coap_cleanup.xx_msg_const.12
	0x43040050		coap_configure_connection.xx_msg_const
	0x43040060		coap_configure_connection.xx_msg_const.14
	0x43040070		coap_configure_connection.xx_msg_const.16
	0x43040080		coap_configure_connection.xx_msg_const.17
	0x43040090		coap_configure_connection.xx_msg_const.19
	0x430400a0		coap_configure_connection.xx_msg_const.20
	0x430400b0		coap_configure_connection.xx_msg_const.23
	0x430400c0		coap_configure_connection.xx_msg_const.24
	0x430400d0		coap_configure_connection.xx_msg_const.26
	0x430400e0		coap_configure_connection.xx_msg_const.27
	0x430400f0		coap_configure_connection.xx_msg_const.30
	0x43040100		coap_configure_connection.xx_msg_const.31
	0x43040110		coap_configure_connection.xx_msg_const.33
	0x43040120		coap_configure_connection.xx_msg_const.34
	0x43040130		coap_configure_connection.xx_msg_const.36
	0x43040140		coap_configure_connection.xx_msg_const.37
	0x43040150		coap_configure_connection.xx_msg_const.40
	0x43040160		coap_configure_connection.xx_msg_const.41
	0x43040170		coap_configure_connection.xx_msg_const.43
	0x43040180		coap_configure_connection.xx_msg_const.44
	0x43040190		coap_configure_connection.xx_msg_const.46
	0x430401a0		coap_configure_connection.xx_msg_const.47
	0x430401b0		coap_configure_connection.xx_msg_const.49
	0x430401c0		coap_configure_connection.xx_msg_const.50
	0x430401d0		coap_configure_connection.xx_msg_const.52
	0x430401e0		coap_configure_connection.xx_msg_const.53
	0x430401f0		coap_configure_connection.xx_msg_const.54
	0x43040200		coap_configure_connection.xx_msg_const.55
	0x43040210		coap_configure_connection.xx_msg_const.57
	0x43040220		coap_configure_connection.xx_msg_const.58
	0x43040230		coap_configure_connection.xx_msg_const.60
	0x43040240		coap_configure_connection.xx_msg_const.61
	0x43040250		coap_configure_connection.xx_msg_const.63
	0x43040260		coap_configure_connection.xx_msg_const.64
	0x43040270		coap_configure_connection.xx_msg_const.66
	0x43040280		coap_configure_connection.xx_msg_const.67
	0x43040290		coap_configure_connection.xx_msg_const.69
	0x430402a0		coap_configure_connection.xx_msg_const.70
	0x430402b0		coap_configure_connection.xx_msg_const.71
	0x430402c0		coap_configure_connection.xx_msg_const.72
	0x430402d0		coap_configure_connection.xx_msg_const.74
	0x430402e0		coap_configure_connection.xx_msg_const.75
	0x430402f0		coap_session_cb.xx_msg_const
	0x43040300		coap_session_cb.xx_msg_const.78
	0x43040310		coap_session_cb.xx_msg_const.80
	0x43040320		coap_session_cb.xx_msg_const.81
	0x43040330		coap_session_cb.xx_msg_const.83
	0x43040340		coap_session_cb.xx_msg_const.84
	0x43040350		coap_session_cb.xx_msg_const.86
	0x43040360		coap_session_cb.xx_msg_const.87
	0x43040370		coap_session_cb.xx_msg_const.89
	0x43040380		coap_session_cb.xx_msg_const.90
	0x43040390		coap_session_cb.xx_msg_const.92
	0x430403a0		coap_session_cb.xx_msg_const.93
	0x430403b0		coap_session_cb.xx_msg_const.95
	0x430403c0		coap_session_cb.xx_msg_const.96
	0x430403d0		coap_session_cb.xx_msg_const.98
	0x430403e0		coap_session_cb.xx_msg_const.99
	0x430403f0		coap_session_cb.xx_msg_const.101
	0x43040400		coap_session_cb.xx_msg_const.102
	0x43040410		coap_session_cb.xx_msg_const.103
	0x43040420		coap_session_cb.xx_msg_const.104
	0x43040430		coap_session_cb.xx_msg_const.105
	0x43040440		coap_session_cb.xx_msg_const.106
	0x43040450		coap_session_cb.xx_msg_const.107
	0x43040460		coap_session_cb.xx_msg_const.108
	0x43040470		coap_session_cb.xx_msg_const.109
	0x43040480		coap_session_cb.xx_msg_const.110
	0x43040490		coap_session_cb.xx_msg_const.112
	0x430404a0		coap_session_cb.xx_msg_const.113
	0x430404b0		coap_session_cb.xx_msg_const.114
	0x430404c0		coap_session_cb.xx_msg_const.115
	0x430404d0		coap_session_cb.xx_msg_const.116
	0x430404e0		coap_session_cb.xx_msg_const.117
	0x430404f0		coap_session_cb.xx_msg_const.118
	0x43040500		coap_session_cb.xx_msg_const.119
	0x43040510		coap_session_cb.xx_msg_const.120
	0x43040520		coap_session_cb.xx_msg_const.121
	0x43040530		coap_session_cb.xx_msg_const.123
	0x43040540		coap_session_cb.xx_msg_const.124
	0x43040550		coap_session_cb.xx_msg_const.126
	0x43040560		coap_session_cb.xx_msg_const.127
	0x43040570		coap_session_cb.xx_msg_const.129
	0x43040580		coap_session_cb.xx_msg_const.130
	0x43040590		coap_session_cb.xx_msg_const.132
	0x430405a0		coap_session_cb.xx_msg_const.133
	0x430405b0		coap_session_cb.xx_msg_const.135
	0x430405c0		coap_session_cb.xx_msg_const.136
	0x430405d0		coap_session_cb.xx_msg_const.138
	0x430405e0		coap_session_cb.xx_msg_const.139
	0x430405f0		coap_session_cb.xx_msg_const.141
	0x43040600		coap_session_cb.xx_msg_const.142
	0x43040610		coap_session_cb.xx_msg_const.144
	0x43040620		coap_session_cb.xx_msg_const.145
	0x43040630		coap_response_message_cb.xx_msg_const
	0x43040640		coap_response_message_cb.xx_msg_const.147
	0x43040650		coap_response_message_cb.xx_msg_const.149
	0x43040660		coap_response_message_cb.xx_msg_const.150
	0x43040670		coap_response_message_cb.xx_msg_const.152
	0x43040680		coap_response_message_cb.xx_msg_const.153
	0x43040690		coap_response_message_cb.xx_msg_const.155
	0x430406a0		coap_response_message_cb.xx_msg_const.156
	0x430406b0		coap_response_message_cb.xx_msg_const.158
	0x430406c0		coap_response_message_cb.xx_msg_const.159
	0x430406d0		coap_response_message_cb.xx_msg_const.160
	0x430406e0		coap_response_message_cb.xx_msg_const.161
	0x430406f0		coap_response_message_cb.xx_msg_const.162
	0x43040700		coap_response_message_cb.xx_msg_const.163
	0x43040710		coap_response_message_cb.xx_msg_const.165
	0x43040720		coap_response_message_cb.xx_msg_const.166
	0x43040730		coap_response_message_cb.xx_msg_const.168
	0x43040740		coap_response_message_cb.xx_msg_const.169
	0x43040750		coap_response_message_cb.xx_msg_const.171
	0x43040760		coap_response_message_cb.xx_msg_const.172
	0x43040770		coap_response_message_cb.xx_msg_const.174
	0x43040780		coap_response_message_cb.xx_msg_const.175
	0x43040790		coap_response_message_cb.xx_msg_const.177
	0x430407a0		coap_response_message_cb.xx_msg_const.178
	0x430407b0		read_from_efs.xx_msg_const
	0x430407c0		read_from_efs.xx_msg_const.180
	0x430407d0		read_from_efs.xx_msg_const.182
	0x430407e0		read_from_efs.xx_msg_const.183
	0x430407f0		read_from_efs.xx_msg_const.185
	0x43040800		read_from_efs.xx_msg_const.186
	0x43040810		read_from_efs.xx_msg_const.188
	0x43040820		read_from_efs.xx_msg_const.189
	0x43040830		read_from_efs.xx_msg_const.191
	0x43040840		read_from_efs.xx_msg_const.192
	0x43040850		read_from_efs.xx_msg_const.194
	0x43040860		read_from_efs.xx_msg_const.195
	0x43040870		coap_message_add_block2_header.xx_msg_const
	0x43040880		coap_message_add_block2_header.xx_msg_const.197
	0x43040890		coap_message_add_query_string.xx_msg_const
	0x430408a0		coap_message_add_query_string.xx_msg_const.199
	0x430408b0		coap_message_add_query_string.xx_msg_const.201
	0x430408c0		coap_message_add_query_string.xx_msg_const.202
	0x430408d0		coap_message_add_uri_path.xx_msg_const
	0x430408e0		coap_message_add_uri_path.xx_msg_const.204
	0x430408f0		coap_message_add_uri_path.xx_msg_const.206
	0x43040900		coap_message_add_uri_path.xx_msg_const.207
	0x43040910		coap_message_add_uri_path.xx_msg_const.209
	0x43040920		coap_message_add_uri_path.xx_msg_const.210
	0x43040930		coap_message_add_uri_path.xx_msg_const.212
	0x43040940		coap_message_add_uri_path.xx_msg_const.213
	0x43040950		coap_message_add_content_type.xx_msg_const
	0x43040960		coap_message_add_content_type.xx_msg_const.215
	0x43040970		coap_message_add_content_type.xx_msg_const.217
	0x43040980		coap_message_add_content_type.xx_msg_const.218
	0x43040990		coap_message_init.xx_msg_const
	0x430409a0		coap_message_init.xx_msg_const.220
	0x430409b0		coap_message_init.xx_msg_const.222
	0x430409c0		coap_message_init.xx_msg_const.223
	0x430409d0		coap_message_add_payload.xx_msg_const
	0x430409e0		coap_message_add_payload.xx_msg_const.225
	0x430409f0		coap_message_add_payload.xx_msg_const.227
	0x43040a00		coap_message_add_payload.xx_msg_const.228
	0x43040a10		coap_send_post_message.xx_msg_const
	0x43040a20		coap_send_post_message.xx_msg_const.230
	0x43040a30		coap_send_post_message.xx_msg_const.235
	0x43040a40		coap_send_post_message.xx_msg_const.236
	0x43040a50		coap_send_post_message.xx_msg_const.238
	0x43040a60		coap_send_post_message.xx_msg_const.239
	0x43040a70		coap_send_post_message.xx_msg_const.241
	0x43040a80		coap_send_post_message.xx_msg_const.242
	0x43040a90		coap_send_post_message.xx_msg_const.244
	0x43040aa0		coap_send_post_message.xx_msg_const.246
	0x43040ab0		coap_send_post_message.xx_msg_const.247
	0x43040ac0		coap_send_post_message.xx_msg_const.249
	0x43040ad0		coap_send_post_message.xx_msg_const.250
	0x43040ae0		coap_send_post_message.xx_msg_const.252
	0x43040af0		coap_send_post_message.xx_msg_const.253
	0x43040b00		coap_send_get_block_message.xx_msg_const
	0x43040b10		coap_send_get_block_message.xx_msg_const.255
	0x43040b20		coap_send_get_block_message.xx_msg_const.257
	0x43040b30		coap_send_get_block_message.xx_msg_const.258
	0x43040b40		coap_send_get_block_message.xx_msg_const.260
	0x43040b50		coap_send_get_block_message.xx_msg_const.261
	0x43040b60		coap_send_get_block_message.xx_msg_const.264
	0x43040b70		coap_send_get_block_message.xx_msg_const.265
	0x43040b80		coap_send_get_block_message.xx_msg_const.266
	0x43040b90		coap_send_get_block_message.xx_msg_const.267
	0x43040ba0		coap_send_get_block_message.xx_msg_const.268
	0x43040bb0		coap_send_get_block_message.xx_msg_const.269
	0x43040bc0		coap_send_get_block_message.xx_msg_const.271
	0x43040bd0		coap_send_get_block_message.xx_msg_const.272
	0x43040be0		coap_send_get_block_message.xx_msg_const.273
	0x43040bf0		coap_send_get_block_message.xx_msg_const.274
	0x43040c00		print_coap_connection_status.xx_msg_const
	0x43040c10		print_coap_connection_status.xx_msg_const.276
	0x43040c20		print_coap_connection_status.xx_msg_const.278
	0x43040c30		print_coap_connection_status.xx_msg_const.279
	0x43040c40		print_coap_connection_status.xx_msg_const.281
	0x43040c50		print_coap_connection_status.xx_msg_const.282
	0x43040c60		print_coap_connection_status.xx_msg_const.284
	0x43040c70		print_coap_connection_status.xx_msg_const.285
	0x43040c80		print_coap_connection_status.xx_msg_const.287
	0x43040c90		print_coap_connection_status.xx_msg_const.288
	0x43040ca0		print_coap_connection_status.xx_msg_const.290
	0x43040cb0		print_coap_connection_status.xx_msg_const.291
	0x43040cc0		print_coap_connection_status.xx_msg_const.293
	0x43040cd0		print_coap_connection_status.xx_msg_const.294
.rodata.str1.1	0x43040ce0	0x2f	src\build\aware_client\data_mgr_device_info.o	#SHT_PROGBITS,SHF_ALLOC|SHF_MERGE|SHF_STRINGS,1
	0x43040ce0		.L.str
.rodata.str1.1	0x43040d0f	0x35	src\build\aware_client\data_mgr_device_info.o	#SHT_PROGBITS,SHF_ALLOC|SHF_MERGE|SHF_STRINGS,1
	0x43040d0f		.L.str.2
.rodata.str1.1	0x43040d44	0x4b	src\build\aware_client\data_mgr_device_info.o	#SHT_PROGBITS,SHF_ALLOC|SHF_MERGE|SHF_STRINGS,1
	0x43040d44		.L.str.4
.rodata.str1.1	0x43040d8f	0x52	src\build\aware_client\data_mgr_device_info.o	#SHT_PROGBITS,SHF_ALLOC|SHF_MERGE|SHF_STRINGS,1
	0x43040d8f		.L.str.7
.rodata.str1.1	0x43040de1	0x55	src\build\aware_client\data_mgr_device_info.o	#SHT_PROGBITS,SHF_ALLOC|SHF_MERGE|SHF_STRINGS,1
	0x43040de1		.L.str.12
.rodata.str1.1	0x43040e36	0x50	src\build\aware_client\data_mgr_device_info.o	#SHT_PROGBITS,SHF_ALLOC|SHF_MERGE|SHF_STRINGS,1
	0x43040e36		.L.str.15
.rodata.str1.1	0x43040e86	0x25	src\build\aware_client\data_mgr_device_info.o	#SHT_PROGBITS,SHF_ALLOC|SHF_MERGE|SHF_STRINGS,1
	0x43040e86		.L.str.19
.rodata.str1.1	0x43040eab	0x21	src\build\aware_client\data_mgr_device_info.o	#SHT_PROGBITS,SHF_ALLOC|SHF_MERGE|SHF_STRINGS,1
	0x43040eab		.L.str.23
.rodata	0x43040ecc	0x160	src\build\aware_client\data_mgr_device_info.o	#SHT_PROGBITS,SHF_ALLOC,4
	0x43040ecc		data_mgr_init_device_info.xx_msg_const
	0x43040edc		data_mgr_init_device_info.xx_msg_const.3
	0x43040eec		data_mgr_init_device_info.xx_msg_const.5
	0x43040efc		data_mgr_init_device_info.xx_msg_const.6
	0x43040f0c		data_mgr_init_device_info.xx_msg_const.8
	0x43040f1c		data_mgr_init_device_info.xx_msg_const.9
	0x43040f2c		data_mgr_get_device_serial_number.xx_msg_const
	0x43040f3c		data_mgr_get_device_serial_number.xx_msg_const.11
	0x43040f4c		data_mgr_get_device_serial_number.xx_msg_const.13
	0x43040f5c		data_mgr_get_device_serial_number.xx_msg_const.14
	0x43040f6c		data_mgr_get_device_serial_number.xx_msg_const.16
	0x43040f7c		data_mgr_get_device_serial_number.xx_msg_const.17
	0x43040f8c		data_mgr_set_wwan_high_priority.xx_msg_const
	0x43040f9c		data_mgr_set_wwan_high_priority.xx_msg_const.18
	0x43040fac		data_mgr_set_wwan_high_priority.xx_msg_const.20
	0x43040fbc		data_mgr_set_wwan_high_priority.xx_msg_const.21
	0x43040fcc		data_mgr_reset_device_info.xx_msg_const
	0x43040fdc		data_mgr_reset_device_info.xx_msg_const.22
	0x43040fec		data_mgr_reset_device_info.xx_msg_const.24
	0x43040ffc		data_mgr_reset_device_info.xx_msg_const.25
	0x4304100c		data_mgr_param_get_service_status.xx_msg_const
	0x4304101c		data_mgr_param_get_service_status.xx_msg_const.26
.rodata.str1.1	0x4304102c	0xc	src\build\aware_client\data_mgr_dss.o	#SHT_PROGBITS,SHF_ALLOC|SHF_MERGE|SHF_STRINGS,1
	0x4304102c		.L.str
.rodata.str1.1	0x43041038	0x37	src\build\aware_client\data_mgr_dss.o	#SHT_PROGBITS,SHF_ALLOC|SHF_MERGE|SHF_STRINGS,1
	0x43041038		.L.str.1
.rodata.str1.1	0x4304106f	0x2d	src\build\aware_client\data_mgr_dss.o	#SHT_PROGBITS,SHF_ALLOC|SHF_MERGE|SHF_STRINGS,1
	0x4304106f		.L.str.3
.rodata.str1.1	0x4304109c	0x1c	src\build\aware_client\data_mgr_dss.o	#SHT_PROGBITS,SHF_ALLOC|SHF_MERGE|SHF_STRINGS,1
	0x4304109c		.L.str.5
.rodata.str1.1	0x430410b8	0x22	src\build\aware_client\data_mgr_dss.o	#SHT_PROGBITS,SHF_ALLOC|SHF_MERGE|SHF_STRINGS,1
	0x430410b8		.L.str.8
.rodata.str1.1	0x430410da	0x16	src\build\aware_client\data_mgr_dss.o	#SHT_PROGBITS,SHF_ALLOC|SHF_MERGE|SHF_STRINGS,1
	0x430410da		.L.str.11
.rodata.str1.1	0x430410f0	0x28	src\build\aware_client\data_mgr_dss.o	#SHT_PROGBITS,SHF_ALLOC|SHF_MERGE|SHF_STRINGS,1
	0x430410f0		.L.str.14
.rodata.str1.1	0x43041118	0x22	src\build\aware_client\data_mgr_dss.o	#SHT_PROGBITS,SHF_ALLOC|SHF_MERGE|SHF_STRINGS,1
	0x43041118		.L.str.16
.rodata.str1.1	0x4304113a	0x1c	src\build\aware_client\data_mgr_dss.o	#SHT_PROGBITS,SHF_ALLOC|SHF_MERGE|SHF_STRINGS,1
	0x4304113a		.L.str.19
.rodata.str1.1	0x43041156	0x22	src\build\aware_client\data_mgr_dss.o	#SHT_PROGBITS,SHF_ALLOC|SHF_MERGE|SHF_STRINGS,1
	0x43041156		.L.str.22
.rodata.str1.1	0x43041178	0x1f	src\build\aware_client\data_mgr_dss.o	#SHT_PROGBITS,SHF_ALLOC|SHF_MERGE|SHF_STRINGS,1
	0x43041178		.L.str.25
.rodata.str1.1	0x43041197	0x23	src\build\aware_client\data_mgr_dss.o	#SHT_PROGBITS,SHF_ALLOC|SHF_MERGE|SHF_STRINGS,1
	0x43041197		.L.str.28
.rodata.str1.1	0x430411ba	0x1f	src\build\aware_client\data_mgr_dss.o	#SHT_PROGBITS,SHF_ALLOC|SHF_MERGE|SHF_STRINGS,1
	0x430411ba		.L.str.31
.rodata.str1.1	0x430411d9	0x1e	src\build\aware_client\data_mgr_dss.o	#SHT_PROGBITS,SHF_ALLOC|SHF_MERGE|SHF_STRINGS,1
	0x430411d9		.L.str.34
.rodata.str1.1	0x430411f7	0x29	src\build\aware_client\data_mgr_dss.o	#SHT_PROGBITS,SHF_ALLOC|SHF_MERGE|SHF_STRINGS,1
	0x430411f7		.L.str.37
.rodata.str1.1	0x43041220	0x38	src\build\aware_client\data_mgr_dss.o	#SHT_PROGBITS,SHF_ALLOC|SHF_MERGE|SHF_STRINGS,1
	0x43041220		.L.str.40
.rodata.str1.1	0x43041258	0x1c	src\build\aware_client\data_mgr_dss.o	#SHT_PROGBITS,SHF_ALLOC|SHF_MERGE|SHF_STRINGS,1
	0x43041258		.L.str.43
.rodata.str1.1	0x43041274	0x29	src\build\aware_client\data_mgr_dss.o	#SHT_PROGBITS,SHF_ALLOC|SHF_MERGE|SHF_STRINGS,1
	0x43041274		.L.str.46
PADDING_ALIGNMENT	0x4304129d	0x3	0x0
.rodata	0x430412a0	0x200	src\build\aware_client\data_mgr_dss.o	#SHT_PROGBITS,SHF_ALLOC,4
	0x430412a0		dns_parser.xx_msg_const
	0x430412b0		dns_parser.xx_msg_const.4
	0x430412c0		dns_parser.xx_msg_const.6
	0x430412d0		dns_parser.xx_msg_const.7
	0x430412e0		dns_parser.xx_msg_const.9
	0x430412f0		dns_parser.xx_msg_const.10
	0x43041300		dns_parser.xx_msg_const.12
	0x43041310		dns_parser.xx_msg_const.13
	0x43041320		get_ip_from_url.xx_msg_const
	0x43041330		get_ip_from_url.xx_msg_const.15
	0x43041340		get_ip_from_url.xx_msg_const.17
	0x43041350		get_ip_from_url.xx_msg_const.18
	0x43041360		get_ip_from_url.xx_msg_const.20
	0x43041370		get_ip_from_url.xx_msg_const.21
	0x43041380		get_ip_from_url.xx_msg_const.23
	0x43041390		get_ip_from_url.xx_msg_const.24
	0x430413a0		get_ip_from_url.xx_msg_const.26
	0x430413b0		get_ip_from_url.xx_msg_const.27
	0x430413c0		get_ip_from_url.xx_msg_const.29
	0x430413d0		get_ip_from_url.xx_msg_const.30
	0x430413e0		get_ip_from_url.xx_msg_const.32
	0x430413f0		get_ip_from_url.xx_msg_const.33
	0x43041400		get_ip_from_url.xx_msg_const.35
	0x43041410		get_ip_from_url.xx_msg_const.36
	0x43041420		get_ip_from_url.xx_msg_const.38
	0x43041430		get_ip_from_url.xx_msg_const.39
	0x43041440		get_ip_from_url.xx_msg_const.41
	0x43041450		get_ip_from_url.xx_msg_const.42
	0x43041460		get_ip_from_url.xx_msg_const.44
	0x43041470		get_ip_from_url.xx_msg_const.45
	0x43041480		get_ip_from_url.xx_msg_const.47
	0x43041490		get_ip_from_url.xx_msg_const.48
.rodata.str1.1	0x430414a0	0xf	src\build\aware_client\data_mgr_queue.o	#SHT_PROGBITS,SHF_ALLOC|SHF_MERGE|SHF_STRINGS,1
	0x430414a0		.L.str
.rodata.str1.1	0x430414af	0x29	src\build\aware_client\data_mgr_queue.o	#SHT_PROGBITS,SHF_ALLOC|SHF_MERGE|SHF_STRINGS,1
	0x430414af		.L.str.1
.rodata.str1.1	0x430414d8	0x2f	src\build\aware_client\data_mgr_queue.o	#SHT_PROGBITS,SHF_ALLOC|SHF_MERGE|SHF_STRINGS,1
	0x430414d8		.L.str.3
.rodata.str1.1	0x43041507	0x44	src\build\aware_client\data_mgr_queue.o	#SHT_PROGBITS,SHF_ALLOC|SHF_MERGE|SHF_STRINGS,1
	0x43041507		.L.str.5
.rodata.str1.1	0x4304154b	0x3b	src\build\aware_client\data_mgr_queue.o	#SHT_PROGBITS,SHF_ALLOC|SHF_MERGE|SHF_STRINGS,1
	0x4304154b		.L.str.7
.rodata.str1.1	0x43041586	0x45	src\build\aware_client\data_mgr_queue.o	#SHT_PROGBITS,SHF_ALLOC|SHF_MERGE|SHF_STRINGS,1
	0x43041586		.L.str.10
.rodata.str1.1	0x430415cb	0x4f	src\build\aware_client\data_mgr_queue.o	#SHT_PROGBITS,SHF_ALLOC|SHF_MERGE|SHF_STRINGS,1
	0x430415cb		.L.str.13
PADDING_ALIGNMENT	0x4304161a	0x2	0x0
.rodata	0x4304161c	0xa0	src\build\aware_client\data_mgr_queue.o	#SHT_PROGBITS,SHF_ALLOC,4
	0x4304161c		data_mgr_queue_init.xx_msg_const
	0x4304162c		data_mgr_queue_init.xx_msg_const.4
	0x4304163c		data_mgr_queue_enqueue_msg.xx_msg_const
	0x4304164c		data_mgr_queue_enqueue_msg.xx_msg_const.6
	0x4304165c		data_mgr_queue_enqueue_msg.xx_msg_const.8
	0x4304166c		data_mgr_queue_enqueue_msg.xx_msg_const.9
	0x4304167c		data_mgr_queue_enqueue_msg.xx_msg_const.11
	0x4304168c		data_mgr_queue_enqueue_msg.xx_msg_const.12
	0x4304169c		data_mgr_queue_remove_pub_msg.xx_msg_const
	0x430416ac		data_mgr_queue_remove_pub_msg.xx_msg_const.14
.rodata.str1.1	0x430416bc	0x1b	src\build\aware_client\data_mgr_thread.o	#SHT_PROGBITS,SHF_ALLOC|SHF_MERGE|SHF_STRINGS,1
	0x430416bc		.L.str
.rodata.str1.1	0x430416d7	0x30	src\build\aware_client\data_mgr_thread.o	#SHT_PROGBITS,SHF_ALLOC|SHF_MERGE|SHF_STRINGS,1
	0x430416d7		.L.str.2
.rodata.str1.1	0x43041707	0x15	src\build\aware_client\data_mgr_thread.o	#SHT_PROGBITS,SHF_ALLOC|SHF_MERGE|SHF_STRINGS,1
	0x43041707		.L.str.4
.rodata.str1.1	0x4304171c	0xe	src\build\aware_client\data_mgr_thread.o	#SHT_PROGBITS,SHF_ALLOC|SHF_MERGE|SHF_STRINGS,1
	0x4304171c		.L.str.7
.rodata.str1.1	0x4304172a	0xf	src\build\aware_client\data_mgr_thread.o	#SHT_PROGBITS,SHF_ALLOC|SHF_MERGE|SHF_STRINGS,1
	0x4304172a		.L.str.10
.rodata.str1.1	0x43041739	0x13	src\build\aware_client\data_mgr_thread.o	#SHT_PROGBITS,SHF_ALLOC|SHF_MERGE|SHF_STRINGS,1
	0x43041739		.L.str.13
.rodata.str1.1	0x4304174c	0x12	src\build\aware_client\data_mgr_thread.o	#SHT_PROGBITS,SHF_ALLOC|SHF_MERGE|SHF_STRINGS,1
	0x4304174c		.L.str.16
.rodata.str1.1	0x4304175e	0x23	src\build\aware_client\data_mgr_thread.o	#SHT_PROGBITS,SHF_ALLOC|SHF_MERGE|SHF_STRINGS,1
	0x4304175e		.L.str.21
.rodata.str1.1	0x43041781	0x1c	src\build\aware_client\data_mgr_thread.o	#SHT_PROGBITS,SHF_ALLOC|SHF_MERGE|SHF_STRINGS,1
	0x43041781		.L.str.24
.rodata.str1.1	0x4304179d	0x1b	src\build\aware_client\data_mgr_thread.o	#SHT_PROGBITS,SHF_ALLOC|SHF_MERGE|SHF_STRINGS,1
	0x4304179d		.L.str.27
.rodata.str1.1	0x430417b8	0x17	src\build\aware_client\data_mgr_thread.o	#SHT_PROGBITS,SHF_ALLOC|SHF_MERGE|SHF_STRINGS,1
	0x430417b8		.L.str.30
.rodata.str1.1	0x430417cf	0x26	src\build\aware_client\data_mgr_thread.o	#SHT_PROGBITS,SHF_ALLOC|SHF_MERGE|SHF_STRINGS,1
	0x430417cf		.L.str.32
.rodata.str1.1	0x430417f5	0x12	src\build\aware_client\data_mgr_thread.o	#SHT_PROGBITS,SHF_ALLOC|SHF_MERGE|SHF_STRINGS,1
	0x430417f5		.L.str.35
.rodata.str1.1	0x43041807	0x11	src\build\aware_client\data_mgr_thread.o	#SHT_PROGBITS,SHF_ALLOC|SHF_MERGE|SHF_STRINGS,1
	0x43041807		.L.str.37
.rodata.str1.1	0x43041818	0x11	src\build\aware_client\data_mgr_thread.o	#SHT_PROGBITS,SHF_ALLOC|SHF_MERGE|SHF_STRINGS,1
	0x43041818		.L.str.40
.rodata.str1.1	0x43041829	0x27	src\build\aware_client\data_mgr_thread.o	#SHT_PROGBITS,SHF_ALLOC|SHF_MERGE|SHF_STRINGS,1
	0x43041829		.L.str.41
.rodata.str1.1	0x43041850	0xe	src\build\aware_client\data_mgr_thread.o	#SHT_PROGBITS,SHF_ALLOC|SHF_MERGE|SHF_STRINGS,1
	0x43041850		.L.str.43
.rodata.str1.1	0x4304185e	0x18	src\build\aware_client\data_mgr_thread.o	#SHT_PROGBITS,SHF_ALLOC|SHF_MERGE|SHF_STRINGS,1
	0x4304185e		.L.str.44
.rodata.str1.1	0x43041876	0x41	src\build\aware_client\data_mgr_thread.o	#SHT_PROGBITS,SHF_ALLOC|SHF_MERGE|SHF_STRINGS,1
	0x43041876		.L.str.45
.rodata.str1.1	0x430418b7	0x40	src\build\aware_client\data_mgr_thread.o	#SHT_PROGBITS,SHF_ALLOC|SHF_MERGE|SHF_STRINGS,1
	0x430418b7		.L.str.47
.rodata.str1.1	0x430418f7	0x35	src\build\aware_client\data_mgr_thread.o	#SHT_PROGBITS,SHF_ALLOC|SHF_MERGE|SHF_STRINGS,1
	0x430418f7		.L.str.50
.rodata.str1.1	0x4304192c	0x45	src\build\aware_client\data_mgr_thread.o	#SHT_PROGBITS,SHF_ALLOC|SHF_MERGE|SHF_STRINGS,1
	0x4304192c		.L.str.53
.rodata.str1.1	0x43041971	0xe	src\build\aware_client\data_mgr_thread.o	#SHT_PROGBITS,SHF_ALLOC|SHF_MERGE|SHF_STRINGS,1
	0x43041971		.L.str.56
.rodata.str1.1	0x4304197f	0x28	src\build\aware_client\data_mgr_thread.o	#SHT_PROGBITS,SHF_ALLOC|SHF_MERGE|SHF_STRINGS,1
	0x4304197f		.L.str.57
.rodata.str1.1	0x430419a7	0x1d	src\build\aware_client\data_mgr_thread.o	#SHT_PROGBITS,SHF_ALLOC|SHF_MERGE|SHF_STRINGS,1
	0x430419a7		.L.str.60
.rodata.str1.1	0x430419c4	0x4	src\build\aware_client\data_mgr_thread.o	#SHT_PROGBITS,SHF_ALLOC|SHF_MERGE|SHF_STRINGS,1
	0x430419c4		.L.str.63
.rodata.str1.1	0x430419c8	0x4	src\build\aware_client\data_mgr_thread.o	#SHT_PROGBITS,SHF_ALLOC|SHF_MERGE|SHF_STRINGS,1
	0x430419c8		.L.str.64
.rodata.str1.1	0x430419cc	0x4	src\build\aware_client\data_mgr_thread.o	#SHT_PROGBITS,SHF_ALLOC|SHF_MERGE|SHF_STRINGS,1
	0x430419cc		.L.str.65
.rodata.str1.1	0x430419d0	0x4	src\build\aware_client\data_mgr_thread.o	#SHT_PROGBITS,SHF_ALLOC|SHF_MERGE|SHF_STRINGS,1
	0x430419d0		.L.str.66
.rodata.str1.1	0x430419d4	0x5	src\build\aware_client\data_mgr_thread.o	#SHT_PROGBITS,SHF_ALLOC|SHF_MERGE|SHF_STRINGS,1
	0x430419d4		.L.str.67
.rodata.str1.1	0x430419d9	0x5	src\build\aware_client\data_mgr_thread.o	#SHT_PROGBITS,SHF_ALLOC|SHF_MERGE|SHF_STRINGS,1
	0x430419d9		.L.str.68
.rodata.str1.1	0x430419de	0x6	src\build\aware_client\data_mgr_thread.o	#SHT_PROGBITS,SHF_ALLOC|SHF_MERGE|SHF_STRINGS,1
	0x430419de		.L.str.69
.rodata.str1.1	0x430419e4	0x60	src\build\aware_client\data_mgr_thread.o	#SHT_PROGBITS,SHF_ALLOC|SHF_MERGE|SHF_STRINGS,1
	0x430419e4		.L.str.70
.rodata.str1.1	0x43041a44	0x23	src\build\aware_client\data_mgr_thread.o	#SHT_PROGBITS,SHF_ALLOC|SHF_MERGE|SHF_STRINGS,1
	0x43041a44		.L.str.71
.rodata.str1.1	0x43041a67	0x34	src\build\aware_client\data_mgr_thread.o	#SHT_PROGBITS,SHF_ALLOC|SHF_MERGE|SHF_STRINGS,1
	0x43041a67		.L.str.74
.rodata.str1.1	0x43041a9b	0x1c	src\build\aware_client\data_mgr_thread.o	#SHT_PROGBITS,SHF_ALLOC|SHF_MERGE|SHF_STRINGS,1
	0x43041a9b		.L.str.77
.rodata.str1.1	0x43041ab7	0x16	src\build\aware_client\data_mgr_thread.o	#SHT_PROGBITS,SHF_ALLOC|SHF_MERGE|SHF_STRINGS,1
	0x43041ab7		.L.str.79
.rodata.str1.1	0x43041acd	0x2a	src\build\aware_client\data_mgr_thread.o	#SHT_PROGBITS,SHF_ALLOC|SHF_MERGE|SHF_STRINGS,1
	0x43041acd		.L.str.82
.rodata.str1.1	0x43041af7	0x29	src\build\aware_client\data_mgr_thread.o	#SHT_PROGBITS,SHF_ALLOC|SHF_MERGE|SHF_STRINGS,1
	0x43041af7		.L.str.85
.rodata.str1.1	0x43041b20	0x22	src\build\aware_client\data_mgr_thread.o	#SHT_PROGBITS,SHF_ALLOC|SHF_MERGE|SHF_STRINGS,1
	0x43041b20		.L.str.88
.rodata.str1.1	0x43041b42	0x26	src\build\aware_client\data_mgr_thread.o	#SHT_PROGBITS,SHF_ALLOC|SHF_MERGE|SHF_STRINGS,1
	0x43041b42		.L.str.91
.rodata.str1.1	0x43041b68	0x2b	src\build\aware_client\data_mgr_thread.o	#SHT_PROGBITS,SHF_ALLOC|SHF_MERGE|SHF_STRINGS,1
	0x43041b68		.L.str.94
.rodata.str1.1	0x43041b93	0x27	src\build\aware_client\data_mgr_thread.o	#SHT_PROGBITS,SHF_ALLOC|SHF_MERGE|SHF_STRINGS,1
	0x43041b93		.L.str.96
.rodata.str1.1	0x43041bba	0x1d	src\build\aware_client\data_mgr_thread.o	#SHT_PROGBITS,SHF_ALLOC|SHF_MERGE|SHF_STRINGS,1
	0x43041bba		.L.str.99
.rodata.str1.1	0x43041bd7	0x1a	src\build\aware_client\data_mgr_thread.o	#SHT_PROGBITS,SHF_ALLOC|SHF_MERGE|SHF_STRINGS,1
	0x43041bd7		.L.str.102
.rodata.str1.1	0x43041bf1	0x43	src\build\aware_client\data_mgr_thread.o	#SHT_PROGBITS,SHF_ALLOC|SHF_MERGE|SHF_STRINGS,1
	0x43041bf1		.L.str.104
.rodata.str1.1	0x43041c34	0x18	src\build\aware_client\data_mgr_thread.o	#SHT_PROGBITS,SHF_ALLOC|SHF_MERGE|SHF_STRINGS,1
	0x43041c34		.L.str.107
.rodata.str1.1	0x43041c4c	0x44	src\build\aware_client\data_mgr_thread.o	#SHT_PROGBITS,SHF_ALLOC|SHF_MERGE|SHF_STRINGS,1
	0x43041c4c		.L.str.110
.rodata.str1.1	0x43041c90	0x4a	src\build\aware_client\data_mgr_thread.o	#SHT_PROGBITS,SHF_ALLOC|SHF_MERGE|SHF_STRINGS,1
	0x43041c90		.L.str.113
.rodata.str1.1	0x43041cda	0x11	src\build\aware_client\data_mgr_thread.o	#SHT_PROGBITS,SHF_ALLOC|SHF_MERGE|SHF_STRINGS,1
	0x43041cda		.L.str.116
.rodata.str1.1	0x43041ceb	0x42	src\build\aware_client\data_mgr_thread.o	#SHT_PROGBITS,SHF_ALLOC|SHF_MERGE|SHF_STRINGS,1
	0x43041ceb		.L.str.119
.rodata.str1.1	0x43041d2d	0x18	src\build\aware_client\data_mgr_thread.o	#SHT_PROGBITS,SHF_ALLOC|SHF_MERGE|SHF_STRINGS,1
	0x43041d2d		.L.str.122
.rodata.str1.1	0x43041d45	0xc	src\build\aware_client\data_mgr_thread.o	#SHT_PROGBITS,SHF_ALLOC|SHF_MERGE|SHF_STRINGS,1
	0x43041d45		.L.str.125
.rodata.str1.1	0x43041d51	0x1d	src\build\aware_client\data_mgr_thread.o	#SHT_PROGBITS,SHF_ALLOC|SHF_MERGE|SHF_STRINGS,1
	0x43041d51		.L.str.126
.rodata.str1.1	0x43041d6e	0x32	src\build\aware_client\data_mgr_thread.o	#SHT_PROGBITS,SHF_ALLOC|SHF_MERGE|SHF_STRINGS,1
	0x43041d6e		.L.str.127
.rodata.str1.1	0x43041da0	0x8	src\build\aware_client\data_mgr_thread.o	#SHT_PROGBITS,SHF_ALLOC|SHF_MERGE|SHF_STRINGS,1
	0x43041da0		.L.str.130
.rodata.str1.1	0x43041da8	0x25	src\build\aware_client\data_mgr_thread.o	#SHT_PROGBITS,SHF_ALLOC|SHF_MERGE|SHF_STRINGS,1
	0x43041da8		.L.str.134
PADDING_ALIGNMENT	0x43041dcd	0x3	0x0
.rodata	0x43041dd0	0x540	src\build\aware_client\data_mgr_thread.o	#SHT_PROGBITS,SHF_ALLOC,4
	0x43041dd0		dss_show_nw_info.xx_msg_const
	0x43041de0		dss_show_nw_info.xx_msg_const.3
	0x43041df0		dss_show_nw_info.xx_msg_const.5
	0x43041e00		dss_show_nw_info.xx_msg_const.6
	0x43041e10		dss_show_nw_info.xx_msg_const.8
	0x43041e20		dss_show_nw_info.xx_msg_const.9
	0x43041e30		dss_show_nw_info.xx_msg_const.11
	0x43041e40		dss_show_nw_info.xx_msg_const.12
	0x43041e50		dss_show_nw_info.xx_msg_const.14
	0x43041e60		dss_show_nw_info.xx_msg_const.15
	0x43041e70		dss_show_nw_info.xx_msg_const.17
	0x43041e80		dss_show_nw_info.xx_msg_const.18
	0x43041e90		dss_netctrl_start.xx_msg_const.22
	0x43041ea0		dss_netctrl_start.xx_msg_const.23
	0x43041eb0		dss_netctrl_start.xx_msg_const.25
	0x43041ec0		dss_netctrl_start.xx_msg_const.26
	0x43041ed0		dss_netctrl_start.xx_msg_const.28
	0x43041ee0		dss_netctrl_start.xx_msg_const.29
	0x43041ef0		dss_netctrl_stop.xx_msg_const
	0x43041f00		dss_netctrl_stop.xx_msg_const.31
	0x43041f10		dss_netctrl_stop.xx_msg_const.33
	0x43041f20		dss_netctrl_stop.xx_msg_const.34
	0x43041f30		data_mgr_start_datacall.xx_msg_const
	0x43041f40		data_mgr_start_datacall.xx_msg_const.36
	0x43041f50		data_mgr_start_datacall.xx_msg_const.38
	0x43041f60		data_mgr_start_datacall.xx_msg_const.39
	0x43041f70		data_mgr_task_entry.xx_msg_const
	0x43041f80		data_mgr_task_entry.xx_msg_const.42
	0x43041f90		get_scripted_location_json.xx_msg_const
	0x43041fa0		get_scripted_location_json.xx_msg_const.46
	0x43041fb0		get_scripted_location_json.xx_msg_const.48
	0x43041fc0		get_scripted_location_json.xx_msg_const.49
	0x43041fd0		get_scripted_location_json.xx_msg_const.51
	0x43041fe0		get_scripted_location_json.xx_msg_const.52
	0x43041ff0		get_scripted_location_json.xx_msg_const.54
	0x43042000		get_scripted_location_json.xx_msg_const.55
	0x43042010		get_scripted_location_json.xx_msg_const.58
	0x43042020		get_scripted_location_json.xx_msg_const.59
	0x43042030		get_scripted_location_json.xx_msg_const.61
	0x43042040		get_scripted_location_json.xx_msg_const.62
	0x43042050		get_scripted_location_json.xx_msg_const.72
	0x43042060		get_scripted_location_json.xx_msg_const.73
	0x43042070		get_scripted_location_json.xx_msg_const.75
	0x43042080		get_scripted_location_json.xx_msg_const.76
	0x43042090		dss_netctrl_init.xx_msg_const
	0x430420a0		dss_netctrl_init.xx_msg_const.78
	0x430420b0		dss_netctrl_init.xx_msg_const.80
	0x430420c0		dss_netctrl_init.xx_msg_const.81
	0x430420d0		dss_netctrl_init.xx_msg_const.83
	0x430420e0		dss_netctrl_init.xx_msg_const.84
	0x430420f0		dss_netctrl_init.xx_msg_const.86
	0x43042100		dss_netctrl_init.xx_msg_const.87
	0x43042110		dss_netctrl_init.xx_msg_const.89
	0x43042120		dss_netctrl_init.xx_msg_const.90
	0x43042130		dss_netctrl_init.xx_msg_const.92
	0x43042140		dss_netctrl_init.xx_msg_const.93
	0x43042150		dss_net_event_cb.xx_msg_const
	0x43042160		dss_net_event_cb.xx_msg_const.95
	0x43042170		dss_net_event_cb.xx_msg_const.97
	0x43042180		dss_net_event_cb.xx_msg_const.98
	0x43042190		dss_net_event_cb.xx_msg_const.100
	0x430421a0		dss_net_event_cb.xx_msg_const.101
	0x430421b0		dss_set_data_param.xx_msg_const
	0x430421c0		dss_set_data_param.xx_msg_const.103
	0x430421d0		dss_set_data_param.xx_msg_const.105
	0x430421e0		dss_set_data_param.xx_msg_const.106
	0x430421f0		dss_set_data_param.xx_msg_const.108
	0x43042200		dss_set_data_param.xx_msg_const.109
	0x43042210		dss_set_data_param.xx_msg_const.111
	0x43042220		dss_set_data_param.xx_msg_const.112
	0x43042230		dss_set_data_param.xx_msg_const.114
	0x43042240		dss_set_data_param.xx_msg_const.115
	0x43042250		dss_set_data_param.xx_msg_const.117
	0x43042260		dss_set_data_param.xx_msg_const.118
	0x43042270		dss_set_data_param.xx_msg_const.120
	0x43042280		dss_set_data_param.xx_msg_const.121
	0x43042290		dss_set_data_param.xx_msg_const.123
	0x430422a0		dss_set_data_param.xx_msg_const.124
	0x430422b0		_data_mgr_process_msg.xx_msg_const
	0x430422c0		_data_mgr_process_msg.xx_msg_const.128
	0x430422d0		_data_mgr_process_msg.xx_msg_const.129
	0x430422e0		_data_mgr_process_msg.xx_msg_const.132
	0x430422f0		_data_mgr_process_msg.xx_msg_const.133
	0x43042300		_data_mgr_process_msg.xx_msg_const.135
.rodata.str1.1	0x43042310	0x2a	src\build\aware_client\data_mgr_utils.o	#SHT_PROGBITS,SHF_ALLOC|SHF_MERGE|SHF_STRINGS,1
	0x43042310		.L.str
.rodata.str1.1	0x4304233a	0x2f	src\build\aware_client\data_mgr_utils.o	#SHT_PROGBITS,SHF_ALLOC|SHF_MERGE|SHF_STRINGS,1
	0x4304233a		.L.str.2
.rodata.str1.1	0x43042369	0x10	src\build\aware_client\data_mgr_utils.o	#SHT_PROGBITS,SHF_ALLOC|SHF_MERGE|SHF_STRINGS,1
	0x43042369		.L.str.4
.rodata.str1.1	0x43042379	0x2b	src\build\aware_client\data_mgr_utils.o	#SHT_PROGBITS,SHF_ALLOC|SHF_MERGE|SHF_STRINGS,1
	0x43042379		.L.str.5
.rodata	0x430423a4	0x8c	src\build\aware_client\data_mgr_utils.o	#SHT_PROGBITS,SHF_ALLOC,4
	0x430423a4		data_mgr_signal_init.xx_msg_const
	0x430423b4		data_mgr_signal_init.xx_msg_const.3
	0x430423c4		data_mgr_signal_clear.xx_msg_const
	0x430423d4		data_mgr_signal_clear.xx_msg_const.6
	0x430423e4		encoding_table
	0x43042424		mod_table
.rodata.str1.1	0x43042430	0x5	src\build\aware_client\device_common_config.o	#SHT_PROGBITS,SHF_ALLOC|SHF_MERGE|SHF_STRINGS,1
	0x43042430		.L.str.1
.rodata.str1.1	0x43042435	0x5	src\build\aware_client\device_common_config.o	#SHT_PROGBITS,SHF_ALLOC|SHF_MERGE|SHF_STRINGS,1
	0x43042435		.L.str.2
.rodata.str1.1	0x4304243a	0x5	src\build\aware_client\device_common_config.o	#SHT_PROGBITS,SHF_ALLOC|SHF_MERGE|SHF_STRINGS,1
	0x4304243a		.L.str.3
.rodata.str1.1	0x4304243f	0x7	src\build\aware_client\device_common_config.o	#SHT_PROGBITS,SHF_ALLOC|SHF_MERGE|SHF_STRINGS,1
	0x4304243f		.L.str.4
.rodata.str1.1	0x43042446	0x4	src\build\aware_client\device_common_config.o	#SHT_PROGBITS,SHF_ALLOC|SHF_MERGE|SHF_STRINGS,1
	0x43042446		.L.str.6
.rodata.str1.1	0x4304244a	0x4	src\build\aware_client\device_common_config.o	#SHT_PROGBITS,SHF_ALLOC|SHF_MERGE|SHF_STRINGS,1
	0x4304244a		.L.str.7
.rodata.str1.1	0x4304244e	0x4	src\build\aware_client\device_common_config.o	#SHT_PROGBITS,SHF_ALLOC|SHF_MERGE|SHF_STRINGS,1
	0x4304244e		.L.str.8
.rodata.str1.1	0x43042452	0x4	src\build\aware_client\device_common_config.o	#SHT_PROGBITS,SHF_ALLOC|SHF_MERGE|SHF_STRINGS,1
	0x43042452		.L.str.9
.rodata.str1.1	0x43042456	0x4	src\build\aware_client\device_common_config.o	#SHT_PROGBITS,SHF_ALLOC|SHF_MERGE|SHF_STRINGS,1
	0x43042456		.L.str.10
.rodata.str1.1	0x4304245a	0x34	src\build\aware_client\device_common_config.o	#SHT_PROGBITS,SHF_ALLOC|SHF_MERGE|SHF_STRINGS,1
	0x4304245a		.L.str.13
.rodata.str1.1	0x4304248e	0x22	src\build\aware_client\device_common_config.o	#SHT_PROGBITS,SHF_ALLOC|SHF_MERGE|SHF_STRINGS,1
	0x4304248e		.L.str.15
.rodata.str1.1	0x430424b0	0x25	src\build\aware_client\device_common_config.o	#SHT_PROGBITS,SHF_ALLOC|SHF_MERGE|SHF_STRINGS,1
	0x430424b0		.L.str.20
.rodata.str1.1	0x430424d5	0x1f	src\build\aware_client\device_common_config.o	#SHT_PROGBITS,SHF_ALLOC|SHF_MERGE|SHF_STRINGS,1
	0x430424d5		.L.str.23
.rodata.str1.1	0x430424f4	0x1a	src\build\aware_client\device_common_config.o	#SHT_PROGBITS,SHF_ALLOC|SHF_MERGE|SHF_STRINGS,1
	0x430424f4		.L.str.26
.rodata.str1.1	0x4304250e	0x17	src\build\aware_client\device_common_config.o	#SHT_PROGBITS,SHF_ALLOC|SHF_MERGE|SHF_STRINGS,1
	0x4304250e		.L.str.29
.rodata.str1.1	0x43042525	0x19	src\build\aware_client\device_common_config.o	#SHT_PROGBITS,SHF_ALLOC|SHF_MERGE|SHF_STRINGS,1
	0x43042525		.L.str.32
.rodata.str1.1	0x4304253e	0x1d	src\build\aware_client\device_common_config.o	#SHT_PROGBITS,SHF_ALLOC|SHF_MERGE|SHF_STRINGS,1
	0x4304253e		.L.str.35
.rodata.str1.1	0x4304255b	0x1e	src\build\aware_client\device_common_config.o	#SHT_PROGBITS,SHF_ALLOC|SHF_MERGE|SHF_STRINGS,1
	0x4304255b		.L.str.38
.rodata.str1.1	0x43042579	0x24	src\build\aware_client\device_common_config.o	#SHT_PROGBITS,SHF_ALLOC|SHF_MERGE|SHF_STRINGS,1
	0x43042579		.L.str.41
.rodata.str1.1	0x4304259d	0x24	src\build\aware_client\device_common_config.o	#SHT_PROGBITS,SHF_ALLOC|SHF_MERGE|SHF_STRINGS,1
	0x4304259d		.L.str.44
.rodata.str1.1	0x430425c1	0x1d	src\build\aware_client\device_common_config.o	#SHT_PROGBITS,SHF_ALLOC|SHF_MERGE|SHF_STRINGS,1
	0x430425c1		.L.str.47
.rodata.str1.1	0x430425de	0x6	src\build\aware_client\device_common_config.o	#SHT_PROGBITS,SHF_ALLOC|SHF_MERGE|SHF_STRINGS,1
	0x430425de		.L.str.52
.rodata.str1.1	0x430425e4	0xb	src\build\aware_client\device_common_config.o	#SHT_PROGBITS,SHF_ALLOC|SHF_MERGE|SHF_STRINGS,1
	0x430425e4		.L.str.55
PADDING_ALIGNMENT	0x430425ef	0x1	0x0
.rodata	0x430425f0	0x200	src\build\aware_client\device_common_config.o	#SHT_PROGBITS,SHF_ALLOC,4
	0x430425f0		device_static_common_load.xx_msg_const
	0x43042600		device_static_common_load.xx_msg_const.14
	0x43042610		device_static_common_load.xx_msg_const.16
	0x43042620		device_static_common_load.xx_msg_const.17
	0x43042630		device_static_common_load.xx_msg_const.18
	0x43042640		device_static_common_load.xx_msg_const.19
	0x43042650		device_static_common_load.xx_msg_const.21
	0x43042660		device_static_common_load.xx_msg_const.22
	0x43042670		device_static_common_load.xx_msg_const.24
	0x43042680		device_static_common_load.xx_msg_const.25
	0x43042690		device_static_common_load.xx_msg_const.27
	0x430426a0		device_static_common_load.xx_msg_const.28
	0x430426b0		device_static_common_load.xx_msg_const.30
	0x430426c0		device_static_common_load.xx_msg_const.31
	0x430426d0		device_static_common_load.xx_msg_const.33
	0x430426e0		device_static_common_load.xx_msg_const.34
	0x430426f0		device_static_common_load.xx_msg_const.36
	0x43042700		device_static_common_load.xx_msg_const.37
	0x43042710		device_static_common_load.xx_msg_const.39
	0x43042720		device_static_common_load.xx_msg_const.40
	0x43042730		device_static_common_load.xx_msg_const.42
	0x43042740		device_static_common_load.xx_msg_const.43
	0x43042750		device_static_common_load.xx_msg_const.45
	0x43042760		device_static_common_load.xx_msg_const.46
	0x43042770		device_static_common_load.xx_msg_const.48
	0x43042780		device_static_common_load.xx_msg_const.49
	0x43042790		device_static_common_load.xx_msg_const.50
	0x430427a0		device_static_common_load.xx_msg_const.51
	0x430427b0		fota_version_update.xx_msg_const
	0x430427c0		fota_version_update.xx_msg_const.53
	0x430427d0		device_static_common_update.xx_msg_const
	0x430427e0		device_static_common_update.xx_msg_const.56
.rodata.str1.1	0x430427f0	0x2	src\build\aware_client\device_general_config.o	#SHT_PROGBITS,SHF_ALLOC|SHF_MERGE|SHF_STRINGS,1
	0x430427f0		.L.str.1
.rodata.str1.1	0x430427f2	0x2	src\build\aware_client\device_general_config.o	#SHT_PROGBITS,SHF_ALLOC|SHF_MERGE|SHF_STRINGS,1
	0x430427f2		.L.str.2
.rodata.str1.1	0x430427f4	0x2	src\build\aware_client\device_general_config.o	#SHT_PROGBITS,SHF_ALLOC|SHF_MERGE|SHF_STRINGS,1
	0x430427f4		.L.str.3
.rodata.str1.1	0x430427f6	0x3	src\build\aware_client\device_general_config.o	#SHT_PROGBITS,SHF_ALLOC|SHF_MERGE|SHF_STRINGS,1
	0x430427f6		.L.str.4
.rodata.str1.1	0x430427f9	0x3	src\build\aware_client\device_general_config.o	#SHT_PROGBITS,SHF_ALLOC|SHF_MERGE|SHF_STRINGS,1
	0x430427f9		.L.str.5
.rodata.str1.1	0x430427fc	0x4	src\build\aware_client\device_general_config.o	#SHT_PROGBITS,SHF_ALLOC|SHF_MERGE|SHF_STRINGS,1
	0x430427fc		.L.str.6
.rodata.str1.1	0x43042800	0x5	src\build\aware_client\device_general_config.o	#SHT_PROGBITS,SHF_ALLOC|SHF_MERGE|SHF_STRINGS,1
	0x43042800		.L.str.7
.rodata.str1.1	0x43042805	0x4	src\build\aware_client\device_general_config.o	#SHT_PROGBITS,SHF_ALLOC|SHF_MERGE|SHF_STRINGS,1
	0x43042805		.L.str.8
.rodata.str1.1	0x43042809	0x24	src\build\aware_client\device_general_config.o	#SHT_PROGBITS,SHF_ALLOC|SHF_MERGE|SHF_STRINGS,1
	0x43042809		.L.str.10
.rodata.str1.1	0x4304282d	0x35	src\build\aware_client\device_general_config.o	#SHT_PROGBITS,SHF_ALLOC|SHF_MERGE|SHF_STRINGS,1
	0x4304282d		.L.str.12
.rodata.str1.1	0x43042862	0x21	src\build\aware_client\device_general_config.o	#SHT_PROGBITS,SHF_ALLOC|SHF_MERGE|SHF_STRINGS,1
	0x43042862		.L.str.17
.rodata.str1.1	0x43042883	0x1c	src\build\aware_client\device_general_config.o	#SHT_PROGBITS,SHF_ALLOC|SHF_MERGE|SHF_STRINGS,1
	0x43042883		.L.str.20
.rodata.str1.1	0x4304289f	0x18	src\build\aware_client\device_general_config.o	#SHT_PROGBITS,SHF_ALLOC|SHF_MERGE|SHF_STRINGS,1
	0x4304289f		.L.str.23
.rodata.str1.1	0x430428b7	0x1f	src\build\aware_client\device_general_config.o	#SHT_PROGBITS,SHF_ALLOC|SHF_MERGE|SHF_STRINGS,1
	0x430428b7		.L.str.26
.rodata.str1.1	0x430428d6	0x1b	src\build\aware_client\device_general_config.o	#SHT_PROGBITS,SHF_ALLOC|SHF_MERGE|SHF_STRINGS,1
	0x430428d6		.L.str.29
.rodata.str1.1	0x430428f1	0x23	src\build\aware_client\device_general_config.o	#SHT_PROGBITS,SHF_ALLOC|SHF_MERGE|SHF_STRINGS,1
	0x430428f1		.L.str.32
.rodata.str1.1	0x43042914	0x26	src\build\aware_client\device_general_config.o	#SHT_PROGBITS,SHF_ALLOC|SHF_MERGE|SHF_STRINGS,1
	0x43042914		.L.str.35
.rodata.str1.1	0x4304293a	0x25	src\build\aware_client\device_general_config.o	#SHT_PROGBITS,SHF_ALLOC|SHF_MERGE|SHF_STRINGS,1
	0x4304293a		.L.str.38
PADDING_ALIGNMENT	0x4304295f	0x1	0x0
.rodata	0x43042960	0x180	src\build\aware_client\device_general_config.o	#SHT_PROGBITS,SHF_ALLOC,4
	0x43042960		device_general_config_load.xx_msg_const
	0x43042970		device_general_config_load.xx_msg_const.13
	0x43042980		device_general_config_load.xx_msg_const.15
	0x43042990		device_general_config_load.xx_msg_const.16
	0x430429a0		device_general_config_load.xx_msg_const.18
	0x430429b0		device_general_config_load.xx_msg_const.19
	0x430429c0		device_general_config_load.xx_msg_const.21
	0x430429d0		device_general_config_load.xx_msg_const.22
	0x430429e0		device_general_config_load.xx_msg_const.24
	0x430429f0		device_general_config_load.xx_msg_const.25
	0x43042a00		device_general_config_load.xx_msg_const.27
	0x43042a10		device_general_config_load.xx_msg_const.28
	0x43042a20		device_general_config_load.xx_msg_const.30
	0x43042a30		device_general_config_load.xx_msg_const.31
	0x43042a40		device_general_config_load.xx_msg_const.33
	0x43042a50		device_general_config_load.xx_msg_const.34
	0x43042a60		device_general_config_load.xx_msg_const.36
	0x43042a70		device_general_config_load.xx_msg_const.37
	0x43042a80		device_general_config_load.xx_msg_const.39
	0x43042a90		device_general_config_load.xx_msg_const.40
	0x43042aa0		device_general_config_load.xx_msg_const.42
	0x43042ab0		device_general_config_load.xx_msg_const.43
	0x43042ac0		device_general_config_load.xx_msg_const.44
	0x43042ad0		device_general_config_load.xx_msg_const.45
.rodata.str1.1	0x43042ae0	0x3	src\build\aware_client\device_unique_config.o	#SHT_PROGBITS,SHF_ALLOC|SHF_MERGE|SHF_STRINGS,1
	0x43042ae0		.L.str.3
.rodata.str1.1	0x43042ae3	0x3	src\build\aware_client\device_unique_config.o	#SHT_PROGBITS,SHF_ALLOC|SHF_MERGE|SHF_STRINGS,1
	0x43042ae3		.L.str.4
.rodata.str1.1	0x43042ae6	0x24	src\build\aware_client\device_unique_config.o	#SHT_PROGBITS,SHF_ALLOC|SHF_MERGE|SHF_STRINGS,1
	0x43042ae6		.L.str.5
.rodata.str1.1	0x43042b0a	0x34	src\build\aware_client\device_unique_config.o	#SHT_PROGBITS,SHF_ALLOC|SHF_MERGE|SHF_STRINGS,1
	0x43042b0a		.L.str.7
.rodata.str1.1	0x43042b3e	0x19	src\build\aware_client\device_unique_config.o	#SHT_PROGBITS,SHF_ALLOC|SHF_MERGE|SHF_STRINGS,1
	0x43042b3e		.L.str.12
.rodata.str1.1	0x43042b57	0x1d	src\build\aware_client\device_unique_config.o	#SHT_PROGBITS,SHF_ALLOC|SHF_MERGE|SHF_STRINGS,1
	0x43042b57		.L.str.15
.rodata.str1.1	0x43042b74	0x1b	src\build\aware_client\device_unique_config.o	#SHT_PROGBITS,SHF_ALLOC|SHF_MERGE|SHF_STRINGS,1
	0x43042b74		.L.str.18
.rodata.str1.1	0x43042b8f	0x1b	src\build\aware_client\device_unique_config.o	#SHT_PROGBITS,SHF_ALLOC|SHF_MERGE|SHF_STRINGS,1
	0x43042b8f		.L.str.21
PADDING_ALIGNMENT	0x43042baa	0x2	0x0
.rodata	0x43042bac	0xe0	src\build\aware_client\device_unique_config.o	#SHT_PROGBITS,SHF_ALLOC,4
	0x43042bac		device_unique_config_load.xx_msg_const
	0x43042bbc		device_unique_config_load.xx_msg_const.8
	0x43042bcc		device_unique_config_load.xx_msg_const.10
	0x43042bdc		device_unique_config_load.xx_msg_const.11
	0x43042bec		device_unique_config_load.xx_msg_const.13
	0x43042bfc		device_unique_config_load.xx_msg_const.14
	0x43042c0c		device_unique_config_load.xx_msg_const.16
	0x43042c1c		device_unique_config_load.xx_msg_const.17
	0x43042c2c		device_unique_config_load.xx_msg_const.19
	0x43042c3c		device_unique_config_load.xx_msg_const.20
	0x43042c4c		device_unique_config_load.xx_msg_const.22
	0x43042c5c		device_unique_config_load.xx_msg_const.23
	0x43042c6c		device_unique_config_load.xx_msg_const.24
	0x43042c7c		device_unique_config_load.xx_msg_const.25
.rodata.str1.1	0x43042c8c	0x28	src\build\aware_client\fota_client.o	#SHT_PROGBITS,SHF_ALLOC|SHF_MERGE|SHF_STRINGS,1
	0x43042c8c		.L.str
.rodata.str1.1	0x43042cb4	0x28	src\build\aware_client\fota_client.o	#SHT_PROGBITS,SHF_ALLOC|SHF_MERGE|SHF_STRINGS,1
	0x43042cb4		.L.str.2
.rodata.str1.1	0x43042cdc	0x33	src\build\aware_client\fota_client.o	#SHT_PROGBITS,SHF_ALLOC|SHF_MERGE|SHF_STRINGS,1
	0x43042cdc		.L.str.4
.rodata.str1.1	0x43042d0f	0xa	src\build\aware_client\fota_client.o	#SHT_PROGBITS,SHF_ALLOC|SHF_MERGE|SHF_STRINGS,1
	0x43042d0f		.L.str.7
.rodata.str1.1	0x43042d19	0x2b	src\build\aware_client\fota_client.o	#SHT_PROGBITS,SHF_ALLOC|SHF_MERGE|SHF_STRINGS,1
	0x43042d19		.L.str.8
.rodata.str1.1	0x43042d44	0x31	src\build\aware_client\fota_client.o	#SHT_PROGBITS,SHF_ALLOC|SHF_MERGE|SHF_STRINGS,1
	0x43042d44		.L.str.11
.rodata.str1.1	0x43042d75	0x3a	src\build\aware_client\fota_client.o	#SHT_PROGBITS,SHF_ALLOC|SHF_MERGE|SHF_STRINGS,1
	0x43042d75		.L.str.14
.rodata.str1.1	0x43042daf	0x1a	src\build\aware_client\fota_client.o	#SHT_PROGBITS,SHF_ALLOC|SHF_MERGE|SHF_STRINGS,1
	0x43042daf		.L.str.17
.rodata.str1.1	0x43042dc9	0x31	src\build\aware_client\fota_client.o	#SHT_PROGBITS,SHF_ALLOC|SHF_MERGE|SHF_STRINGS,1
	0x43042dc9		.L.str.18
.rodata.str1.1	0x43042dfa	0x31	src\build\aware_client\fota_client.o	#SHT_PROGBITS,SHF_ALLOC|SHF_MERGE|SHF_STRINGS,1
	0x43042dfa		.L.str.21
PADDING_ALIGNMENT	0x43042e2b	0x1	0x0
.rodata	0x43042e2c	0xe0	src\build\aware_client\fota_client.o	#SHT_PROGBITS,SHF_ALLOC,4
	0x43042e2c		send_fota_trigger.xx_msg_const
	0x43042e3c		send_fota_trigger.xx_msg_const.3
	0x43042e4c		send_fota_trigger.xx_msg_const.5
	0x43042e5c		send_fota_trigger.xx_msg_const.6
	0x43042e6c		send_fota_trigger.xx_msg_const.9
	0x43042e7c		send_fota_trigger.xx_msg_const.10
	0x43042e8c		send_fota_trigger.xx_msg_const.12
	0x43042e9c		send_fota_trigger.xx_msg_const.13
	0x43042eac		send_fota_trigger.xx_msg_const.15
	0x43042ebc		send_fota_trigger.xx_msg_const.16
	0x43042ecc		send_fota_trigger.xx_msg_const.19
	0x43042edc		send_fota_trigger.xx_msg_const.20
	0x43042eec		send_fota_trigger.xx_msg_const.22
	0x43042efc		send_fota_trigger.xx_msg_const.23
.rodata.str1.1	0x43042f0c	0x9	src\build\aware_client\fota_dam_download.o	#SHT_PROGBITS,SHF_ALLOC|SHF_MERGE|SHF_STRINGS,1
	0x43042f0c		.L.str
.rodata.str1.1	0x43042f15	0x8	src\build\aware_client\fota_dam_download.o	#SHT_PROGBITS,SHF_ALLOC|SHF_MERGE|SHF_STRINGS,1
	0x43042f15		.L.str.1
.rodata.str1.1	0x43042f1d	0x3a	src\build\aware_client\fota_dam_download.o	#SHT_PROGBITS,SHF_ALLOC|SHF_MERGE|SHF_STRINGS,1
	0x43042f1d		.L.str.2
.rodata.str1.1	0x43042f57	0x2e	src\build\aware_client\fota_dam_download.o	#SHT_PROGBITS,SHF_ALLOC|SHF_MERGE|SHF_STRINGS,1
	0x43042f57		.L.str.4
.rodata.str1.1	0x43042f85	0x28	src\build\aware_client\fota_dam_download.o	#SHT_PROGBITS,SHF_ALLOC|SHF_MERGE|SHF_STRINGS,1
	0x43042f85		.L.str.6
.rodata.str1.1	0x43042fad	0x1f	src\build\aware_client\fota_dam_download.o	#SHT_PROGBITS,SHF_ALLOC|SHF_MERGE|SHF_STRINGS,1
	0x43042fad		.L.str.7
.rodata.str1.1	0x43042fcc	0x1e	src\build\aware_client\fota_dam_download.o	#SHT_PROGBITS,SHF_ALLOC|SHF_MERGE|SHF_STRINGS,1
	0x43042fcc		.L.str.10
.rodata.str1.1	0x43042fea	0x28	src\build\aware_client\fota_dam_download.o	#SHT_PROGBITS,SHF_ALLOC|SHF_MERGE|SHF_STRINGS,1
	0x43042fea		.L.str.13
.rodata.str1.1	0x43043012	0x20	src\build\aware_client\fota_dam_download.o	#SHT_PROGBITS,SHF_ALLOC|SHF_MERGE|SHF_STRINGS,1
	0x43043012		.L.str.16
.rodata.str1.1	0x43043032	0x2d	src\build\aware_client\fota_dam_download.o	#SHT_PROGBITS,SHF_ALLOC|SHF_MERGE|SHF_STRINGS,1
	0x43043032		.L.str.19
.rodata.str1.1	0x4304305f	0x29	src\build\aware_client\fota_dam_download.o	#SHT_PROGBITS,SHF_ALLOC|SHF_MERGE|SHF_STRINGS,1
	0x4304305f		.L.str.22
.rodata.str1.1	0x43043088	0x1e	src\build\aware_client\fota_dam_download.o	#SHT_PROGBITS,SHF_ALLOC|SHF_MERGE|SHF_STRINGS,1
	0x43043088		.L.str.31
.rodata.str1.1	0x430430a6	0x30	src\build\aware_client\fota_dam_download.o	#SHT_PROGBITS,SHF_ALLOC|SHF_MERGE|SHF_STRINGS,1
	0x430430a6		.L.str.34
.rodata.str1.1	0x430430d6	0x2c	src\build\aware_client\fota_dam_download.o	#SHT_PROGBITS,SHF_ALLOC|SHF_MERGE|SHF_STRINGS,1
	0x430430d6		.L.str.37
.rodata.str1.1	0x43043102	0x2d	src\build\aware_client\fota_dam_download.o	#SHT_PROGBITS,SHF_ALLOC|SHF_MERGE|SHF_STRINGS,1
	0x43043102		.L.str.40
.rodata.str1.1	0x4304312f	0x48	src\build\aware_client\fota_dam_download.o	#SHT_PROGBITS,SHF_ALLOC|SHF_MERGE|SHF_STRINGS,1
	0x4304312f		.L.str.42
.rodata.str1.1	0x43043177	0x32	src\build\aware_client\fota_dam_download.o	#SHT_PROGBITS,SHF_ALLOC|SHF_MERGE|SHF_STRINGS,1
	0x43043177		.L.str.45
.rodata.str1.1	0x430431a9	0x30	src\build\aware_client\fota_dam_download.o	#SHT_PROGBITS,SHF_ALLOC|SHF_MERGE|SHF_STRINGS,1
	0x430431a9		.L.str.48
.rodata.str1.1	0x430431d9	0x24	src\build\aware_client\fota_dam_download.o	#SHT_PROGBITS,SHF_ALLOC|SHF_MERGE|SHF_STRINGS,1
	0x430431d9		.L.str.51
.rodata.str1.1	0x430431fd	0xb	src\build\aware_client\fota_dam_download.o	#SHT_PROGBITS,SHF_ALLOC|SHF_MERGE|SHF_STRINGS,1
	0x430431fd		.L.str.53
.rodata.str1.1	0x43043208	0x21	src\build\aware_client\fota_dam_download.o	#SHT_PROGBITS,SHF_ALLOC|SHF_MERGE|SHF_STRINGS,1
	0x43043208		.L.str.54
.rodata.str1.1	0x43043229	0x6	src\build\aware_client\fota_dam_download.o	#SHT_PROGBITS,SHF_ALLOC|SHF_MERGE|SHF_STRINGS,1
	0x43043229		.L.str.57
.rodata.str1.1	0x4304322f	0x46	src\build\aware_client\fota_dam_download.o	#SHT_PROGBITS,SHF_ALLOC|SHF_MERGE|SHF_STRINGS,1
	0x4304322f		.L.str.58
.rodata.str1.1	0x43043275	0x42	src\build\aware_client\fota_dam_download.o	#SHT_PROGBITS,SHF_ALLOC|SHF_MERGE|SHF_STRINGS,1
	0x43043275		.L.str.61
.rodata.str1.1	0x430432b7	0x3a	src\build\aware_client\fota_dam_download.o	#SHT_PROGBITS,SHF_ALLOC|SHF_MERGE|SHF_STRINGS,1
	0x430432b7		.L.str.66
.rodata.str1.1	0x430432f1	0x2d	src\build\aware_client\fota_dam_download.o	#SHT_PROGBITS,SHF_ALLOC|SHF_MERGE|SHF_STRINGS,1
	0x430432f1		.L.str.71
.rodata.str1.1	0x4304331e	0x2f	src\build\aware_client\fota_dam_download.o	#SHT_PROGBITS,SHF_ALLOC|SHF_MERGE|SHF_STRINGS,1
	0x4304331e		.L.str.73
.rodata.str1.1	0x4304334d	0x24	src\build\aware_client\fota_dam_download.o	#SHT_PROGBITS,SHF_ALLOC|SHF_MERGE|SHF_STRINGS,1
	0x4304334d		.L.str.76
.rodata.str1.1	0x43043371	0x30	src\build\aware_client\fota_dam_download.o	#SHT_PROGBITS,SHF_ALLOC|SHF_MERGE|SHF_STRINGS,1
	0x43043371		.L.str.79
.rodata.str1.1	0x430433a1	0x20	src\build\aware_client\fota_dam_download.o	#SHT_PROGBITS,SHF_ALLOC|SHF_MERGE|SHF_STRINGS,1
	0x430433a1		.L.str.82
.rodata.str1.1	0x430433c1	0x40	src\build\aware_client\fota_dam_download.o	#SHT_PROGBITS,SHF_ALLOC|SHF_MERGE|SHF_STRINGS,1
	0x430433c1		.L.str.85
.rodata.str1.1	0x43043401	0x23	src\build\aware_client\fota_dam_download.o	#SHT_PROGBITS,SHF_ALLOC|SHF_MERGE|SHF_STRINGS,1
	0x43043401		.L.str.88
.rodata.str1.1	0x43043424	0x30	src\build\aware_client\fota_dam_download.o	#SHT_PROGBITS,SHF_ALLOC|SHF_MERGE|SHF_STRINGS,1
	0x43043424		.L.str.90
.rodata.str1.1	0x43043454	0x13	src\build\aware_client\fota_dam_download.o	#SHT_PROGBITS,SHF_ALLOC|SHF_MERGE|SHF_STRINGS,1
	0x43043454		.L.str.93
.rodata.str1.1	0x43043467	0x23	src\build\aware_client\fota_dam_download.o	#SHT_PROGBITS,SHF_ALLOC|SHF_MERGE|SHF_STRINGS,1
	0x43043467		.L.str.94
.rodata.str1.1	0x4304348a	0x44	src\build\aware_client\fota_dam_download.o	#SHT_PROGBITS,SHF_ALLOC|SHF_MERGE|SHF_STRINGS,1
	0x4304348a		.L.str.97
PADDING_ALIGNMENT	0x430434ce	0x2	0x0
.rodata	0x430434d0	0x440	src\build\aware_client\fota_dam_download.o	#SHT_PROGBITS,SHF_ALLOC,4
	0x430434d0		dam_download_cb.xx_msg_const
	0x430434e0		dam_download_cb.xx_msg_const.5
	0x430434f0		dam_download_cb.xx_msg_const.8
	0x43043500		dam_download_cb.xx_msg_const.9
	0x43043510		dam_download_cb.xx_msg_const.11
	0x43043520		dam_download_cb.xx_msg_const.12
	0x43043530		dam_download_cb.xx_msg_const.14
	0x43043540		dam_download_cb.xx_msg_const.15
	0x43043550		dam_download_cb.xx_msg_const.17
	0x43043560		dam_download_cb.xx_msg_const.18
	0x43043570		dam_download_cb.xx_msg_const.20
	0x43043580		dam_download_cb.xx_msg_const.21
	0x43043590		dam_download_cb.xx_msg_const.23
	0x430435a0		dam_download_cb.xx_msg_const.24
	0x430435b0		dam_download_cb.xx_msg_const.25
	0x430435c0		dam_download_cb.xx_msg_const.26
	0x430435d0		dam_download_cb.xx_msg_const.27
	0x430435e0		dam_download_cb.xx_msg_const.28
	0x430435f0		dam_download_cb.xx_msg_const.29
	0x43043600		dam_download_cb.xx_msg_const.30
	0x43043610		dam_download_cb.xx_msg_const.32
	0x43043620		dam_download_cb.xx_msg_const.33
	0x43043630		dam_download_cb.xx_msg_const.35
	0x43043640		dam_download_cb.xx_msg_const.36
	0x43043650		dam_download_cb.xx_msg_const.38
	0x43043660		dam_download_cb.xx_msg_const.39
	0x43043670		dam_download.xx_msg_const
	0x43043680		dam_download.xx_msg_const.41
	0x43043690		dam_download.xx_msg_const.43
	0x430436a0		dam_download.xx_msg_const.44
	0x430436b0		dam_download.xx_msg_const.46
	0x430436c0		dam_download.xx_msg_const.47
	0x430436d0		dam_download.xx_msg_const.49
	0x430436e0		dam_download.xx_msg_const.50
	0x430436f0		dam_download_process.xx_msg_const
	0x43043700		dam_download_process.xx_msg_const.52
	0x43043710		dam_download_process.xx_msg_const.55
	0x43043720		dam_download_process.xx_msg_const.56
	0x43043730		dam_download_process.xx_msg_const.59
	0x43043740		dam_download_process.xx_msg_const.60
	0x43043750		dam_download_process.xx_msg_const.62
	0x43043760		dam_download_process.xx_msg_const.63
	0x43043770		dam_download_process.xx_msg_const.64
	0x43043780		dam_download_process.xx_msg_const.65
	0x43043790		dam_download_process.xx_msg_const.67
	0x430437a0		dam_download_process.xx_msg_const.68
	0x430437b0		dam_download_process.xx_msg_const.69
	0x430437c0		dam_download_process.xx_msg_const.70
	0x430437d0		prepare_for_dam_download.xx_msg_const
	0x430437e0		prepare_for_dam_download.xx_msg_const.72
	0x430437f0		prepare_for_dam_download.xx_msg_const.74
	0x43043800		prepare_for_dam_download.xx_msg_const.75
	0x43043810		prepare_for_dam_download.xx_msg_const.77
	0x43043820		prepare_for_dam_download.xx_msg_const.78
	0x43043830		prepare_for_dam_download.xx_msg_const.80
	0x43043840		prepare_for_dam_download.xx_msg_const.81
	0x43043850		prepare_for_dam_download.xx_msg_const.83
	0x43043860		prepare_for_dam_download.xx_msg_const.84
	0x43043870		prepare_for_dam_download.xx_msg_const.86
	0x43043880		prepare_for_dam_download.xx_msg_const.87
	0x43043890		start_fota_dam_download.xx_msg_const
	0x430438a0		start_fota_dam_download.xx_msg_const.89
	0x430438b0		start_fota_dam_download.xx_msg_const.91
	0x430438c0		start_fota_dam_download.xx_msg_const.92
	0x430438d0		start_fota_dam_download.xx_msg_const.95
	0x430438e0		start_fota_dam_download.xx_msg_const.96
	0x430438f0		start_fota_dam_download.xx_msg_const.98
	0x43043900		start_fota_dam_download.xx_msg_const.99
.rodata.str1.1	0x43043910	0x13	src\build\aware_client\fota_dam_swapping.o	#SHT_PROGBITS,SHF_ALLOC|SHF_MERGE|SHF_STRINGS,1
	0x43043910		.L.str
.rodata.str1.1	0x43043923	0x1e	src\build\aware_client\fota_dam_swapping.o	#SHT_PROGBITS,SHF_ALLOC|SHF_MERGE|SHF_STRINGS,1
	0x43043923		.L.str.1
.rodata.str1.1	0x43043941	0x2e	src\build\aware_client\fota_dam_swapping.o	#SHT_PROGBITS,SHF_ALLOC|SHF_MERGE|SHF_STRINGS,1
	0x43043941		.L.str.3
.rodata.str1.1	0x4304396f	0x15	src\build\aware_client\fota_dam_swapping.o	#SHT_PROGBITS,SHF_ALLOC|SHF_MERGE|SHF_STRINGS,1
	0x4304396f		.L.str.5
.rodata.str1.1	0x43043984	0x20	src\build\aware_client\fota_dam_swapping.o	#SHT_PROGBITS,SHF_ALLOC|SHF_MERGE|SHF_STRINGS,1
	0x43043984		.L.str.6
.rodata.str1.1	0x430439a4	0x29	src\build\aware_client\fota_dam_swapping.o	#SHT_PROGBITS,SHF_ALLOC|SHF_MERGE|SHF_STRINGS,1
	0x430439a4		.L.str.9
.rodata.str1.1	0x430439cd	0x22	src\build\aware_client\fota_dam_swapping.o	#SHT_PROGBITS,SHF_ALLOC|SHF_MERGE|SHF_STRINGS,1
	0x430439cd		.L.str.10
.rodata.str1.1	0x430439ef	0x20	src\build\aware_client\fota_dam_swapping.o	#SHT_PROGBITS,SHF_ALLOC|SHF_MERGE|SHF_STRINGS,1
	0x430439ef		.L.str.14
.rodata.str1.1	0x43043a0f	0x1c	src\build\aware_client\fota_dam_swapping.o	#SHT_PROGBITS,SHF_ALLOC|SHF_MERGE|SHF_STRINGS,1
	0x43043a0f		.L.str.17
.rodata.str1.1	0x43043a2b	0x51	src\build\aware_client\fota_dam_swapping.o	#SHT_PROGBITS,SHF_ALLOC|SHF_MERGE|SHF_STRINGS,1
	0x43043a2b		.L.str.18
.rodata.str1.1	0x43043a7c	0x39	src\build\aware_client\fota_dam_swapping.o	#SHT_PROGBITS,SHF_ALLOC|SHF_MERGE|SHF_STRINGS,1
	0x43043a7c		.L.str.20
.rodata.str1.1	0x43043ab5	0x39	src\build\aware_client\fota_dam_swapping.o	#SHT_PROGBITS,SHF_ALLOC|SHF_MERGE|SHF_STRINGS,1
	0x43043ab5		.L.str.23
PADDING_ALIGNMENT	0x43043aee	0x2	0x0
.rodata	0x43043af0	0xe0	src\build\aware_client\fota_dam_swapping.o	#SHT_PROGBITS,SHF_ALLOC,4
	0x43043af0		setup_dam_ota_update_dir.xx_msg_const
	0x43043b00		setup_dam_ota_update_dir.xx_msg_const.4
	0x43043b10		setup_dam_ota_update_dir.xx_msg_const.7
	0x43043b20		setup_dam_ota_update_dir.xx_msg_const.8
	0x43043b30		setup_dam_ota_update_dir.xx_msg_const.11
	0x43043b40		setup_dam_ota_update_dir.xx_msg_const.12
	0x43043b50		setup_dam_ota_update_dir.xx_msg_const.15
	0x43043b60		setup_dam_ota_update_dir.xx_msg_const.16
	0x43043b70		swap_dam_file.xx_msg_const
	0x43043b80		swap_dam_file.xx_msg_const.19
	0x43043b90		swap_dam_file.xx_msg_const.21
	0x43043ba0		swap_dam_file.xx_msg_const.22
	0x43043bb0		swap_dam_file.xx_msg_const.24
	0x43043bc0		swap_dam_file.xx_msg_const.25
.rodata.str1.1	0x43043bd0	0x32	src\build\aware_client\fota_thread.o	#SHT_PROGBITS,SHF_ALLOC|SHF_MERGE|SHF_STRINGS,1
	0x43043bd0		.L.str
.rodata.str1.1	0x43043c02	0x28	src\build\aware_client\fota_thread.o	#SHT_PROGBITS,SHF_ALLOC|SHF_MERGE|SHF_STRINGS,1
	0x43043c02		.L.str.2
.rodata.str1.1	0x43043c2a	0xc	src\build\aware_client\fota_thread.o	#SHT_PROGBITS,SHF_ALLOC|SHF_MERGE|SHF_STRINGS,1
	0x43043c2a		.L.str.4
.rodata.str1.1	0x43043c36	0x2f	src\build\aware_client\fota_thread.o	#SHT_PROGBITS,SHF_ALLOC|SHF_MERGE|SHF_STRINGS,1
	0x43043c36		.L.str.5
.rodata.str1.1	0x43043c65	0x20	src\build\aware_client\fota_thread.o	#SHT_PROGBITS,SHF_ALLOC|SHF_MERGE|SHF_STRINGS,1
	0x43043c65		.L.str.6
.rodata.str1.1	0x43043c85	0x37	src\build\aware_client\fota_thread.o	#SHT_PROGBITS,SHF_ALLOC|SHF_MERGE|SHF_STRINGS,1
	0x43043c85		.L.str.9
.rodata.str1.1	0x43043cbc	0x12	src\build\aware_client\fota_thread.o	#SHT_PROGBITS,SHF_ALLOC|SHF_MERGE|SHF_STRINGS,1
	0x43043cbc		.L.str.11
.rodata.str1.1	0x43043cce	0x2f	src\build\aware_client\fota_thread.o	#SHT_PROGBITS,SHF_ALLOC|SHF_MERGE|SHF_STRINGS,1
	0x43043cce		.L.str.12
.rodata.str1.1	0x43043cfd	0x2b	src\build\aware_client\fota_thread.o	#SHT_PROGBITS,SHF_ALLOC|SHF_MERGE|SHF_STRINGS,1
	0x43043cfd		.L.str.13
.rodata.str1.1	0x43043d28	0x48	src\build\aware_client\fota_thread.o	#SHT_PROGBITS,SHF_ALLOC|SHF_MERGE|SHF_STRINGS,1
	0x43043d28		.L.str.15
.rodata.str1.1	0x43043d70	0x2b	src\build\aware_client\fota_thread.o	#SHT_PROGBITS,SHF_ALLOC|SHF_MERGE|SHF_STRINGS,1
	0x43043d70		.L.str.18
PADDING_ALIGNMENT	0x43043d9b	0x1	0x0
.rodata	0x43043d9c	0xd0	src\build\aware_client\fota_thread.o	#SHT_PROGBITS,SHF_ALLOC,4
	0x43043d9c		fota_thread_task_entry.xx_msg_const
	0x43043dac		fota_thread_task_entry.xx_msg_const.3
	0x43043dbc		_fota_thread_process_msg.xx_msg_const
	0x43043dcc		_fota_thread_process_msg.xx_msg_const.7
	0x43043ddc		_fota_thread_process_msg.xx_msg_const.8
	0x43043dec		_fota_thread_process_msg.xx_msg_const.10
	0x43043dfc		_fota_thread_handle_msg_init.xx_msg_const
	0x43043e0c		_fota_thread_handle_dam_download.xx_msg_const
	0x43043e1c		_fota_thread_handle_dam_download.xx_msg_const.14
	0x43043e2c		_fota_thread_handle_dam_download.xx_msg_const.16
	0x43043e3c		_fota_thread_handle_dam_download.xx_msg_const.17
	0x43043e4c		_fota_thread_handle_dam_download.xx_msg_const.19
	0x43043e5c		_fota_thread_handle_dam_download.xx_msg_const.20
.rodata.str1.1	0x43043e6c	0x27	src\build\aware_client\gnss_worker_sm.o	#SHT_PROGBITS,SHF_ALLOC|SHF_MERGE|SHF_STRINGS,1
	0x43043e6c		.L.str
.rodata.str1.1	0x43043e93	0x2b	src\build\aware_client\gnss_worker_sm.o	#SHT_PROGBITS,SHF_ALLOC|SHF_MERGE|SHF_STRINGS,1
	0x43043e93		.L.str.2
.rodata.str1.1	0x43043ebe	0x14	src\build\aware_client\gnss_worker_sm.o	#SHT_PROGBITS,SHF_ALLOC|SHF_MERGE|SHF_STRINGS,1
	0x43043ebe		.L.str.4
.rodata.str1.1	0x43043ed2	0x14	src\build\aware_client\gnss_worker_sm.o	#SHT_PROGBITS,SHF_ALLOC|SHF_MERGE|SHF_STRINGS,1
	0x43043ed2		.L.str.6
.rodata.str1.1	0x43043ee6	0x21	src\build\aware_client\gnss_worker_sm.o	#SHT_PROGBITS,SHF_ALLOC|SHF_MERGE|SHF_STRINGS,1
	0x43043ee6		.L.str.9
.rodata.str1.1	0x43043f07	0x18	src\build\aware_client\gnss_worker_sm.o	#SHT_PROGBITS,SHF_ALLOC|SHF_MERGE|SHF_STRINGS,1
	0x43043f07		.L.str.12
.rodata.str1.1	0x43043f1f	0x16	src\build\aware_client\gnss_worker_sm.o	#SHT_PROGBITS,SHF_ALLOC|SHF_MERGE|SHF_STRINGS,1
	0x43043f1f		.L.str.15
.rodata.str1.1	0x43043f35	0x18	src\build\aware_client\gnss_worker_sm.o	#SHT_PROGBITS,SHF_ALLOC|SHF_MERGE|SHF_STRINGS,1
	0x43043f35		.L.str.17
.rodata.str1.1	0x43043f4d	0x14	src\build\aware_client\gnss_worker_sm.o	#SHT_PROGBITS,SHF_ALLOC|SHF_MERGE|SHF_STRINGS,1
	0x43043f4d		.L.str.20
.rodata.str1.1	0x43043f61	0x29	src\build\aware_client\gnss_worker_sm.o	#SHT_PROGBITS,SHF_ALLOC|SHF_MERGE|SHF_STRINGS,1
	0x43043f61		.L.str.23
.rodata.str1.1	0x43043f8a	0x15	src\build\aware_client\gnss_worker_sm.o	#SHT_PROGBITS,SHF_ALLOC|SHF_MERGE|SHF_STRINGS,1
	0x43043f8a		.L.str.25
.rodata.str1.1	0x43043f9f	0x15	src\build\aware_client\gnss_worker_sm.o	#SHT_PROGBITS,SHF_ALLOC|SHF_MERGE|SHF_STRINGS,1
	0x43043f9f		.L.str.27
.rodata.str1.1	0x43043fb4	0x21	src\build\aware_client\gnss_worker_sm.o	#SHT_PROGBITS,SHF_ALLOC|SHF_MERGE|SHF_STRINGS,1
	0x43043fb4		.L.str.30
.rodata.str1.1	0x43043fd5	0x26	src\build\aware_client\gnss_worker_sm.o	#SHT_PROGBITS,SHF_ALLOC|SHF_MERGE|SHF_STRINGS,1
	0x43043fd5		.L.str.33
.rodata.str1.1	0x43043ffb	0x26	src\build\aware_client\gnss_worker_sm.o	#SHT_PROGBITS,SHF_ALLOC|SHF_MERGE|SHF_STRINGS,1
	0x43043ffb		.L.str.36
.rodata.str1.1	0x43044021	0x2b	src\build\aware_client\gnss_worker_sm.o	#SHT_PROGBITS,SHF_ALLOC|SHF_MERGE|SHF_STRINGS,1
	0x43044021		.L.str.39
.rodata.str1.1	0x4304404c	0x1a	src\build\aware_client\gnss_worker_sm.o	#SHT_PROGBITS,SHF_ALLOC|SHF_MERGE|SHF_STRINGS,1
	0x4304404c		.L.str.42
.rodata.str1.1	0x43044066	0x1b	src\build\aware_client\gnss_worker_sm.o	#SHT_PROGBITS,SHF_ALLOC|SHF_MERGE|SHF_STRINGS,1
	0x43044066		.L.str.44
.rodata.str1.1	0x43044081	0x13	src\build\aware_client\gnss_worker_sm.o	#SHT_PROGBITS,SHF_ALLOC|SHF_MERGE|SHF_STRINGS,1
	0x43044081		.L.str.47
.rodata.str1.1	0x43044094	0x15	src\build\aware_client\gnss_worker_sm.o	#SHT_PROGBITS,SHF_ALLOC|SHF_MERGE|SHF_STRINGS,1
	0x43044094		.L.str.50
.rodata.str1.1	0x430440a9	0x11	src\build\aware_client\gnss_worker_sm.o	#SHT_PROGBITS,SHF_ALLOC|SHF_MERGE|SHF_STRINGS,1
	0x430440a9		.L.str.53
.rodata.str1.1	0x430440ba	0x22	src\build\aware_client\gnss_worker_sm.o	#SHT_PROGBITS,SHF_ALLOC|SHF_MERGE|SHF_STRINGS,1
	0x430440ba		.L.str.56
.rodata.str1.1	0x430440dc	0x28	src\build\aware_client\gnss_worker_sm.o	#SHT_PROGBITS,SHF_ALLOC|SHF_MERGE|SHF_STRINGS,1
	0x430440dc		.L.str.58
.rodata.str1.1	0x43044104	0x27	src\build\aware_client\gnss_worker_sm.o	#SHT_PROGBITS,SHF_ALLOC|SHF_MERGE|SHF_STRINGS,1
	0x43044104		.L.str.59
.rodata.str1.1	0x4304412b	0x28	src\build\aware_client\gnss_worker_sm.o	#SHT_PROGBITS,SHF_ALLOC|SHF_MERGE|SHF_STRINGS,1
	0x4304412b		.L.str.60
.rodata.str1.1	0x43044153	0x2b	src\build\aware_client\gnss_worker_sm.o	#SHT_PROGBITS,SHF_ALLOC|SHF_MERGE|SHF_STRINGS,1
	0x43044153		.L.str.61
.rodata.str1.1	0x4304417e	0x2b	src\build\aware_client\gnss_worker_sm.o	#SHT_PROGBITS,SHF_ALLOC|SHF_MERGE|SHF_STRINGS,1
	0x4304417e		.L.str.62
.rodata.str1.1	0x430441a9	0x2c	src\build\aware_client\gnss_worker_sm.o	#SHT_PROGBITS,SHF_ALLOC|SHF_MERGE|SHF_STRINGS,1
	0x430441a9		.L.str.63
.rodata.str1.1	0x430441d5	0x2f	src\build\aware_client\gnss_worker_sm.o	#SHT_PROGBITS,SHF_ALLOC|SHF_MERGE|SHF_STRINGS,1
	0x430441d5		.L.str.64
.rodata.str1.1	0x43044204	0x1d	src\build\aware_client\gnss_worker_sm.o	#SHT_PROGBITS,SHF_ALLOC|SHF_MERGE|SHF_STRINGS,1
	0x43044204		.L.str.65
.rodata.str1.1	0x43044221	0x50	src\build\aware_client\gnss_worker_sm.o	#SHT_PROGBITS,SHF_ALLOC|SHF_MERGE|SHF_STRINGS,1
	0x43044221		.L.str.66
.rodata.str1.1	0x43044271	0x51	src\build\aware_client\gnss_worker_sm.o	#SHT_PROGBITS,SHF_ALLOC|SHF_MERGE|SHF_STRINGS,1
	0x43044271		.L.str.67
.rodata.str1.1	0x430442c2	0x25	src\build\aware_client\gnss_worker_sm.o	#SHT_PROGBITS,SHF_ALLOC|SHF_MERGE|SHF_STRINGS,1
	0x430442c2		.L.str.69
.rodata.str1.1	0x430442e7	0x35	src\build\aware_client\gnss_worker_sm.o	#SHT_PROGBITS,SHF_ALLOC|SHF_MERGE|SHF_STRINGS,1
	0x430442e7		.L.str.71
.rodata.str1.1	0x4304431c	0x25	src\build\aware_client\gnss_worker_sm.o	#SHT_PROGBITS,SHF_ALLOC|SHF_MERGE|SHF_STRINGS,1
	0x4304431c		.L.str.73
.rodata.str1.1	0x43044341	0x22	src\build\aware_client\gnss_worker_sm.o	#SHT_PROGBITS,SHF_ALLOC|SHF_MERGE|SHF_STRINGS,1
	0x43044341		.L.str.74
.rodata.str1.1	0x43044363	0x2d	src\build\aware_client\gnss_worker_sm.o	#SHT_PROGBITS,SHF_ALLOC|SHF_MERGE|SHF_STRINGS,1
	0x43044363		.L.str.76
.rodata.str1.1	0x43044390	0x2f	src\build\aware_client\gnss_worker_sm.o	#SHT_PROGBITS,SHF_ALLOC|SHF_MERGE|SHF_STRINGS,1
	0x43044390		.L.str.78
.rodata.str1.1	0x430443bf	0x3e	src\build\aware_client\gnss_worker_sm.o	#SHT_PROGBITS,SHF_ALLOC|SHF_MERGE|SHF_STRINGS,1
	0x430443bf		.L.str.80
.rodata.str1.1	0x430443fd	0x31	src\build\aware_client\gnss_worker_sm.o	#SHT_PROGBITS,SHF_ALLOC|SHF_MERGE|SHF_STRINGS,1
	0x430443fd		.L.str.81
.rodata.str1.1	0x4304442e	0x19	src\build\aware_client\gnss_worker_sm.o	#SHT_PROGBITS,SHF_ALLOC|SHF_MERGE|SHF_STRINGS,1
	0x4304442e		.L.str.83
.rodata.str1.1	0x43044447	0x19	src\build\aware_client\gnss_worker_sm.o	#SHT_PROGBITS,SHF_ALLOC|SHF_MERGE|SHF_STRINGS,1
	0x43044447		.L.str.85
.rodata.str1.1	0x43044460	0x24	src\build\aware_client\gnss_worker_sm.o	#SHT_PROGBITS,SHF_ALLOC|SHF_MERGE|SHF_STRINGS,1
	0x43044460		.L.str.88
.rodata.str1.1	0x43044484	0xf	src\build\aware_client\gnss_worker_sm.o	#SHT_PROGBITS,SHF_ALLOC|SHF_MERGE|SHF_STRINGS,1
	0x43044484		.L.str.91
.rodata.str1.1	0x43044493	0x17	src\build\aware_client\gnss_worker_sm.o	#SHT_PROGBITS,SHF_ALLOC|SHF_MERGE|SHF_STRINGS,1
	0x43044493		.L.str.94
.rodata.str1.1	0x430444aa	0x19	src\build\aware_client\gnss_worker_sm.o	#SHT_PROGBITS,SHF_ALLOC|SHF_MERGE|SHF_STRINGS,1
	0x430444aa		.L.str.96
.rodata.str1.1	0x430444c3	0x15	src\build\aware_client\gnss_worker_sm.o	#SHT_PROGBITS,SHF_ALLOC|SHF_MERGE|SHF_STRINGS,1
	0x430444c3		.L.str.99
.rodata.str1.1	0x430444d8	0x1b	src\build\aware_client\gnss_worker_sm.o	#SHT_PROGBITS,SHF_ALLOC|SHF_MERGE|SHF_STRINGS,1
	0x430444d8		.L.str.102
.rodata.str1.1	0x430444f3	0x42	src\build\aware_client\gnss_worker_sm.o	#SHT_PROGBITS,SHF_ALLOC|SHF_MERGE|SHF_STRINGS,1
	0x430444f3		.L.str.104
.rodata.str1.1	0x43044535	0x5c	src\build\aware_client\gnss_worker_sm.o	#SHT_PROGBITS,SHF_ALLOC|SHF_MERGE|SHF_STRINGS,1
	0x43044535		.L.str.105
.rodata.str1.1	0x43044591	0x43	src\build\aware_client\gnss_worker_sm.o	#SHT_PROGBITS,SHF_ALLOC|SHF_MERGE|SHF_STRINGS,1
	0x43044591		.L.str.108
.rodata.str1.1	0x430445d4	0x18	src\build\aware_client\gnss_worker_sm.o	#SHT_PROGBITS,SHF_ALLOC|SHF_MERGE|SHF_STRINGS,1
	0x430445d4		.L.str.114
.rodata.str1.1	0x430445ec	0x1f	src\build\aware_client\gnss_worker_sm.o	#SHT_PROGBITS,SHF_ALLOC|SHF_MERGE|SHF_STRINGS,1
	0x430445ec		.L.str.115
.rodata.str1.1	0x4304460b	0x4e	src\build\aware_client\gnss_worker_sm.o	#SHT_PROGBITS,SHF_ALLOC|SHF_MERGE|SHF_STRINGS,1
	0x4304460b		.L.str.117
.rodata.str1.1	0x43044659	0x33	src\build\aware_client\gnss_worker_sm.o	#SHT_PROGBITS,SHF_ALLOC|SHF_MERGE|SHF_STRINGS,1
	0x43044659		.L.str.119
.rodata.str1.1	0x4304468c	0x32	src\build\aware_client\gnss_worker_sm.o	#SHT_PROGBITS,SHF_ALLOC|SHF_MERGE|SHF_STRINGS,1
	0x4304468c		.L.str.120
.rodata.str1.1	0x430446be	0x2b	src\build\aware_client\gnss_worker_sm.o	#SHT_PROGBITS,SHF_ALLOC|SHF_MERGE|SHF_STRINGS,1
	0x430446be		.L.str.122
.rodata.str1.1	0x430446e9	0x1d	src\build\aware_client\gnss_worker_sm.o	#SHT_PROGBITS,SHF_ALLOC|SHF_MERGE|SHF_STRINGS,1
	0x430446e9		.L.str.124
.rodata.str1.1	0x43044706	0x24	src\build\aware_client\gnss_worker_sm.o	#SHT_PROGBITS,SHF_ALLOC|SHF_MERGE|SHF_STRINGS,1
	0x43044706		.L.str.125
.rodata.str1.1	0x4304472a	0x1a	src\build\aware_client\gnss_worker_sm.o	#SHT_PROGBITS,SHF_ALLOC|SHF_MERGE|SHF_STRINGS,1
	0x4304472a		.L.str.126
.rodata	0x43044744	0x5d0	src\build\aware_client\gnss_worker_sm.o	#SHT_PROGBITS,SHF_ALLOC,4
	0x43044744		_gnss_worker_sm_is_ntp_idle_state.xx_msg_const
	0x43044754		_gnss_worker_sm_is_ntp_idle_state.xx_msg_const.3
	0x43044764		_gnss_worker_sm_is_ntp_update_required.xx_msg_const
	0x43044774		_gnss_worker_sm_is_ntp_update_required.xx_msg_const.5
	0x43044784		_gnss_worker_sm_is_ntp_update_required.xx_msg_const.7
	0x43044794		_gnss_worker_sm_is_ntp_update_required.xx_msg_const.8
	0x430447a4		_gnss_worker_sm_is_ntp_update_required.xx_msg_const.10
	0x430447b4		_gnss_worker_sm_is_ntp_update_required.xx_msg_const.11
	0x430447c4		_gnss_worker_sm_is_ntp_update_required.xx_msg_const.13
	0x430447d4		_gnss_worker_sm_is_ntp_update_required.xx_msg_const.14
	0x430447e4		_gnss_worker_sm_trigger_ntp_update.xx_msg_const
	0x430447f4		_gnss_worker_sm_trigger_ntp_update.xx_msg_const.16
	0x43044804		_gnss_worker_sm_trigger_ntp_update.xx_msg_const.18
	0x43044814		_gnss_worker_sm_trigger_ntp_update.xx_msg_const.19
	0x43044824		_gnss_worker_sm_trigger_ntp_update.xx_msg_const.21
	0x43044834		_gnss_worker_sm_trigger_ntp_update.xx_msg_const.22
	0x43044844		_gnss_worker_sm_is_xtra_idle_state.xx_msg_const
	0x43044854		_gnss_worker_sm_is_xtra_idle_state.xx_msg_const.24
	0x43044864		_gnss_worker_sm_is_xtra_dl_required.xx_msg_const
	0x43044874		_gnss_worker_sm_is_xtra_dl_required.xx_msg_const.26
	0x43044884		_gnss_worker_sm_is_xtra_dl_required.xx_msg_const.28
	0x43044894		_gnss_worker_sm_is_xtra_dl_required.xx_msg_const.29
	0x430448a4		_gnss_worker_sm_is_xtra_dl_required.xx_msg_const.31
	0x430448b4		_gnss_worker_sm_is_xtra_dl_required.xx_msg_const.32
	0x430448c4		_gnss_worker_sm_is_xtra_dl_required.xx_msg_const.34
	0x430448d4		_gnss_worker_sm_is_xtra_dl_required.xx_msg_const.35
	0x430448e4		_gnss_worker_sm_is_xtra_dl_required.xx_msg_const.37
	0x430448f4		_gnss_worker_sm_is_xtra_dl_required.xx_msg_const.38
	0x43044904		_gnss_worker_sm_is_xtra_dl_required.xx_msg_const.40
	0x43044914		_gnss_worker_sm_is_xtra_dl_required.xx_msg_const.41
	0x43044924		_gnss_worker_sm_trigger_xtra_dl.xx_msg_const
	0x43044934		_gnss_worker_sm_trigger_xtra_dl.xx_msg_const.43
	0x43044944		_gnss_worker_sm_trigger_xtra_dl.xx_msg_const.45
	0x43044954		_gnss_worker_sm_trigger_xtra_dl.xx_msg_const.46
	0x43044964		_gnss_worker_sm_trigger_xtra_dl.xx_msg_const.48
	0x43044974		_gnss_worker_sm_trigger_xtra_dl.xx_msg_const.49
	0x43044984		_gnss_worker_sm_trigger_xtra_dl.xx_msg_const.51
	0x43044994		_gnss_worker_sm_trigger_xtra_dl.xx_msg_const.52
	0x430449a4		_gnss_worker_sm_trigger_xtra_dl.xx_msg_const.54
	0x430449b4		_gnss_worker_sm_trigger_xtra_dl.xx_msg_const.55
	0x430449c4		gnss_worker_sm_init.xx_msg_const
	0x430449d4		gnss_worker_sm_init.xx_msg_const.57
	0x430449e4		gnss_worker_sm_request_delayed_location.xx_msg_const
	0x430449f4		gnss_worker_sm_request_delayed_location.xx_msg_const.68
	0x43044a04		gnss_worker_sm_singleshot_gtp_cb.xx_msg_const
	0x43044a14		gnss_worker_sm_singleshot_gtp_cb.xx_msg_const.70
	0x43044a24		gnss_worker_sm_meta_data_cb.xx_msg_const
	0x43044a34		gnss_worker_sm_meta_data_cb.xx_msg_const.72
	0x43044a44		_gnss_worker_sm_state_idle.xx_msg_const
	0x43044a54		_gnss_worker_sm_state_idle.xx_msg_const.75
	0x43044a64		_gnss_worker_sm_state_idle.xx_msg_const.77
	0x43044a74		_gnss_worker_sm_state_idle.xx_msg_const.79
	0x43044a84		_gnss_worker_sm_request_singleshot.xx_msg_const
	0x43044a94		_gnss_worker_sm_is_xtra_int_idle_state.xx_msg_const
	0x43044aa4		_gnss_worker_sm_is_xtra_int_idle_state.xx_msg_const.82
	0x43044ab4		_gnss_worker_sm_is_xtra_int_update_required.xx_msg_const
	0x43044ac4		_gnss_worker_sm_is_xtra_int_update_required.xx_msg_const.84
	0x43044ad4		_gnss_worker_sm_is_xtra_int_update_required.xx_msg_const.86
	0x43044ae4		_gnss_worker_sm_is_xtra_int_update_required.xx_msg_const.87
	0x43044af4		_gnss_worker_sm_is_xtra_int_update_required.xx_msg_const.89
	0x43044b04		_gnss_worker_sm_is_xtra_int_update_required.xx_msg_const.90
	0x43044b14		_gnss_worker_sm_is_xtra_int_update_required.xx_msg_const.92
	0x43044b24		_gnss_worker_sm_is_xtra_int_update_required.xx_msg_const.93
	0x43044b34		_gnss_worker_sm_trigger_xtra_int_update.xx_msg_const
	0x43044b44		_gnss_worker_sm_trigger_xtra_int_update.xx_msg_const.95
	0x43044b54		_gnss_worker_sm_trigger_xtra_int_update.xx_msg_const.97
	0x43044b64		_gnss_worker_sm_trigger_xtra_int_update.xx_msg_const.98
	0x43044b74		_gnss_worker_sm_trigger_xtra_int_update.xx_msg_const.100
	0x43044b84		_gnss_worker_sm_trigger_xtra_int_update.xx_msg_const.101
	0x43044b94		_gnss_worker_sm_enter_state.xx_msg_const
	0x43044ba4		_gnss_worker_sm_enter_state.xx_msg_const.103
	0x43044bb4		_gnss_worker_sm_state_waiting_for_gnss_load.xx_msg_const
	0x43044bc4		_gnss_worker_sm_state_waiting_for_gnss_load.xx_msg_const.106
	0x43044bd4		_gnss_worker_sm_state_waiting_for_gnss_load.xx_msg_const.107
	0x43044be4		_gnss_worker_sm_state_waiting_for_ad_dl_complete.xx_msg_const
	0x43044bf4		_gnss_worker_sm_state_waiting_for_ad_dl_complete.xx_msg_const.109
	0x43044c04		_gnss_worker_sm_state_waiting_for_ad_dl_complete.xx_msg_const.110
	0x43044c14		_gnss_worker_sm_state_waiting_for_ad_dl_complete.xx_msg_const.111
	0x43044c24		_gnss_worker_sm_state_ad_dl_complete.xx_msg_const
	0x43044c34		_gnss_worker_sm_state_ad_dl_complete.xx_msg_const.112
	0x43044c44		_gnss_worker_sm_state_ad_dl_complete.xx_msg_const.113
	0x43044c54		_gnss_worker_sm_state_backoff_bad_wwan_connection.xx_msg_const
	0x43044c64		_gnss_worker_sm_state_backoff_bad_wwan_connection.xx_msg_const.116
	0x43044c74		_gnss_worker_sm_state_backoff_weak_gnss_signals.xx_msg_const
	0x43044c84		_gnss_worker_sm_state_backoff_wwan_high_priority.xx_msg_const
	0x43044c94		_gnss_worker_sm_state_backoff_wwan_high_priority.xx_msg_const.118
	0x43044ca4		_gnss_worker_sm_state_gnss_retry.xx_msg_const
	0x43044cb4		_gnss_worker_sm_state_gnss_retry.xx_msg_const.121
	0x43044cc4		_gnss_worker_sm_state_gnss_retry.xx_msg_const.123
	0x43044cd4		_gnss_worker_sm_cancel_singleshot.xx_msg_const
	0x43044ce4		_gnss_worker_sm_start_report_delay_timer.xx_msg_const
	0x43044cf4		gnss_worker_sm_report_delay_timer_cb_in_timer_context.xx_msg_const
	0x43044d04		gnss_worker_sm_report_delay_timer_cb_in_timer_context.xx_msg_const.127
.rodata.str1.1	0x43044d14	0x27	src\build\aware_client\gnss_worker_thread.o	#SHT_PROGBITS,SHF_ALLOC|SHF_MERGE|SHF_STRINGS,1
	0x43044d14		.L.str
.rodata.str1.1	0x43044d3b	0x2f	src\build\aware_client\gnss_worker_thread.o	#SHT_PROGBITS,SHF_ALLOC|SHF_MERGE|SHF_STRINGS,1
	0x43044d3b		.L.str.2
.rodata.str1.1	0x43044d6a	0x27	src\build\aware_client\gnss_worker_thread.o	#SHT_PROGBITS,SHF_ALLOC|SHF_MERGE|SHF_STRINGS,1
	0x43044d6a		.L.str.4
.rodata.str1.1	0x43044d91	0x2e	src\build\aware_client\gnss_worker_thread.o	#SHT_PROGBITS,SHF_ALLOC|SHF_MERGE|SHF_STRINGS,1
	0x43044d91		.L.str.6
.rodata.str1.1	0x43044dbf	0x1d	src\build\aware_client\gnss_worker_thread.o	#SHT_PROGBITS,SHF_ALLOC|SHF_MERGE|SHF_STRINGS,1
	0x43044dbf		.L.str.8
.rodata.str1.1	0x43044ddc	0x15	src\build\aware_client\gnss_worker_thread.o	#SHT_PROGBITS,SHF_ALLOC|SHF_MERGE|SHF_STRINGS,1
	0x43044ddc		.L.str.10
.rodata.str1.1	0x43044df1	0x1e	src\build\aware_client\gnss_worker_thread.o	#SHT_PROGBITS,SHF_ALLOC|SHF_MERGE|SHF_STRINGS,1
	0x43044df1		.L.str.12
.rodata.str1.1	0x43044e0f	0x27	src\build\aware_client\gnss_worker_thread.o	#SHT_PROGBITS,SHF_ALLOC|SHF_MERGE|SHF_STRINGS,1
	0x43044e0f		.L.str.15
.rodata.str1.1	0x43044e36	0x2e	src\build\aware_client\gnss_worker_thread.o	#SHT_PROGBITS,SHF_ALLOC|SHF_MERGE|SHF_STRINGS,1
	0x43044e36		.L.str.16
.rodata.str1.1	0x43044e64	0x23	src\build\aware_client\gnss_worker_thread.o	#SHT_PROGBITS,SHF_ALLOC|SHF_MERGE|SHF_STRINGS,1
	0x43044e64		.L.str.20
.rodata.str1.1	0x43044e87	0x27	src\build\aware_client\gnss_worker_thread.o	#SHT_PROGBITS,SHF_ALLOC|SHF_MERGE|SHF_STRINGS,1
	0x43044e87		.L.str.25
.rodata.str1.1	0x43044eae	0x2e	src\build\aware_client\gnss_worker_thread.o	#SHT_PROGBITS,SHF_ALLOC|SHF_MERGE|SHF_STRINGS,1
	0x43044eae		.L.str.26
.rodata.str1.1	0x43044edc	0x10	src\build\aware_client\gnss_worker_thread.o	#SHT_PROGBITS,SHF_ALLOC|SHF_MERGE|SHF_STRINGS,1
	0x43044edc		.L.str.31
.rodata.str1.1	0x43044eec	0x2a	src\build\aware_client\gnss_worker_thread.o	#SHT_PROGBITS,SHF_ALLOC|SHF_MERGE|SHF_STRINGS,1
	0x43044eec		.L.str.34
.rodata.str1.1	0x43044f16	0x11	src\build\aware_client\gnss_worker_thread.o	#SHT_PROGBITS,SHF_ALLOC|SHF_MERGE|SHF_STRINGS,1
	0x43044f16		.L.str.36
.rodata.str1.1	0x43044f27	0x1c	src\build\aware_client\gnss_worker_thread.o	#SHT_PROGBITS,SHF_ALLOC|SHF_MERGE|SHF_STRINGS,1
	0x43044f27		.L.str.37
.rodata.str1.1	0x43044f43	0xd	src\build\aware_client\gnss_worker_thread.o	#SHT_PROGBITS,SHF_ALLOC|SHF_MERGE|SHF_STRINGS,1
	0x43044f43		.L.str.38
.rodata.str1.1	0x43044f50	0x14	src\build\aware_client\gnss_worker_thread.o	#SHT_PROGBITS,SHF_ALLOC|SHF_MERGE|SHF_STRINGS,1
	0x43044f50		.L.str.39
.rodata.str1.1	0x43044f64	0x2d	src\build\aware_client\gnss_worker_thread.o	#SHT_PROGBITS,SHF_ALLOC|SHF_MERGE|SHF_STRINGS,1
	0x43044f64		.L.str.40
.rodata.str1.1	0x43044f91	0x2a	src\build\aware_client\gnss_worker_thread.o	#SHT_PROGBITS,SHF_ALLOC|SHF_MERGE|SHF_STRINGS,1
	0x43044f91		.L.str.42
.rodata.str1.1	0x43044fbb	0x28	src\build\aware_client\gnss_worker_thread.o	#SHT_PROGBITS,SHF_ALLOC|SHF_MERGE|SHF_STRINGS,1
	0x43044fbb		.L.str.44
.rodata.str1.1	0x43044fe3	0x27	src\build\aware_client\gnss_worker_thread.o	#SHT_PROGBITS,SHF_ALLOC|SHF_MERGE|SHF_STRINGS,1
	0x43044fe3		.L.str.46
.rodata.str1.1	0x4304500a	0x26	src\build\aware_client\gnss_worker_thread.o	#SHT_PROGBITS,SHF_ALLOC|SHF_MERGE|SHF_STRINGS,1
	0x4304500a		.L.str.48
.rodata.str1.1	0x43045030	0x29	src\build\aware_client\gnss_worker_thread.o	#SHT_PROGBITS,SHF_ALLOC|SHF_MERGE|SHF_STRINGS,1
	0x43045030		.L.str.50
.rodata.str1.1	0x43045059	0x1d	src\build\aware_client\gnss_worker_thread.o	#SHT_PROGBITS,SHF_ALLOC|SHF_MERGE|SHF_STRINGS,1
	0x43045059		.L.str.52
.rodata.str1.1	0x43045076	0x1f	src\build\aware_client\gnss_worker_thread.o	#SHT_PROGBITS,SHF_ALLOC|SHF_MERGE|SHF_STRINGS,1
	0x43045076		.L.str.54
.rodata.str1.1	0x43045095	0x23	src\build\aware_client\gnss_worker_thread.o	#SHT_PROGBITS,SHF_ALLOC|SHF_MERGE|SHF_STRINGS,1
	0x43045095		.L.str.56
.rodata.str1.1	0x430450b8	0x1e	src\build\aware_client\gnss_worker_thread.o	#SHT_PROGBITS,SHF_ALLOC|SHF_MERGE|SHF_STRINGS,1
	0x430450b8		.L.str.58
.rodata.str1.1	0x430450d6	0x24	src\build\aware_client\gnss_worker_thread.o	#SHT_PROGBITS,SHF_ALLOC|SHF_MERGE|SHF_STRINGS,1
	0x430450d6		.L.str.60
.rodata.str1.1	0x430450fa	0x19	src\build\aware_client\gnss_worker_thread.o	#SHT_PROGBITS,SHF_ALLOC|SHF_MERGE|SHF_STRINGS,1
	0x430450fa		.L.str.62
.rodata.str1.1	0x43045113	0x24	src\build\aware_client\gnss_worker_thread.o	#SHT_PROGBITS,SHF_ALLOC|SHF_MERGE|SHF_STRINGS,1
	0x43045113		.L.str.64
.rodata.str1.1	0x43045137	0x1f	src\build\aware_client\gnss_worker_thread.o	#SHT_PROGBITS,SHF_ALLOC|SHF_MERGE|SHF_STRINGS,1
	0x43045137		.L.str.66
.rodata.str1.1	0x43045156	0x1c	src\build\aware_client\gnss_worker_thread.o	#SHT_PROGBITS,SHF_ALLOC|SHF_MERGE|SHF_STRINGS,1
	0x43045156		.L.str.68
.rodata.str1.1	0x43045172	0x13	src\build\aware_client\gnss_worker_thread.o	#SHT_PROGBITS,SHF_ALLOC|SHF_MERGE|SHF_STRINGS,1
	0x43045172		.L.str.70
.rodata.str1.1	0x43045185	0x2c	src\build\aware_client\gnss_worker_thread.o	#SHT_PROGBITS,SHF_ALLOC|SHF_MERGE|SHF_STRINGS,1
	0x43045185		.L.str.72
.rodata.str1.1	0x430451b1	0x38	src\build\aware_client\gnss_worker_thread.o	#SHT_PROGBITS,SHF_ALLOC|SHF_MERGE|SHF_STRINGS,1
	0x430451b1		.L.str.73
.rodata.str1.1	0x430451e9	0x29	src\build\aware_client\gnss_worker_thread.o	#SHT_PROGBITS,SHF_ALLOC|SHF_MERGE|SHF_STRINGS,1
	0x430451e9		.L.str.76
PADDING_ALIGNMENT	0x43045212	0x2	0x0
.rodata	0x43045214	0x430	src\build\aware_client\gnss_worker_thread.o	#SHT_PROGBITS,SHF_ALLOC,4
	0x43045214		gnss_worker_report_singleshot_location.xx_msg_const
	0x43045224		gnss_worker_report_singleshot_location.xx_msg_const.3
	0x43045234		gnss_worker_report_singleshot_gtpdata.xx_msg_const
	0x43045244		gnss_worker_report_singleshot_gtpdata.xx_msg_const.5
	0x43045254		gnss_worker_sync_get_best_avail_location.xx_msg_const
	0x43045264		gnss_worker_sync_get_best_avail_location.xx_msg_const.7
	0x43045274		gnss_worker_sync_get_best_avail_location.xx_msg_const.9
	0x43045284		gnss_worker_sync_get_best_avail_location.xx_msg_const.11
	0x43045294		gnss_worker_sync_get_best_avail_location.xx_msg_const.13
	0x430452a4		gnss_worker_sync_get_best_avail_location.xx_msg_const.14
	0x430452b4		gnss_worker_report_best_avail_location.xx_msg_const
	0x430452c4		gnss_worker_send_msg_request_delayed_location.xx_msg_const
	0x430452d4		gnss_worker_send_msg_request_delayed_location.xx_msg_const.18
	0x430452e4		gnss_worker_send_msg_request_delayed_location.xx_msg_const.19
	0x430452f4		gnss_worker_send_msg_cb_singleshot.xx_msg_const
	0x43045304		gnss_worker_send_msg_cb_singleshot.xx_msg_const.21
	0x43045314		gnss_worker_send_msg_cb_singleshot.xx_msg_const.22
	0x43045324		gnss_worker_send_msg_cb_meta_data.xx_msg_const
	0x43045334		gnss_worker_send_msg_cb_meta_data.xx_msg_const.23
	0x43045344		gnss_worker_send_msg_cb_motion.xx_msg_const
	0x43045354		gnss_worker_send_msg_cb_motion.xx_msg_const.24
	0x43045364		gnss_worker_send_msg_cb_singleshot_gtp.xx_msg_const
	0x43045374		gnss_worker_send_msg_cb_singleshot_gtp.xx_msg_const.27
	0x43045384		gnss_worker_send_msg_cb_singleshot_gtp.xx_msg_const.28
	0x43045394		gnss_worker_send_msg_cb_singleshot_gtp.xx_msg_const.29
	0x430453a4		gnss_worker_send_msg_cb_singleshot_gtp.xx_msg_const.30
	0x430453b4		gnss_worker_send_msg_cb_singleshot_gtp.xx_msg_const.32
	0x430453c4		gnss_worker_send_msg_cb_singleshot_gtp.xx_msg_const.33
	0x430453d4		gnss_worker_task_entry.xx_msg_const
	0x430453e4		gnss_worker_task_entry.xx_msg_const.35
	0x430453f4		_gnss_worker_process_msg.xx_msg_const
	0x43045404		_gnss_worker_process_msg.xx_msg_const.41
	0x43045414		_gnss_worker_process_msg.xx_msg_const.43
	0x43045424		_gnss_worker_process_msg.xx_msg_const.45
	0x43045434		_gnss_worker_process_msg.xx_msg_const.47
	0x43045444		_gnss_worker_process_msg.xx_msg_const.49
	0x43045454		_gnss_worker_process_msg.xx_msg_const.51
	0x43045464		_gnss_worker_process_msg.xx_msg_const.53
	0x43045474		_gnss_worker_process_msg.xx_msg_const.55
	0x43045484		_gnss_worker_process_msg.xx_msg_const.57
	0x43045494		_gnss_worker_process_msg.xx_msg_const.59
	0x430454a4		_gnss_worker_process_msg.xx_msg_const.61
	0x430454b4		_gnss_worker_process_msg.xx_msg_const.63
	0x430454c4		_gnss_worker_process_msg.xx_msg_const.65
	0x430454d4		_gnss_worker_process_msg.xx_msg_const.67
	0x430454e4		_gnss_worker_process_msg.xx_msg_const.69
	0x430454f4		_gnss_worker_process_msg.xx_msg_const.71
	0x43045504		_gnss_worker_handle_req_best_avail_location.xx_msg_const
	0x43045514		_gnss_worker_handle_req_best_avail_location.xx_msg_const.74
	0x43045524		_gnss_worker_handle_req_best_avail_location.xx_msg_const.75
	0x43045534		_gnss_worker_handle_req_delayed_location.xx_msg_const
	0x43045544		_gnss_worker_handle_req_delayed_location.xx_msg_const.78
	0x43045554		_gnss_worker_handle_req_delayed_location.xx_msg_const.79
	0x43045564		_gnss_worker_handle_cb_singleshot.xx_msg_const
	0x43045574		_gnss_worker_handle_cb_singleshot.xx_msg_const.80
	0x43045584		_gnss_worker_handle_cb_singleshot_gtp.xx_msg_const
	0x43045594		_gnss_worker_handle_cb_singleshot_gtp.xx_msg_const.81
	0x430455a4		_gnss_worker_handle_cb_metadata.xx_msg_const
	0x430455b4		_gnss_worker_handle_cb_metadata.xx_msg_const.82
	0x430455c4		_gnss_worker_handle_cb_motion.xx_msg_const
	0x430455d4		_gnss_worker_handle_cb_motion.xx_msg_const.83
	0x430455e4		_gnss_worker_handle_cb_nmea.xx_msg_const
	0x430455f4		_gnss_worker_handle_cb_nmea.xx_msg_const.84
	0x43045604		_gnss_worker_handle_cb_wwan_sleep.xx_msg_const
	0x43045614		_gnss_worker_handle_cb_wwan_sleep.xx_msg_const.85
	0x43045624		_gnss_worker_handle_process_cb.xx_msg_const
	0x43045634		_gnss_worker_handle_process_cb.xx_msg_const.86
.rodata.str1.1	0x43045644	0xb	src\build\aware_client\gnss_worker_utils.o	#SHT_PROGBITS,SHF_ALLOC|SHF_MERGE|SHF_STRINGS,1
	0x43045644		.L.str
.rodata.str1.1	0x4304564f	0xa	src\build\aware_client\gnss_worker_utils.o	#SHT_PROGBITS,SHF_ALLOC|SHF_MERGE|SHF_STRINGS,1
	0x4304564f		.L.str.1
.rodata.str1.1	0x43045659	0xa	src\build\aware_client\gnss_worker_utils.o	#SHT_PROGBITS,SHF_ALLOC|SHF_MERGE|SHF_STRINGS,1
	0x43045659		.L.str.2
.rodata.str1.1	0x43045663	0xe	src\build\aware_client\gnss_worker_utils.o	#SHT_PROGBITS,SHF_ALLOC|SHF_MERGE|SHF_STRINGS,1
	0x43045663		.L.str.3
.rodata.str1.1	0x43045671	0xe	src\build\aware_client\gnss_worker_utils.o	#SHT_PROGBITS,SHF_ALLOC|SHF_MERGE|SHF_STRINGS,1
	0x43045671		.L.str.4
.rodata.str1.1	0x4304567f	0xd	src\build\aware_client\gnss_worker_utils.o	#SHT_PROGBITS,SHF_ALLOC|SHF_MERGE|SHF_STRINGS,1
	0x4304567f		.L.str.5
.rodata.str1.1	0x4304568c	0xd	src\build\aware_client\gnss_worker_utils.o	#SHT_PROGBITS,SHF_ALLOC|SHF_MERGE|SHF_STRINGS,1
	0x4304568c		.L.str.6
.rodata.str1.1	0x43045699	0x11	src\build\aware_client\gnss_worker_utils.o	#SHT_PROGBITS,SHF_ALLOC|SHF_MERGE|SHF_STRINGS,1
	0x43045699		.L.str.7
.rodata.str1.1	0x430456aa	0x11	src\build\aware_client\gnss_worker_utils.o	#SHT_PROGBITS,SHF_ALLOC|SHF_MERGE|SHF_STRINGS,1
	0x430456aa		.L.str.8
.rodata.str1.1	0x430456bb	0x31	src\build\aware_client\gnss_worker_utils.o	#SHT_PROGBITS,SHF_ALLOC|SHF_MERGE|SHF_STRINGS,1
	0x430456bb		.L.str.9
.rodata.str1.1	0x430456ec	0x2e	src\build\aware_client\gnss_worker_utils.o	#SHT_PROGBITS,SHF_ALLOC|SHF_MERGE|SHF_STRINGS,1
	0x430456ec		.L.str.11
.rodata.str1.1	0x4304571a	0x3b	src\build\aware_client\gnss_worker_utils.o	#SHT_PROGBITS,SHF_ALLOC|SHF_MERGE|SHF_STRINGS,1
	0x4304571a		.L.str.12
.rodata.str1.1	0x43045755	0x3a	src\build\aware_client\gnss_worker_utils.o	#SHT_PROGBITS,SHF_ALLOC|SHF_MERGE|SHF_STRINGS,1
	0x43045755		.L.str.14
.rodata.str1.1	0x4304578f	0x37	src\build\aware_client\gnss_worker_utils.o	#SHT_PROGBITS,SHF_ALLOC|SHF_MERGE|SHF_STRINGS,1
	0x4304578f		.L.str.16
.rodata.str1.1	0x430457c6	0x39	src\build\aware_client\gnss_worker_utils.o	#SHT_PROGBITS,SHF_ALLOC|SHF_MERGE|SHF_STRINGS,1
	0x430457c6		.L.str.18
.rodata.str1.1	0x430457ff	0x38	src\build\aware_client\gnss_worker_utils.o	#SHT_PROGBITS,SHF_ALLOC|SHF_MERGE|SHF_STRINGS,1
	0x430457ff		.L.str.20
.rodata.str1.1	0x43045837	0x3b	src\build\aware_client\gnss_worker_utils.o	#SHT_PROGBITS,SHF_ALLOC|SHF_MERGE|SHF_STRINGS,1
	0x43045837		.L.str.22
.rodata.str1.1	0x43045872	0x36	src\build\aware_client\gnss_worker_utils.o	#SHT_PROGBITS,SHF_ALLOC|SHF_MERGE|SHF_STRINGS,1
	0x43045872		.L.str.24
.rodata.str1.1	0x430458a8	0x38	src\build\aware_client\gnss_worker_utils.o	#SHT_PROGBITS,SHF_ALLOC|SHF_MERGE|SHF_STRINGS,1
	0x430458a8		.L.str.26
.rodata.str1.1	0x430458e0	0x37	src\build\aware_client\gnss_worker_utils.o	#SHT_PROGBITS,SHF_ALLOC|SHF_MERGE|SHF_STRINGS,1
	0x430458e0		.L.str.28
.rodata.str1.1	0x43045917	0x3a	src\build\aware_client\gnss_worker_utils.o	#SHT_PROGBITS,SHF_ALLOC|SHF_MERGE|SHF_STRINGS,1
	0x43045917		.L.str.30
.rodata.str1.1	0x43045951	0x3b	src\build\aware_client\gnss_worker_utils.o	#SHT_PROGBITS,SHF_ALLOC|SHF_MERGE|SHF_STRINGS,1
	0x43045951		.L.str.32
.rodata.str1.1	0x4304598c	0x3d	src\build\aware_client\gnss_worker_utils.o	#SHT_PROGBITS,SHF_ALLOC|SHF_MERGE|SHF_STRINGS,1
	0x4304598c		.L.str.34
.rodata.str1.1	0x430459c9	0x3c	src\build\aware_client\gnss_worker_utils.o	#SHT_PROGBITS,SHF_ALLOC|SHF_MERGE|SHF_STRINGS,1
	0x430459c9		.L.str.36
.rodata.str1.1	0x43045a05	0x38	src\build\aware_client\gnss_worker_utils.o	#SHT_PROGBITS,SHF_ALLOC|SHF_MERGE|SHF_STRINGS,1
	0x43045a05		.L.str.38
.rodata.str1.1	0x43045a3d	0x3a	src\build\aware_client\gnss_worker_utils.o	#SHT_PROGBITS,SHF_ALLOC|SHF_MERGE|SHF_STRINGS,1
	0x43045a3d		.L.str.40
.rodata.str1.1	0x43045a77	0x39	src\build\aware_client\gnss_worker_utils.o	#SHT_PROGBITS,SHF_ALLOC|SHF_MERGE|SHF_STRINGS,1
	0x43045a77		.L.str.42
.rodata.str1.1	0x43045ab0	0x36	src\build\aware_client\gnss_worker_utils.o	#SHT_PROGBITS,SHF_ALLOC|SHF_MERGE|SHF_STRINGS,1
	0x43045ab0		.L.str.44
.rodata.str1.1	0x43045ae6	0x35	src\build\aware_client\gnss_worker_utils.o	#SHT_PROGBITS,SHF_ALLOC|SHF_MERGE|SHF_STRINGS,1
	0x43045ae6		.L.str.46
.rodata.str1.1	0x43045b1b	0x32	src\build\aware_client\gnss_worker_utils.o	#SHT_PROGBITS,SHF_ALLOC|SHF_MERGE|SHF_STRINGS,1
	0x43045b1b		.L.str.48
.rodata.str1.1	0x43045b4d	0x34	src\build\aware_client\gnss_worker_utils.o	#SHT_PROGBITS,SHF_ALLOC|SHF_MERGE|SHF_STRINGS,1
	0x43045b4d		.L.str.50
.rodata.str1.1	0x43045b81	0x3e	src\build\aware_client\gnss_worker_utils.o	#SHT_PROGBITS,SHF_ALLOC|SHF_MERGE|SHF_STRINGS,1
	0x43045b81		.L.str.52
.rodata.str1.1	0x43045bbf	0x35	src\build\aware_client\gnss_worker_utils.o	#SHT_PROGBITS,SHF_ALLOC|SHF_MERGE|SHF_STRINGS,1
	0x43045bbf		.L.str.54
.rodata.str1.1	0x43045bf4	0x3d	src\build\aware_client\gnss_worker_utils.o	#SHT_PROGBITS,SHF_ALLOC|SHF_MERGE|SHF_STRINGS,1
	0x43045bf4		.L.str.56
.rodata.str1.1	0x43045c31	0x3f	src\build\aware_client\gnss_worker_utils.o	#SHT_PROGBITS,SHF_ALLOC|SHF_MERGE|SHF_STRINGS,1
	0x43045c31		.L.str.58
.rodata.str1.1	0x43045c70	0x3e	src\build\aware_client\gnss_worker_utils.o	#SHT_PROGBITS,SHF_ALLOC|SHF_MERGE|SHF_STRINGS,1
	0x43045c70		.L.str.60
.rodata.str1.1	0x43045cae	0x3b	src\build\aware_client\gnss_worker_utils.o	#SHT_PROGBITS,SHF_ALLOC|SHF_MERGE|SHF_STRINGS,1
	0x43045cae		.L.str.62
.rodata.str1.1	0x43045ce9	0x31	src\build\aware_client\gnss_worker_utils.o	#SHT_PROGBITS,SHF_ALLOC|SHF_MERGE|SHF_STRINGS,1
	0x43045ce9		.L.str.64
.rodata.str1.1	0x43045d1a	0x1f	src\build\aware_client\gnss_worker_utils.o	#SHT_PROGBITS,SHF_ALLOC|SHF_MERGE|SHF_STRINGS,1
	0x43045d1a		.L.str.66
.rodata.str1.1	0x43045d39	0x1b	src\build\aware_client\gnss_worker_utils.o	#SHT_PROGBITS,SHF_ALLOC|SHF_MERGE|SHF_STRINGS,1
	0x43045d39		.L.str.69
.rodata.str1.1	0x43045d54	0x1b	src\build\aware_client\gnss_worker_utils.o	#SHT_PROGBITS,SHF_ALLOC|SHF_MERGE|SHF_STRINGS,1
	0x43045d54		.L.str.71
.rodata.str1.1	0x43045d6f	0x1c	src\build\aware_client\gnss_worker_utils.o	#SHT_PROGBITS,SHF_ALLOC|SHF_MERGE|SHF_STRINGS,1
	0x43045d6f		.L.str.74
.rodata.str1.1	0x43045d8b	0x18	src\build\aware_client\gnss_worker_utils.o	#SHT_PROGBITS,SHF_ALLOC|SHF_MERGE|SHF_STRINGS,1
	0x43045d8b		.L.str.77
.rodata.str1.1	0x43045da3	0x33	src\build\aware_client\gnss_worker_utils.o	#SHT_PROGBITS,SHF_ALLOC|SHF_MERGE|SHF_STRINGS,1
	0x43045da3		.L.str.80
.rodata.str1.1	0x43045dd6	0x23	src\build\aware_client\gnss_worker_utils.o	#SHT_PROGBITS,SHF_ALLOC|SHF_MERGE|SHF_STRINGS,1
	0x43045dd6		.L.str.82
.rodata.str1.1	0x43045df9	0x2f	src\build\aware_client\gnss_worker_utils.o	#SHT_PROGBITS,SHF_ALLOC|SHF_MERGE|SHF_STRINGS,1
	0x43045df9		.L.str.85
.rodata.str1.1	0x43045e28	0x2f	src\build\aware_client\gnss_worker_utils.o	#SHT_PROGBITS,SHF_ALLOC|SHF_MERGE|SHF_STRINGS,1
	0x43045e28		.L.str.87
.rodata.str1.1	0x43045e57	0x19	src\build\aware_client\gnss_worker_utils.o	#SHT_PROGBITS,SHF_ALLOC|SHF_MERGE|SHF_STRINGS,1
	0x43045e57		.L.str.90
.rodata.str1.1	0x43045e70	0x29	src\build\aware_client\gnss_worker_utils.o	#SHT_PROGBITS,SHF_ALLOC|SHF_MERGE|SHF_STRINGS,1
	0x43045e70		.L.str.91
.rodata.str1.1	0x43045e99	0x1d	src\build\aware_client\gnss_worker_utils.o	#SHT_PROGBITS,SHF_ALLOC|SHF_MERGE|SHF_STRINGS,1
	0x43045e99		.L.str.94
.rodata.str1.1	0x43045eb6	0x1d	src\build\aware_client\gnss_worker_utils.o	#SHT_PROGBITS,SHF_ALLOC|SHF_MERGE|SHF_STRINGS,1
	0x43045eb6		.L.str.97
.rodata.str1.1	0x43045ed3	0x1d	src\build\aware_client\gnss_worker_utils.o	#SHT_PROGBITS,SHF_ALLOC|SHF_MERGE|SHF_STRINGS,1
	0x43045ed3		.L.str.99
.rodata.str1.1	0x43045ef0	0x21	src\build\aware_client\gnss_worker_utils.o	#SHT_PROGBITS,SHF_ALLOC|SHF_MERGE|SHF_STRINGS,1
	0x43045ef0		.L.str.102
.rodata.str1.1	0x43045f11	0x23	src\build\aware_client\gnss_worker_utils.o	#SHT_PROGBITS,SHF_ALLOC|SHF_MERGE|SHF_STRINGS,1
	0x43045f11		.L.str.104
.rodata.str1.1	0x43045f34	0x22	src\build\aware_client\gnss_worker_utils.o	#SHT_PROGBITS,SHF_ALLOC|SHF_MERGE|SHF_STRINGS,1
	0x43045f34		.L.str.109
.rodata.str1.1	0x43045f56	0x31	src\build\aware_client\gnss_worker_utils.o	#SHT_PROGBITS,SHF_ALLOC|SHF_MERGE|SHF_STRINGS,1
	0x43045f56		.L.str.112
.rodata.str1.1	0x43045f87	0x28	src\build\aware_client\gnss_worker_utils.o	#SHT_PROGBITS,SHF_ALLOC|SHF_MERGE|SHF_STRINGS,1
	0x43045f87		.L.str.115
.rodata.str1.1	0x43045faf	0x27	src\build\aware_client\gnss_worker_utils.o	#SHT_PROGBITS,SHF_ALLOC|SHF_MERGE|SHF_STRINGS,1
	0x43045faf		.L.str.118
.rodata.str1.1	0x43045fd6	0x28	src\build\aware_client\gnss_worker_utils.o	#SHT_PROGBITS,SHF_ALLOC|SHF_MERGE|SHF_STRINGS,1
	0x43045fd6		.L.str.119
.rodata.str1.1	0x43045ffe	0x17	src\build\aware_client\gnss_worker_utils.o	#SHT_PROGBITS,SHF_ALLOC|SHF_MERGE|SHF_STRINGS,1
	0x43045ffe		.L.str.122
.rodata.str1.1	0x43046015	0x1c	src\build\aware_client\gnss_worker_utils.o	#SHT_PROGBITS,SHF_ALLOC|SHF_MERGE|SHF_STRINGS,1
	0x43046015		.L.str.125
.rodata.str1.1	0x43046031	0x21	src\build\aware_client\gnss_worker_utils.o	#SHT_PROGBITS,SHF_ALLOC|SHF_MERGE|SHF_STRINGS,1
	0x43046031		.L.str.128
PADDING_ALIGNMENT	0x43046052	0x2	0x0
.rodata	0x43046054	0x4b0	src\build\aware_client\gnss_worker_utils.o	#SHT_PROGBITS,SHF_ALLOC,4
	0x43046054		app_utils_log_engine_status_recvd.xx_msg_const
	0x43046064		app_utils_log_engine_status_recvd.xx_msg_const.13
	0x43046074		app_utils_log_engine_status_recvd.xx_msg_const.15
	0x43046084		app_utils_log_engine_status_recvd.xx_msg_const.17
	0x43046094		app_utils_log_engine_status_recvd.xx_msg_const.19
	0x430460a4		app_utils_log_engine_status_recvd.xx_msg_const.21
	0x430460b4		app_utils_log_engine_status_recvd.xx_msg_const.23
	0x430460c4		app_utils_log_engine_status_recvd.xx_msg_const.25
	0x430460d4		app_utils_log_engine_status_recvd.xx_msg_const.27
	0x430460e4		app_utils_log_engine_status_recvd.xx_msg_const.29
	0x430460f4		app_utils_log_engine_status_recvd.xx_msg_const.31
	0x43046104		app_utils_log_engine_status_recvd.xx_msg_const.33
	0x43046114		app_utils_log_engine_status_recvd.xx_msg_const.35
	0x43046124		app_utils_log_engine_status_recvd.xx_msg_const.37
	0x43046134		app_utils_log_engine_status_recvd.xx_msg_const.39
	0x43046144		app_utils_log_engine_status_recvd.xx_msg_const.41
	0x43046154		app_utils_log_engine_status_recvd.xx_msg_const.43
	0x43046164		app_utils_log_engine_status_recvd.xx_msg_const.45
	0x43046174		app_utils_log_engine_status_recvd.xx_msg_const.47
	0x43046184		app_utils_log_engine_status_recvd.xx_msg_const.49
	0x43046194		app_utils_log_engine_status_recvd.xx_msg_const.51
	0x430461a4		app_utils_log_engine_status_recvd.xx_msg_const.53
	0x430461b4		app_utils_log_engine_status_recvd.xx_msg_const.55
	0x430461c4		app_utils_log_engine_status_recvd.xx_msg_const.57
	0x430461d4		app_utils_log_engine_status_recvd.xx_msg_const.59
	0x430461e4		app_utils_log_engine_status_recvd.xx_msg_const.61
	0x430461f4		app_utils_log_engine_status_recvd.xx_msg_const.63
	0x43046204		app_utils_log_engine_status_recvd.xx_msg_const.65
	0x43046214		app_utils_log_engine_status_recvd.xx_msg_const.67
	0x43046224		app_utils_log_engine_status_recvd.xx_msg_const.68
	0x43046234		gnss_worker_utils_set_app_priority.xx_msg_const
	0x43046244		gnss_worker_utils_set_app_priority.xx_msg_const.70
	0x43046254		gnss_worker_utils_set_app_priority.xx_msg_const.72
	0x43046264		gnss_worker_utils_set_app_priority.xx_msg_const.73
	0x43046274		gnss_worker_utils_set_app_priority.xx_msg_const.75
	0x43046284		gnss_worker_utils_set_app_priority.xx_msg_const.76
	0x43046294		gnss_worker_utils_set_app_priority.xx_msg_const.78
	0x430462a4		gnss_worker_utils_set_app_priority.xx_msg_const.79
	0x430462b4		gnss_worker_utils_is_gnss_high_priority.xx_msg_const
	0x430462c4		gnss_worker_utils_is_gnss_high_priority.xx_msg_const.81
	0x430462d4		gnss_worker_utils_is_gnss_high_priority.xx_msg_const.83
	0x430462e4		gnss_worker_utils_is_gnss_high_priority.xx_msg_const.84
	0x430462f4		gnss_worker_utils_restore_default_app_priority.xx_msg_const
	0x43046304		gnss_worker_utils_restore_default_app_priority.xx_msg_const.86
	0x43046314		gnss_worker_utils_restore_default_app_priority.xx_msg_const.88
	0x43046324		gnss_worker_utils_restore_default_app_priority.xx_msg_const.89
	0x43046334		gnss_worker_utils_log_state_event.xx_msg_const
	0x43046344		gnss_worker_utils_log_state_event.xx_msg_const.92
	0x43046354		gnss_worker_utils_log_state_event.xx_msg_const.93
	0x43046364		gnss_worker_utils_log_state_event.xx_msg_const.95
	0x43046374		gnss_worker_utils_log_state_event.xx_msg_const.96
	0x43046384		gnss_worker_utils_init.xx_msg_const
	0x43046394		gnss_worker_utils_init.xx_msg_const.98
	0x430463a4		gnss_worker_utils_init.xx_msg_const.100
	0x430463b4		gnss_worker_utils_init.xx_msg_const.101
	0x430463c4		gnss_worker_utils_set_wwan_sleep_callback.xx_msg_const
	0x430463d4		gnss_worker_utils_set_wwan_sleep_callback.xx_msg_const.103
	0x430463e4		gnss_worker_utils_set_wwan_sleep_callback.xx_msg_const.105
	0x430463f4		gnss_worker_utils_set_wwan_sleep_callback.xx_msg_const.106
	0x43046404		_gnss_worker_utils_init_device_info.xx_msg_const
	0x43046414		_gnss_worker_utils_init_device_info.xx_msg_const.108
	0x43046424		_gnss_worker_utils_init_device_info.xx_msg_const.110
	0x43046434		_gnss_worker_utils_init_device_info.xx_msg_const.111
	0x43046444		_gnss_worker_utils_init_device_info.xx_msg_const.113
	0x43046454		_gnss_worker_utils_init_device_info.xx_msg_const.114
	0x43046464		_gnss_worker_utils_init_device_info.xx_msg_const.116
	0x43046474		_gnss_worker_utils_init_device_info.xx_msg_const.117
	0x43046484		_gnss_worker_utils_wwan_sleep_callback.xx_msg_const
	0x43046494		_gnss_worker_utils_wwan_sleep_callback.xx_msg_const.120
	0x430464a4		_gnss_worker_utils_wwan_sleep_callback.xx_msg_const.121
	0x430464b4		_gnss_worker_utils_wwan_sleep_callback.xx_msg_const.123
	0x430464c4		_gnss_worker_utils_wwan_sleep_callback.xx_msg_const.124
	0x430464d4		_gnss_worker_utils_wwan_sleep_callback.xx_msg_const.126
	0x430464e4		_gnss_worker_utils_wwan_sleep_callback.xx_msg_const.127
	0x430464f4		_gnss_worker_utils_wwan_sleep_callback.xx_msg_const.129
.rodata.str1.1	0x43046504	0x11	src\build\aware_client\led_config.o	#SHT_PROGBITS,SHF_ALLOC|SHF_MERGE|SHF_STRINGS,1
	0x43046504		.L.str
.rodata.str1.1	0x43046515	0x5	src\build\aware_client\led_config.o	#SHT_PROGBITS,SHF_ALLOC|SHF_MERGE|SHF_STRINGS,1
	0x43046515		.L.str.1
.rodata.str1.1	0x4304651a	0x5	src\build\aware_client\led_config.o	#SHT_PROGBITS,SHF_ALLOC|SHF_MERGE|SHF_STRINGS,1
	0x4304651a		.L.str.2
.rodata.str1.1	0x4304651f	0x9	src\build\aware_client\led_config.o	#SHT_PROGBITS,SHF_ALLOC|SHF_MERGE|SHF_STRINGS,1
	0x4304651f		.L.str.3
.rodata.str1.1	0x43046528	0x9	src\build\aware_client\led_config.o	#SHT_PROGBITS,SHF_ALLOC|SHF_MERGE|SHF_STRINGS,1
	0x43046528		.L.str.4
.rodata.str1.1	0x43046531	0x9	src\build\aware_client\led_config.o	#SHT_PROGBITS,SHF_ALLOC|SHF_MERGE|SHF_STRINGS,1
	0x43046531		.L.str.5
.rodata.str1.1	0x4304653a	0x9	src\build\aware_client\led_config.o	#SHT_PROGBITS,SHF_ALLOC|SHF_MERGE|SHF_STRINGS,1
	0x4304653a		.L.str.6
.rodata.str1.1	0x43046543	0x5	src\build\aware_client\led_config.o	#SHT_PROGBITS,SHF_ALLOC|SHF_MERGE|SHF_STRINGS,1
	0x43046543		.L.str.7
.rodata.str1.1	0x43046548	0x4	src\build\aware_client\led_config.o	#SHT_PROGBITS,SHF_ALLOC|SHF_MERGE|SHF_STRINGS,1
	0x43046548		.L.str.8
.rodata.str1.1	0x4304654c	0x4	src\build\aware_client\led_config.o	#SHT_PROGBITS,SHF_ALLOC|SHF_MERGE|SHF_STRINGS,1
	0x4304654c		.L.str.9
.rodata.str1.1	0x43046550	0x4	src\build\aware_client\led_config.o	#SHT_PROGBITS,SHF_ALLOC|SHF_MERGE|SHF_STRINGS,1
	0x43046550		.L.str.10
.rodata.str1.1	0x43046554	0x4	src\build\aware_client\led_config.o	#SHT_PROGBITS,SHF_ALLOC|SHF_MERGE|SHF_STRINGS,1
	0x43046554		.L.str.11
.rodata.str1.1	0x43046558	0x4	src\build\aware_client\led_config.o	#SHT_PROGBITS,SHF_ALLOC|SHF_MERGE|SHF_STRINGS,1
	0x43046558		.L.str.12
.rodata.str1.1	0x4304655c	0x4	src\build\aware_client\led_config.o	#SHT_PROGBITS,SHF_ALLOC|SHF_MERGE|SHF_STRINGS,1
	0x4304655c		.L.str.13
.rodata.str1.1	0x43046560	0x7	src\build\aware_client\led_config.o	#SHT_PROGBITS,SHF_ALLOC|SHF_MERGE|SHF_STRINGS,1
	0x43046560		.L.str.14
.rodata.str1.1	0x43046567	0x7	src\build\aware_client\led_config.o	#SHT_PROGBITS,SHF_ALLOC|SHF_MERGE|SHF_STRINGS,1
	0x43046567		.L.str.15
.rodata.str1.1	0x4304656e	0x6	src\build\aware_client\led_config.o	#SHT_PROGBITS,SHF_ALLOC|SHF_MERGE|SHF_STRINGS,1
	0x4304656e		.L.str.16
.rodata.str1.1	0x43046574	0x6	src\build\aware_client\led_config.o	#SHT_PROGBITS,SHF_ALLOC|SHF_MERGE|SHF_STRINGS,1
	0x43046574		.L.str.17
.rodata.str1.1	0x4304657a	0x5	src\build\aware_client\led_config.o	#SHT_PROGBITS,SHF_ALLOC|SHF_MERGE|SHF_STRINGS,1
	0x4304657a		.L.str.18
.rodata.str1.1	0x4304657f	0x5	src\build\aware_client\led_config.o	#SHT_PROGBITS,SHF_ALLOC|SHF_MERGE|SHF_STRINGS,1
	0x4304657f		.L.str.19
.rodata.str1.1	0x43046584	0x6	src\build\aware_client\led_config.o	#SHT_PROGBITS,SHF_ALLOC|SHF_MERGE|SHF_STRINGS,1
	0x43046584		.L.str.20
.rodata.str1.1	0x4304658a	0x2a	src\build\aware_client\led_config.o	#SHT_PROGBITS,SHF_ALLOC|SHF_MERGE|SHF_STRINGS,1
	0x4304658a		.L.str.23
.rodata.str1.1	0x430465b4	0x24	src\build\aware_client\led_config.o	#SHT_PROGBITS,SHF_ALLOC|SHF_MERGE|SHF_STRINGS,1
	0x430465b4		.L.str.25
.rodata.str1.1	0x430465d8	0x1d	src\build\aware_client\led_config.o	#SHT_PROGBITS,SHF_ALLOC|SHF_MERGE|SHF_STRINGS,1
	0x430465d8		.L.str.30
.rodata.str1.1	0x430465f5	0x21	src\build\aware_client\led_config.o	#SHT_PROGBITS,SHF_ALLOC|SHF_MERGE|SHF_STRINGS,1
	0x430465f5		.L.str.33
.rodata.str1.1	0x43046616	0x1f	src\build\aware_client\led_config.o	#SHT_PROGBITS,SHF_ALLOC|SHF_MERGE|SHF_STRINGS,1
	0x43046616		.L.str.36
.rodata.str1.1	0x43046635	0x27	src\build\aware_client\led_config.o	#SHT_PROGBITS,SHF_ALLOC|SHF_MERGE|SHF_STRINGS,1
	0x43046635		.L.str.39
.rodata.str1.1	0x4304665c	0x1e	src\build\aware_client\led_config.o	#SHT_PROGBITS,SHF_ALLOC|SHF_MERGE|SHF_STRINGS,1
	0x4304665c		.L.str.42
.rodata.str1.1	0x4304667a	0x27	src\build\aware_client\led_config.o	#SHT_PROGBITS,SHF_ALLOC|SHF_MERGE|SHF_STRINGS,1
	0x4304667a		.L.str.45
.rodata.str1.1	0x430466a1	0x2c	src\build\aware_client\led_config.o	#SHT_PROGBITS,SHF_ALLOC|SHF_MERGE|SHF_STRINGS,1
	0x430466a1		.L.str.48
.rodata.str1.1	0x430466cd	0x21	src\build\aware_client\led_config.o	#SHT_PROGBITS,SHF_ALLOC|SHF_MERGE|SHF_STRINGS,1
	0x430466cd		.L.str.51
.rodata.str1.1	0x430466ee	0x2c	src\build\aware_client\led_config.o	#SHT_PROGBITS,SHF_ALLOC|SHF_MERGE|SHF_STRINGS,1
	0x430466ee		.L.str.54
.rodata.str1.1	0x4304671a	0x29	src\build\aware_client\led_config.o	#SHT_PROGBITS,SHF_ALLOC|SHF_MERGE|SHF_STRINGS,1
	0x4304671a		.L.str.57
.rodata.str1.1	0x43046743	0x21	src\build\aware_client\led_config.o	#SHT_PROGBITS,SHF_ALLOC|SHF_MERGE|SHF_STRINGS,1
	0x43046743		.L.str.60
.rodata.str1.1	0x43046764	0x2c	src\build\aware_client\led_config.o	#SHT_PROGBITS,SHF_ALLOC|SHF_MERGE|SHF_STRINGS,1
	0x43046764		.L.str.63
.rodata.str1.1	0x43046790	0x29	src\build\aware_client\led_config.o	#SHT_PROGBITS,SHF_ALLOC|SHF_MERGE|SHF_STRINGS,1
	0x43046790		.L.str.66
.rodata.str1.1	0x430467b9	0x28	src\build\aware_client\led_config.o	#SHT_PROGBITS,SHF_ALLOC|SHF_MERGE|SHF_STRINGS,1
	0x430467b9		.L.str.69
.rodata.str1.1	0x430467e1	0x21	src\build\aware_client\led_config.o	#SHT_PROGBITS,SHF_ALLOC|SHF_MERGE|SHF_STRINGS,1
	0x430467e1		.L.str.72
.rodata.str1.1	0x43046802	0x31	src\build\aware_client\led_config.o	#SHT_PROGBITS,SHF_ALLOC|SHF_MERGE|SHF_STRINGS,1
	0x43046802		.L.str.75
.rodata.str1.1	0x43046833	0x31	src\build\aware_client\led_config.o	#SHT_PROGBITS,SHF_ALLOC|SHF_MERGE|SHF_STRINGS,1
	0x43046833		.L.str.78
.rodata.str1.1	0x43046864	0x27	src\build\aware_client\led_config.o	#SHT_PROGBITS,SHF_ALLOC|SHF_MERGE|SHF_STRINGS,1
	0x43046864		.L.str.81
.rodata.str1.1	0x4304688b	0x25	src\build\aware_client\led_config.o	#SHT_PROGBITS,SHF_ALLOC|SHF_MERGE|SHF_STRINGS,1
	0x4304688b		.L.str.84
.rodata.str1.1	0x430468b0	0x1f	src\build\aware_client\led_config.o	#SHT_PROGBITS,SHF_ALLOC|SHF_MERGE|SHF_STRINGS,1
	0x430468b0		.L.str.87
PADDING_ALIGNMENT	0x430468cf	0x1	0x0
.rodata	0x430468d0	0x300	src\build\aware_client\led_config.o	#SHT_PROGBITS,SHF_ALLOC,4
	0x430468d0		led_config_common_load.xx_msg_const
	0x430468e0		led_config_common_load.xx_msg_const.24
	0x430468f0		led_config_common_load.xx_msg_const.26
	0x43046900		led_config_common_load.xx_msg_const.27
	0x43046910		led_config_common_load.xx_msg_const.28
	0x43046920		led_config_common_load.xx_msg_const.29
	0x43046930		led_config_common_load.xx_msg_const.31
	0x43046940		led_config_common_load.xx_msg_const.32
	0x43046950		led_config_common_load.xx_msg_const.34
	0x43046960		led_config_common_load.xx_msg_const.35
	0x43046970		led_config_common_load.xx_msg_const.37
	0x43046980		led_config_common_load.xx_msg_const.38
	0x43046990		led_config_common_load.xx_msg_const.40
	0x430469a0		led_config_common_load.xx_msg_const.41
	0x430469b0		led_config_common_load.xx_msg_const.43
	0x430469c0		led_config_common_load.xx_msg_const.44
	0x430469d0		led_config_common_load.xx_msg_const.46
	0x430469e0		led_config_common_load.xx_msg_const.47
	0x430469f0		led_config_common_load.xx_msg_const.49
	0x43046a00		led_config_common_load.xx_msg_const.50
	0x43046a10		led_config_common_load.xx_msg_const.52
	0x43046a20		led_config_common_load.xx_msg_const.53
	0x43046a30		led_config_common_load.xx_msg_const.55
	0x43046a40		led_config_common_load.xx_msg_const.56
	0x43046a50		led_config_common_load.xx_msg_const.58
	0x43046a60		led_config_common_load.xx_msg_const.59
	0x43046a70		led_config_common_load.xx_msg_const.61
	0x43046a80		led_config_common_load.xx_msg_const.62
	0x43046a90		led_config_common_load.xx_msg_const.64
	0x43046aa0		led_config_common_load.xx_msg_const.65
	0x43046ab0		led_config_common_load.xx_msg_const.67
	0x43046ac0		led_config_common_load.xx_msg_const.68
	0x43046ad0		led_config_common_load.xx_msg_const.70
	0x43046ae0		led_config_common_load.xx_msg_const.71
	0x43046af0		led_config_common_load.xx_msg_const.73
	0x43046b00		led_config_common_load.xx_msg_const.74
	0x43046b10		led_config_common_load.xx_msg_const.76
	0x43046b20		led_config_common_load.xx_msg_const.77
	0x43046b30		led_config_common_load.xx_msg_const.79
	0x43046b40		led_config_common_load.xx_msg_const.80
	0x43046b50		led_config_common_load.xx_msg_const.82
	0x43046b60		led_config_common_load.xx_msg_const.83
	0x43046b70		led_config_common_load.xx_msg_const.85
	0x43046b80		led_config_common_load.xx_msg_const.86
	0x43046b90		led_config_common_load.xx_msg_const.88
	0x43046ba0		led_config_common_load.xx_msg_const.89
	0x43046bb0		led_config_common_load.xx_msg_const.90
	0x43046bc0		led_config_common_load.xx_msg_const.91
.rodata	0x43046bd0	0x5c	src\build\aware_client\location.pb.o	#SHT_PROGBITS,SHF_ALLOC,4
	0x43046bd0		LocationMessage_field_info
	0x43046c10		LocationMessage_submsg_info
	0x43046c14		LocationMessage_msg
.rodata.str1.1	0x43046c2c	0xe	src\build\aware_client\pb_decode.o	#SHT_PROGBITS,SHF_ALLOC|SHF_MERGE|SHF_STRINGS,1
	0x43046c2c		.L.str
.rodata.str1.1	0x43046c3a	0x9	src\build\aware_client\pb_decode.o	#SHT_PROGBITS,SHF_ALLOC|SHF_MERGE|SHF_STRINGS,1
	0x43046c3a		.L.str.1
.rodata.str1.1	0x43046c43	0x10	src\build\aware_client\pb_decode.o	#SHT_PROGBITS,SHF_ALLOC|SHF_MERGE|SHF_STRINGS,1
	0x43046c43		.L.str.2
.rodata.str1.1	0x43046c53	0x12	src\build\aware_client\pb_decode.o	#SHT_PROGBITS,SHF_ALLOC|SHF_MERGE|SHF_STRINGS,1
	0x43046c53		.L.str.3
.rodata.str1.1	0x43046c65	0x18	src\build\aware_client\pb_decode.o	#SHT_PROGBITS,SHF_ALLOC|SHF_MERGE|SHF_STRINGS,1
	0x43046c65		.L.str.4
.rodata.str1.1	0x43046c7d	0xf	src\build\aware_client\pb_decode.o	#SHT_PROGBITS,SHF_ALLOC|SHF_MERGE|SHF_STRINGS,1
	0x43046c7d		.L.str.5
.rodata.str1.1	0x43046c8c	0x17	src\build\aware_client\pb_decode.o	#SHT_PROGBITS,SHF_ALLOC|SHF_MERGE|SHF_STRINGS,1
	0x43046c8c		.L.str.6
.rodata.str1.1	0x43046ca3	0x9	src\build\aware_client\pb_decode.o	#SHT_PROGBITS,SHF_ALLOC|SHF_MERGE|SHF_STRINGS,1
	0x43046ca3		.L.str.7
.rodata.str1.1	0x43046cac	0x21	src\build\aware_client\pb_decode.o	#SHT_PROGBITS,SHF_ALLOC|SHF_MERGE|SHF_STRINGS,1
	0x43046cac		.L.str.8
.rodata.str1.1	0x43046ccd	0x17	src\build\aware_client\pb_decode.o	#SHT_PROGBITS,SHF_ALLOC|SHF_MERGE|SHF_STRINGS,1
	0x43046ccd		.L.str.9
.rodata.str1.1	0x43046ce4	0x12	src\build\aware_client\pb_decode.o	#SHT_PROGBITS,SHF_ALLOC|SHF_MERGE|SHF_STRINGS,1
	0x43046ce4		.L.str.10
.rodata.str1.1	0x43046cf6	0x13	src\build\aware_client\pb_decode.o	#SHT_PROGBITS,SHF_ALLOC|SHF_MERGE|SHF_STRINGS,1
	0x43046cf6		.L.str.11
.rodata.str1.1	0x43046d09	0xf	src\build\aware_client\pb_decode.o	#SHT_PROGBITS,SHF_ALLOC|SHF_MERGE|SHF_STRINGS,1
	0x43046d09		.L.str.12
.rodata.str1.1	0x43046d18	0x10	src\build\aware_client\pb_decode.o	#SHT_PROGBITS,SHF_ALLOC|SHF_MERGE|SHF_STRINGS,1
	0x43046d18		.L.str.13
.rodata.str1.1	0x43046d28	0x12	src\build\aware_client\pb_decode.o	#SHT_PROGBITS,SHF_ALLOC|SHF_MERGE|SHF_STRINGS,1
	0x43046d28		.L.str.14
.rodata.str1.1	0x43046d3a	0x12	src\build\aware_client\pb_decode.o	#SHT_PROGBITS,SHF_ALLOC|SHF_MERGE|SHF_STRINGS,1
	0x43046d3a		.L.str.15
.rodata.str1.1	0x43046d4c	0xf	src\build\aware_client\pb_decode.o	#SHT_PROGBITS,SHF_ALLOC|SHF_MERGE|SHF_STRINGS,1
	0x43046d4c		.L.str.16
.rodata.str1.1	0x43046d5b	0x12	src\build\aware_client\pb_decode.o	#SHT_PROGBITS,SHF_ALLOC|SHF_MERGE|SHF_STRINGS,1
	0x43046d5b		.L.str.17
.rodata.str1.1	0x43046d6d	0x10	src\build\aware_client\pb_decode.o	#SHT_PROGBITS,SHF_ALLOC|SHF_MERGE|SHF_STRINGS,1
	0x43046d6d		.L.str.18
.rodata.str1.1	0x43046d7d	0x19	src\build\aware_client\pb_decode.o	#SHT_PROGBITS,SHF_ALLOC|SHF_MERGE|SHF_STRINGS,1
	0x43046d7d		.L.str.19
.rodata.str1.1	0x43046d96	0x22	src\build\aware_client\pb_decode.o	#SHT_PROGBITS,SHF_ALLOC|SHF_MERGE|SHF_STRINGS,1
	0x43046d96		.L.str.20
.rodata.str1.1	0x43046db8	0x10	src\build\aware_client\pb_decode.o	#SHT_PROGBITS,SHF_ALLOC|SHF_MERGE|SHF_STRINGS,1
	0x43046db8		.L.str.21
.rodata.str1.1	0x43046dc8	0xc	src\build\aware_client\pb_encode.o	#SHT_PROGBITS,SHF_ALLOC|SHF_MERGE|SHF_STRINGS,1
	0x43046dc8		.L.str
.rodata.str1.1	0x43046dd4	0x14	src\build\aware_client\pb_encode.o	#SHT_PROGBITS,SHF_ALLOC|SHF_MERGE|SHF_STRINGS,1
	0x43046dd4		.L.str.3
.rodata.str1.1	0x43046de8	0xf	src\build\aware_client\pb_encode.o	#SHT_PROGBITS,SHF_ALLOC|SHF_MERGE|SHF_STRINGS,1
	0x43046de8		.L.str.6
.rodata.str1.1	0x43046df7	0x18	src\build\aware_client\pb_encode.o	#SHT_PROGBITS,SHF_ALLOC|SHF_MERGE|SHF_STRINGS,1
	0x43046df7		.L.str.7
.rodata.str1.1	0x43046e0f	0x7	src\build\aware_client\pb_encode.o	#SHT_PROGBITS,SHF_ALLOC|SHF_MERGE|SHF_STRINGS,1
	0x43046e0f		.L.str.8
.rodata.str1.1	0x43046e16	0x14	src\build\aware_client\pb_encode.o	#SHT_PROGBITS,SHF_ALLOC|SHF_MERGE|SHF_STRINGS,1
	0x43046e16		.L.str.10
.rodata.str1.1	0x43046e2a	0x13	src\build\aware_client\pb_encode.o	#SHT_PROGBITS,SHF_ALLOC|SHF_MERGE|SHF_STRINGS,1
	0x43046e2a		.L.str.11
.rodata.str1.1	0x43046e3d	0x14	src\build\aware_client\pb_encode.o	#SHT_PROGBITS,SHF_ALLOC|SHF_MERGE|SHF_STRINGS,1
	0x43046e3d		.L.str.12
.rodata.str1.1	0x43046e51	0x1b	src\build\aware_client\qapi_loc_callbacks.o	#SHT_PROGBITS,SHF_ALLOC|SHF_MERGE|SHF_STRINGS,1
	0x43046e51		.L.str
.rodata.str1.1	0x43046e6c	0x2f	src\build\aware_client\qapi_loc_callbacks.o	#SHT_PROGBITS,SHF_ALLOC|SHF_MERGE|SHF_STRINGS,1
	0x43046e6c		.L.str.2
.rodata.str1.1	0x43046e9b	0x22	src\build\aware_client\qapi_loc_callbacks.o	#SHT_PROGBITS,SHF_ALLOC|SHF_MERGE|SHF_STRINGS,1
	0x43046e9b		.L.str.3
.rodata.str1.1	0x43046ebd	0x1a	src\build\aware_client\qapi_loc_callbacks.o	#SHT_PROGBITS,SHF_ALLOC|SHF_MERGE|SHF_STRINGS,1
	0x43046ebd		.L.str.4
.rodata.str1.1	0x43046ed7	0x1c	src\build\aware_client\qapi_loc_callbacks.o	#SHT_PROGBITS,SHF_ALLOC|SHF_MERGE|SHF_STRINGS,1
	0x43046ed7		.L.str.6
.rodata.str1.1	0x43046ef3	0xc	src\build\aware_client\qapi_loc_callbacks.o	#SHT_PROGBITS,SHF_ALLOC|SHF_MERGE|SHF_STRINGS,1
	0x43046ef3		.L.str.7
.rodata.str1.1	0x43046eff	0x27	src\build\aware_client\qapi_loc_callbacks.o	#SHT_PROGBITS,SHF_ALLOC|SHF_MERGE|SHF_STRINGS,1
	0x43046eff		.L.str.10
.rodata.str1.1	0x43046f26	0x1e	src\build\aware_client\qapi_loc_callbacks.o	#SHT_PROGBITS,SHF_ALLOC|SHF_MERGE|SHF_STRINGS,1
	0x43046f26		.L.str.12
.rodata.str1.1	0x43046f44	0x34	src\build\aware_client\qapi_loc_callbacks.o	#SHT_PROGBITS,SHF_ALLOC|SHF_MERGE|SHF_STRINGS,1
	0x43046f44		.L.str.14
.rodata.str1.1	0x43046f78	0x17	src\build\aware_client\qapi_loc_callbacks.o	#SHT_PROGBITS,SHF_ALLOC|SHF_MERGE|SHF_STRINGS,1
	0x43046f78		.L.str.16
.rodata.str1.1	0x43046f8f	0xe	src\build\aware_client\qapi_loc_callbacks.o	#SHT_PROGBITS,SHF_ALLOC|SHF_MERGE|SHF_STRINGS,1
	0x43046f8f		.L.str.18
.rodata.str1.1	0x43046f9d	0x1e	src\build\aware_client\qapi_loc_callbacks.o	#SHT_PROGBITS,SHF_ALLOC|SHF_MERGE|SHF_STRINGS,1
	0x43046f9d		.L.str.23
.rodata.str1.1	0x43046fbb	0x13	src\build\aware_client\qapi_loc_callbacks.o	#SHT_PROGBITS,SHF_ALLOC|SHF_MERGE|SHF_STRINGS,1
	0x43046fbb		.L.str.24
.rodata.str1.1	0x43046fce	0x12	src\build\aware_client\qapi_loc_callbacks.o	#SHT_PROGBITS,SHF_ALLOC|SHF_MERGE|SHF_STRINGS,1
	0x43046fce		.L.str.26
.rodata.str1.1	0x43046fe0	0x16	src\build\aware_client\qapi_loc_callbacks.o	#SHT_PROGBITS,SHF_ALLOC|SHF_MERGE|SHF_STRINGS,1
	0x43046fe0		.L.str.28
.rodata.str1.1	0x43046ff6	0x17	src\build\aware_client\qapi_loc_callbacks.o	#SHT_PROGBITS,SHF_ALLOC|SHF_MERGE|SHF_STRINGS,1
	0x43046ff6		.L.str.30
.rodata.str1.1	0x4304700d	0x18	src\build\aware_client\qapi_loc_callbacks.o	#SHT_PROGBITS,SHF_ALLOC|SHF_MERGE|SHF_STRINGS,1
	0x4304700d		.L.str.32
.rodata.str1.1	0x43047025	0x3f	src\build\aware_client\qapi_loc_callbacks.o	#SHT_PROGBITS,SHF_ALLOC|SHF_MERGE|SHF_STRINGS,1
	0x43047025		.L.str.34
.rodata.str1.1	0x43047064	0x7	src\build\aware_client\qapi_loc_callbacks.o	#SHT_PROGBITS,SHF_ALLOC|SHF_MERGE|SHF_STRINGS,1
	0x43047064		.L.str.36
.rodata.str1.1	0x4304706b	0xe	src\build\aware_client\qapi_loc_callbacks.o	#SHT_PROGBITS,SHF_ALLOC|SHF_MERGE|SHF_STRINGS,1
	0x4304706b		.L.str.41
.rodata.str1.1	0x43047079	0x2a	src\build\aware_client\qapi_loc_callbacks.o	#SHT_PROGBITS,SHF_ALLOC|SHF_MERGE|SHF_STRINGS,1
	0x43047079		.L.str.42
.rodata.str1.1	0x430470a3	0x26	src\build\aware_client\qapi_loc_callbacks.o	#SHT_PROGBITS,SHF_ALLOC|SHF_MERGE|SHF_STRINGS,1
	0x430470a3		.L.str.45
.rodata.str1.1	0x430470c9	0x21	src\build\aware_client\qapi_loc_callbacks.o	#SHT_PROGBITS,SHF_ALLOC|SHF_MERGE|SHF_STRINGS,1
	0x430470c9		.L.str.51
.rodata.str1.1	0x430470ea	0xd	src\build\aware_client\qapi_loc_callbacks.o	#SHT_PROGBITS,SHF_ALLOC|SHF_MERGE|SHF_STRINGS,1
	0x430470ea		.L.str.54
.rodata.str1.1	0x430470f7	0x22	src\build\aware_client\qapi_loc_callbacks.o	#SHT_PROGBITS,SHF_ALLOC|SHF_MERGE|SHF_STRINGS,1
	0x430470f7		.L.str.55
.rodata.str1.1	0x43047119	0x25	src\build\aware_client\qapi_loc_callbacks.o	#SHT_PROGBITS,SHF_ALLOC|SHF_MERGE|SHF_STRINGS,1
	0x43047119		.L.str.57
.rodata.str1.1	0x4304713e	0x12	src\build\aware_client\qapi_loc_callbacks.o	#SHT_PROGBITS,SHF_ALLOC|SHF_MERGE|SHF_STRINGS,1
	0x4304713e		.L.str.59
.rodata.str1.1	0x43047150	0x49	src\build\aware_client\qapi_loc_callbacks.o	#SHT_PROGBITS,SHF_ALLOC|SHF_MERGE|SHF_STRINGS,1
	0x43047150		.L.str.60
.rodata.str1.1	0x43047199	0x18	src\build\aware_client\qapi_loc_callbacks.o	#SHT_PROGBITS,SHF_ALLOC|SHF_MERGE|SHF_STRINGS,1
	0x43047199		.L.str.63
.rodata.str1.1	0x430471b1	0x1c	src\build\aware_client\qapi_loc_callbacks.o	#SHT_PROGBITS,SHF_ALLOC|SHF_MERGE|SHF_STRINGS,1
	0x430471b1		.L.str.65
.rodata.str1.1	0x430471cd	0x17	src\build\aware_client\qapi_loc_callbacks.o	#SHT_PROGBITS,SHF_ALLOC|SHF_MERGE|SHF_STRINGS,1
	0x430471cd		.L.str.67
.rodata.str1.1	0x430471e4	0xd	src\build\aware_client\qapi_loc_callbacks.o	#SHT_PROGBITS,SHF_ALLOC|SHF_MERGE|SHF_STRINGS,1
	0x430471e4		.L.str.70
.rodata.str1.1	0x430471f1	0x12	src\build\aware_client\qapi_loc_callbacks.o	#SHT_PROGBITS,SHF_ALLOC|SHF_MERGE|SHF_STRINGS,1
	0x430471f1		.L.str.71
.rodata.str1.1	0x43047203	0x9	src\build\aware_client\qapi_loc_callbacks.o	#SHT_PROGBITS,SHF_ALLOC|SHF_MERGE|SHF_STRINGS,1
	0x43047203		.L.str.73
.rodata.str1.1	0x4304720c	0xb	src\build\aware_client\qapi_loc_callbacks.o	#SHT_PROGBITS,SHF_ALLOC|SHF_MERGE|SHF_STRINGS,1
	0x4304720c		.L.str.75
.rodata.str1.1	0x43047217	0x13	src\build\aware_client\qapi_loc_callbacks.o	#SHT_PROGBITS,SHF_ALLOC|SHF_MERGE|SHF_STRINGS,1
	0x43047217		.L.str.77
.rodata.str1.1	0x4304722a	0x1f	src\build\aware_client\qapi_loc_callbacks.o	#SHT_PROGBITS,SHF_ALLOC|SHF_MERGE|SHF_STRINGS,1
	0x4304722a		.L.str.78
.rodata.str1.1	0x43047249	0x28	src\build\aware_client\qapi_loc_callbacks.o	#SHT_PROGBITS,SHF_ALLOC|SHF_MERGE|SHF_STRINGS,1
	0x43047249		.L.str.79
.rodata.str1.1	0x43047271	0x2b	src\build\aware_client\qapi_loc_callbacks.o	#SHT_PROGBITS,SHF_ALLOC|SHF_MERGE|SHF_STRINGS,1
	0x43047271		.L.str.80
.rodata.str1.1	0x4304729c	0xf	src\build\aware_client\qapi_loc_callbacks.o	#SHT_PROGBITS,SHF_ALLOC|SHF_MERGE|SHF_STRINGS,1
	0x4304729c		.L.str.82
.rodata.str1.1	0x430472ab	0x18	src\build\aware_client\qapi_loc_callbacks.o	#SHT_PROGBITS,SHF_ALLOC|SHF_MERGE|SHF_STRINGS,1
	0x430472ab		.L.str.84
.rodata.str1.1	0x430472c3	0x9	src\build\aware_client\qapi_loc_callbacks.o	#SHT_PROGBITS,SHF_ALLOC|SHF_MERGE|SHF_STRINGS,1
	0x430472c3		.L.str.86
.rodata.str1.1	0x430472cc	0x10	src\build\aware_client\qapi_loc_callbacks.o	#SHT_PROGBITS,SHF_ALLOC|SHF_MERGE|SHF_STRINGS,1
	0x430472cc		.L.str.89
.rodata.str1.1	0x430472dc	0x12	src\build\aware_client\qapi_loc_callbacks.o	#SHT_PROGBITS,SHF_ALLOC|SHF_MERGE|SHF_STRINGS,1
	0x430472dc		.L.str.92
.rodata.str1.1	0x430472ee	0x16	src\build\aware_client\qapi_loc_callbacks.o	#SHT_PROGBITS,SHF_ALLOC|SHF_MERGE|SHF_STRINGS,1
	0x430472ee		.L.str.95
PADDING_ALIGNMENT	0x43047304	0x4	0x0
.rodata	0x43047308	0xb70	src\build\aware_client\qapi_loc_callbacks.o	#SHT_PROGBITS,SHF_ALLOC,8
	0x43047308		qapi_loc_wrapper_response_cb.xx_msg_const
	0x43047318		qapi_loc_wrapper_collective_response_cb.xx_msg_const
	0x43047328		qapi_loc_wrapper_collective_response_cb.xx_msg_const.5
	0x43047338		qapi_loc_wrapper_capabilities_cb.xx_msg_const
	0x43047348		qapi_loc_wrapper_tracking_cb.xx_msg_const
	0x43047358		qapi_loc_wrapper_tracking_cb.xx_msg_const.9
	0x43047368		qapi_loc_wrapper_tracking_cb.xx_msg_const.11
	0x43047378		qapi_loc_wrapper_tracking_cb.xx_msg_const.13
	0x43047388		qapi_loc_wrapper_tracking_cb.xx_msg_const.15
	0x43047398		qapi_loc_wrapper_batching_cb.xx_msg_const
	0x430473a8		qapi_loc_wrapper_batching_cb.xx_msg_const.17
	0x430473b8		qapi_loc_wrapper_batching_cb.xx_msg_const.19
	0x430473c8		qapi_loc_wrapper_batching_cb.xx_msg_const.20
	0x430473d8		qapi_loc_wrapper_batching_cb.xx_msg_const.21
	0x430473e8		qapi_loc_wrapper_batching_cb.xx_msg_const.22
	0x430473f8		qapi_loc_wrapper_geofence_breach_cb.xx_msg_const
	0x43047408		qapi_loc_wrapper_geofence_breach_cb.xx_msg_const.25
	0x43047418		qapi_loc_wrapper_geofence_breach_cb.xx_msg_const.27
	0x43047428		qapi_loc_wrapper_geofence_breach_cb.xx_msg_const.29
	0x43047438		qapi_loc_wrapper_geofence_breach_cb.xx_msg_const.31
	0x43047448		qapi_loc_wrapper_geofence_breach_cb.xx_msg_const.33
	0x43047458		qapi_loc_wrapper_geofence_breach_cb.xx_msg_const.35
	0x43047468		qapi_loc_wrapper_geofence_breach_cb.xx_msg_const.37
	0x43047478		qapi_loc_wrapper_geofence_breach_cb.xx_msg_const.38
	0x43047488		qapi_loc_wrapper_geofence_breach_cb.xx_msg_const.39
	0x43047498		qapi_loc_wrapper_geofence_breach_cb.xx_msg_const.40
	0x430474a8		qapi_loc_wrapper_single_shot_cb.xx_msg_const
	0x430474b8		qapi_loc_wrapper_single_shot_cb.xx_msg_const.43
	0x430474c8		qapi_loc_wrapper_single_shot_cb.xx_msg_const.44
	0x430474d8		qapi_loc_wrapper_single_shot_cb.xx_msg_const.46
	0x430474e8		qapi_loc_wrapper_single_shot_cb.xx_msg_const.47
	0x430474f8		qapi_loc_wrapper_single_shot_cb.xx_msg_const.48
	0x43047508		qapi_loc_wrapper_single_shot_cb.xx_msg_const.49
	0x43047518		qapi_loc_wrapper_single_shot_cb.xx_msg_const.50
	0x43047528		qapi_loc_wrapper_single_shot_cb.xx_msg_const.52
	0x43047538		qapi_loc_wrapper_single_shot_cb.xx_msg_const.53
	0x43047548		qapi_loc_wrapper_gnss_data_cb.xx_msg_const
	0x43047558		qapi_loc_wrapper_gnss_data_cb.xx_msg_const.56
	0x43047568		qapi_loc_wrapper_gnss_data_cb.xx_msg_const.58
	0x43047578		qapi_loc_wrapper_gnss_meta_data_cb.xx_msg_const
	0x43047d08		qapi_loc_wrapper_gnss_meta_data_cb.xx_msg_const.61
	0x43047d18		qapi_loc_wrapper_gnss_meta_data_cb.xx_msg_const.62
	0x43047d28		qapi_loc_wrapper_gnss_meta_data_cb.xx_msg_const.64
	0x43047d38		qapi_loc_wrapper_gnss_meta_data_cb.xx_msg_const.66
	0x43047d48		qapi_loc_wrapper_gnss_meta_data_cb.xx_msg_const.68
	0x43047d58		qapi_loc_wrapper_gnss_meta_data_cb.xx_msg_const.69
	0x43047d68		qapi_loc_wrapper_gnss_nmea_cb.xx_msg_const
	0x43047d78		qapi_loc_wrapper_gnss_nmea_cb.xx_msg_const.72
	0x43047d88		qapi_loc_wrapper_gnss_nmea_cb.xx_msg_const.74
	0x43047d98		qapi_loc_wrapper_gnss_nmea_cb.xx_msg_const.76
	0x43047da8		qapi_loc_wrapper_motion_tracking_cb.xx_msg_const
	0x43047db8		qapi_loc_wrapper_motion_tracking_cb.xx_msg_const.81
	0x43047dc8		qapi_loc_wrapper_motion_tracking_cb.xx_msg_const.83
	0x43047dd8		qapi_loc_wrapper_client_request_cb.xx_msg_const
	0x43047de8		qapi_loc_wrapper_client_request_cb.xx_msg_const.85
	0x43047df8		qapi_loc_wrapper_client_request_cb.xx_msg_const.87
	0x43047e08		qapi_loc_wrapper_client_request_cb.xx_msg_const.88
	0x43047e18		qapi_loc_wrapper_client_request_cb.xx_msg_const.90
	0x43047e28		qapi_loc_wrapper_client_request_cb.xx_msg_const.91
	0x43047e38		qapi_loc_wrapper_client_request_cb.xx_msg_const.93
	0x43047e48		qapi_loc_wrapper_client_request_cb.xx_msg_const.94
	0x43047e58		qapi_loc_wrapper_client_request_cb.xx_msg_const.96
	0x43047e68		qapi_loc_wrapper_client_request_cb.xx_msg_const.97
.rodata.str1.1	0x43047e78	0x10	src\build\aware_client\qapi_loc_wrapper.o	#SHT_PROGBITS,SHF_ALLOC|SHF_MERGE|SHF_STRINGS,1
	0x43047e78		.L.str
.rodata.str1.1	0x43047e88	0x1a	src\build\aware_client\qapi_loc_wrapper.o	#SHT_PROGBITS,SHF_ALLOC|SHF_MERGE|SHF_STRINGS,1
	0x43047e88		.L.str.1
.rodata.str1.1	0x43047ea2	0xf	src\build\aware_client\qapi_loc_wrapper.o	#SHT_PROGBITS,SHF_ALLOC|SHF_MERGE|SHF_STRINGS,1
	0x43047ea2		.L.str.2
.rodata.str1.1	0x43047eb1	0x11	src\build\aware_client\qapi_loc_wrapper.o	#SHT_PROGBITS,SHF_ALLOC|SHF_MERGE|SHF_STRINGS,1
	0x43047eb1		.L.str.3
.rodata.str1.1	0x43047ec2	0x2d	src\build\aware_client\qapi_loc_wrapper.o	#SHT_PROGBITS,SHF_ALLOC|SHF_MERGE|SHF_STRINGS,1
	0x43047ec2		.L.str.5
.rodata.str1.1	0x43047eef	0x21	src\build\aware_client\qapi_loc_wrapper.o	#SHT_PROGBITS,SHF_ALLOC|SHF_MERGE|SHF_STRINGS,1
	0x43047eef		.L.str.7
.rodata.str1.1	0x43047f10	0x19	src\build\aware_client\qapi_loc_wrapper.o	#SHT_PROGBITS,SHF_ALLOC|SHF_MERGE|SHF_STRINGS,1
	0x43047f10		.L.str.10
.rodata.str1.1	0x43047f29	0x1e	src\build\aware_client\qapi_loc_wrapper.o	#SHT_PROGBITS,SHF_ALLOC|SHF_MERGE|SHF_STRINGS,1
	0x43047f29		.L.str.13
.rodata.str1.1	0x43047f47	0x10	src\build\aware_client\qapi_loc_wrapper.o	#SHT_PROGBITS,SHF_ALLOC|SHF_MERGE|SHF_STRINGS,1
	0x43047f47		.L.str.16
.rodata.str1.1	0x43047f57	0x23	src\build\aware_client\qapi_loc_wrapper.o	#SHT_PROGBITS,SHF_ALLOC|SHF_MERGE|SHF_STRINGS,1
	0x43047f57		.L.str.18
.rodata.str1.1	0x43047f7a	0x3c	src\build\aware_client\qapi_loc_wrapper.o	#SHT_PROGBITS,SHF_ALLOC|SHF_MERGE|SHF_STRINGS,1
	0x43047f7a		.L.str.21
.rodata.str1.1	0x43047fb6	0x41	src\build\aware_client\qapi_loc_wrapper.o	#SHT_PROGBITS,SHF_ALLOC|SHF_MERGE|SHF_STRINGS,1
	0x43047fb6		.L.str.23
.rodata.str1.1	0x43047ff7	0x1c	src\build\aware_client\qapi_loc_wrapper.o	#SHT_PROGBITS,SHF_ALLOC|SHF_MERGE|SHF_STRINGS,1
	0x43047ff7		.L.str.26
.rodata.str1.1	0x43048013	0x27	src\build\aware_client\qapi_loc_wrapper.o	#SHT_PROGBITS,SHF_ALLOC|SHF_MERGE|SHF_STRINGS,1
	0x43048013		.L.str.29
.rodata.str1.1	0x4304803a	0x1c	src\build\aware_client\qapi_loc_wrapper.o	#SHT_PROGBITS,SHF_ALLOC|SHF_MERGE|SHF_STRINGS,1
	0x4304803a		.L.str.32
.rodata.str1.1	0x43048056	0x1f	src\build\aware_client\qapi_loc_wrapper.o	#SHT_PROGBITS,SHF_ALLOC|SHF_MERGE|SHF_STRINGS,1
	0x43048056		.L.str.34
.rodata.str1.1	0x43048075	0x18	src\build\aware_client\qapi_loc_wrapper.o	#SHT_PROGBITS,SHF_ALLOC|SHF_MERGE|SHF_STRINGS,1
	0x43048075		.L.str.37
.rodata.str1.1	0x4304808d	0x17	src\build\aware_client\qapi_loc_wrapper.o	#SHT_PROGBITS,SHF_ALLOC|SHF_MERGE|SHF_STRINGS,1
	0x4304808d		.L.str.41
.rodata.str1.1	0x430480a4	0x25	src\build\aware_client\qapi_loc_wrapper.o	#SHT_PROGBITS,SHF_ALLOC|SHF_MERGE|SHF_STRINGS,1
	0x430480a4		.L.str.45
.rodata.str1.1	0x430480c9	0x1f	src\build\aware_client\qapi_loc_wrapper.o	#SHT_PROGBITS,SHF_ALLOC|SHF_MERGE|SHF_STRINGS,1
	0x430480c9		.L.str.49
.rodata.str1.1	0x430480e8	0x1e	src\build\aware_client\qapi_loc_wrapper.o	#SHT_PROGBITS,SHF_ALLOC|SHF_MERGE|SHF_STRINGS,1
	0x430480e8		.L.str.53
.rodata.str1.1	0x43048106	0x17	src\build\aware_client\qapi_loc_wrapper.o	#SHT_PROGBITS,SHF_ALLOC|SHF_MERGE|SHF_STRINGS,1
	0x43048106		.L.str.57
.rodata.str1.1	0x4304811d	0x1a	src\build\aware_client\qapi_loc_wrapper.o	#SHT_PROGBITS,SHF_ALLOC|SHF_MERGE|SHF_STRINGS,1
	0x4304811d		.L.str.61
.rodata.str1.1	0x43048137	0x23	src\build\aware_client\qapi_loc_wrapper.o	#SHT_PROGBITS,SHF_ALLOC|SHF_MERGE|SHF_STRINGS,1
	0x43048137		.L.str.65
.rodata.str1.1	0x4304815a	0x2a	src\build\aware_client\qapi_loc_wrapper.o	#SHT_PROGBITS,SHF_ALLOC|SHF_MERGE|SHF_STRINGS,1
	0x4304815a		.L.str.67
.rodata.str1.1	0x43048184	0x1a	src\build\aware_client\qapi_loc_wrapper.o	#SHT_PROGBITS,SHF_ALLOC|SHF_MERGE|SHF_STRINGS,1
	0x43048184		.L.str.70
.rodata.str1.1	0x4304819e	0x2c	src\build\aware_client\qapi_loc_wrapper.o	#SHT_PROGBITS,SHF_ALLOC|SHF_MERGE|SHF_STRINGS,1
	0x4304819e		.L.str.74
.rodata.str1.1	0x430481ca	0x28	src\build\aware_client\qapi_loc_wrapper.o	#SHT_PROGBITS,SHF_ALLOC|SHF_MERGE|SHF_STRINGS,1
	0x430481ca		.L.str.76
.rodata.str1.1	0x430481f2	0x1e	src\build\aware_client\qapi_loc_wrapper.o	#SHT_PROGBITS,SHF_ALLOC|SHF_MERGE|SHF_STRINGS,1
	0x430481f2		.L.str.78
.rodata.str1.1	0x43048210	0x1d	src\build\aware_client\qapi_loc_wrapper.o	#SHT_PROGBITS,SHF_ALLOC|SHF_MERGE|SHF_STRINGS,1
	0x43048210		.L.str.80
.rodata.str1.1	0x4304822d	0x29	src\build\aware_client\qapi_loc_wrapper.o	#SHT_PROGBITS,SHF_ALLOC|SHF_MERGE|SHF_STRINGS,1
	0x4304822d		.L.str.83
PADDING_ALIGNMENT	0x43048256	0x2	0x0
.rodata	0x43048258	0x480	src\build\aware_client\qapi_loc_wrapper.o	#SHT_PROGBITS,SHF_ALLOC,4
	0x43048258		qapi_loc_wrapper_init.xx_msg_const
	0x43048268		qapi_loc_wrapper_init.xx_msg_const.6
	0x43048278		qapi_loc_wrapper_init.xx_msg_const.8
	0x43048288		qapi_loc_wrapper_init.xx_msg_const.9
	0x43048298		qapi_loc_wrapper_init.xx_msg_const.11
	0x430482a8		qapi_loc_wrapper_init.xx_msg_const.12
	0x430482b8		qapi_loc_wrapper_init.xx_msg_const.14
	0x430482c8		qapi_loc_wrapper_init.xx_msg_const.15
	0x430482d8		qapi_loc_wrapper_deinit.xx_msg_const
	0x430482e8		qapi_loc_wrapper_deinit.xx_msg_const.17
	0x430482f8		qapi_loc_wrapper_deinit.xx_msg_const.19
	0x43048308		qapi_loc_wrapper_deinit.xx_msg_const.20
	0x43048318		qapi_loc_wrapper_get_single_shot.xx_msg_const
	0x43048328		qapi_loc_wrapper_get_single_shot.xx_msg_const.22
	0x43048338		qapi_loc_wrapper_get_single_shot.xx_msg_const.24
	0x43048348		qapi_loc_wrapper_get_single_shot.xx_msg_const.25
	0x43048358		qapi_loc_wrapper_get_single_shot.xx_msg_const.27
	0x43048368		qapi_loc_wrapper_get_single_shot.xx_msg_const.28
	0x43048378		qapi_loc_wrapper_get_single_shot.xx_msg_const.30
	0x43048388		qapi_loc_wrapper_get_single_shot.xx_msg_const.31
	0x43048398		qapi_loc_wrapper_cancel_single_shot.xx_msg_const
	0x430483a8		qapi_loc_wrapper_cancel_single_shot.xx_msg_const.33
	0x430483b8		qapi_loc_wrapper_cancel_single_shot.xx_msg_const.35
	0x430483c8		qapi_loc_wrapper_cancel_single_shot.xx_msg_const.36
	0x430483d8		qapi_loc_wrapper_tracking_start.xx_msg_const
	0x430483e8		qapi_loc_wrapper_tracking_start.xx_msg_const.38
	0x430483f8		qapi_loc_wrapper_tracking_start.xx_msg_const.39
	0x43048408		qapi_loc_wrapper_tracking_start.xx_msg_const.40
	0x43048418		qapi_loc_wrapper_tracking_stop.xx_msg_const
	0x43048428		qapi_loc_wrapper_tracking_stop.xx_msg_const.42
	0x43048438		qapi_loc_wrapper_tracking_stop.xx_msg_const.43
	0x43048448		qapi_loc_wrapper_tracking_stop.xx_msg_const.44
	0x43048458		qapi_loc_wrapper_get_best_available_position.xx_msg_const
	0x43048468		qapi_loc_wrapper_get_best_available_position.xx_msg_const.46
	0x43048478		qapi_loc_wrapper_get_best_available_position.xx_msg_const.47
	0x43048488		qapi_loc_wrapper_get_best_available_position.xx_msg_const.48
	0x43048498		qapi_loc_wrapper_start_motion_tracking.xx_msg_const
	0x430484a8		qapi_loc_wrapper_start_motion_tracking.xx_msg_const.50
	0x430484b8		qapi_loc_wrapper_start_motion_tracking.xx_msg_const.51
	0x430484c8		qapi_loc_wrapper_start_motion_tracking.xx_msg_const.52
	0x430484d8		qapi_loc_wrapper_stop_motion_tracking.xx_msg_const
	0x430484e8		qapi_loc_wrapper_stop_motion_tracking.xx_msg_const.54
	0x430484f8		qapi_loc_wrapper_stop_motion_tracking.xx_msg_const.55
	0x43048508		qapi_loc_wrapper_stop_motion_tracking.xx_msg_const.56
	0x43048518		qapi_loc_wrapper_add_geofence.xx_msg_const
	0x43048528		qapi_loc_wrapper_add_geofence.xx_msg_const.58
	0x43048538		qapi_loc_wrapper_add_geofence.xx_msg_const.59
	0x43048548		qapi_loc_wrapper_add_geofence.xx_msg_const.60
	0x43048558		qapi_loc_wrapper_remove_geofence.xx_msg_const
	0x43048568		qapi_loc_wrapper_remove_geofence.xx_msg_const.62
	0x43048578		qapi_loc_wrapper_remove_geofence.xx_msg_const.63
	0x43048588		qapi_loc_wrapper_remove_geofence.xx_msg_const.64
	0x43048598		qapi_loc_wrapper_set_gnss_constellation_config.xx_msg_const
	0x430485a8		qapi_loc_wrapper_set_gnss_constellation_config.xx_msg_const.66
	0x430485b8		qapi_loc_wrapper_set_gnss_constellation_config.xx_msg_const.68
	0x430485c8		qapi_loc_wrapper_set_gnss_constellation_config.xx_msg_const.69
	0x430485d8		qapi_loc_wrapper_set_gnss_xtra_config.xx_msg_const
	0x430485e8		qapi_loc_wrapper_set_gnss_xtra_config.xx_msg_const.71
	0x430485f8		qapi_loc_wrapper_set_gnss_xtra_config.xx_msg_const.72
	0x43048608		qapi_loc_wrapper_set_gnss_xtra_config.xx_msg_const.73
	0x43048618		qapi_loc_wrapper_trigger_ad_update.xx_msg_const
	0x43048628		qapi_loc_wrapper_trigger_ad_update.xx_msg_const.75
	0x43048638		qapi_loc_wrapper_get_ad_status.xx_msg_const
	0x43048648		qapi_loc_wrapper_get_ad_status.xx_msg_const.77
	0x43048658		_wait_for_response_cb.xx_msg_const
	0x43048668		_wait_for_response_cb.xx_msg_const.79
	0x43048678		_wait_for_response_cb.xx_msg_const.81
	0x43048688		_wait_for_response_cb.xx_msg_const.82
	0x43048698		_wait_for_collective_response_cb.xx_msg_const
	0x430486a8		_wait_for_collective_response_cb.xx_msg_const.84
	0x430486b8		_wait_for_collective_response_cb.xx_msg_const.85
	0x430486c8		_wait_for_collective_response_cb.xx_msg_const.86
.rodata.str1.1	0x430486d8	0x13	src\build\aware_client\runtime_config.o	#SHT_PROGBITS,SHF_ALLOC|SHF_MERGE|SHF_STRINGS,1
	0x430486d8		.L.str
.rodata.str1.1	0x430486eb	0x6	src\build\aware_client\runtime_config.o	#SHT_PROGBITS,SHF_ALLOC|SHF_MERGE|SHF_STRINGS,1
	0x430486eb		.L.str.1
.rodata.str1.1	0x430486f1	0x6	src\build\aware_client\runtime_config.o	#SHT_PROGBITS,SHF_ALLOC|SHF_MERGE|SHF_STRINGS,1
	0x430486f1		.L.str.2
.rodata.str1.1	0x430486f7	0x5	src\build\aware_client\runtime_config.o	#SHT_PROGBITS,SHF_ALLOC|SHF_MERGE|SHF_STRINGS,1
	0x430486f7		.L.str.3
.rodata.str1.1	0x430486fc	0x5	src\build\aware_client\runtime_config.o	#SHT_PROGBITS,SHF_ALLOC|SHF_MERGE|SHF_STRINGS,1
	0x430486fc		.L.str.4
.rodata.str1.1	0x43048701	0x5	src\build\aware_client\runtime_config.o	#SHT_PROGBITS,SHF_ALLOC|SHF_MERGE|SHF_STRINGS,1
	0x43048701		.L.str.5
.rodata.str1.1	0x43048706	0x5	src\build\aware_client\runtime_config.o	#SHT_PROGBITS,SHF_ALLOC|SHF_MERGE|SHF_STRINGS,1
	0x43048706		.L.str.6
.rodata.str1.1	0x4304870b	0x5	src\build\aware_client\runtime_config.o	#SHT_PROGBITS,SHF_ALLOC|SHF_MERGE|SHF_STRINGS,1
	0x4304870b		.L.str.7
.rodata.str1.1	0x43048710	0x5	src\build\aware_client\runtime_config.o	#SHT_PROGBITS,SHF_ALLOC|SHF_MERGE|SHF_STRINGS,1
	0x43048710		.L.str.8
.rodata.str1.1	0x43048715	0x6	src\build\aware_client\runtime_config.o	#SHT_PROGBITS,SHF_ALLOC|SHF_MERGE|SHF_STRINGS,1
	0x43048715		.L.str.9
.rodata.str1.1	0x4304871b	0x6	src\build\aware_client\runtime_config.o	#SHT_PROGBITS,SHF_ALLOC|SHF_MERGE|SHF_STRINGS,1
	0x4304871b		.L.str.10
.rodata.str1.1	0x43048721	0x7	src\build\aware_client\runtime_config.o	#SHT_PROGBITS,SHF_ALLOC|SHF_MERGE|SHF_STRINGS,1
	0x43048721		.L.str.11
.rodata.str1.1	0x43048728	0x7	src\build\aware_client\runtime_config.o	#SHT_PROGBITS,SHF_ALLOC|SHF_MERGE|SHF_STRINGS,1
	0x43048728		.L.str.12
.rodata.str1.1	0x4304872f	0x5	src\build\aware_client\runtime_config.o	#SHT_PROGBITS,SHF_ALLOC|SHF_MERGE|SHF_STRINGS,1
	0x4304872f		.L.str.14
.rodata.str1.1	0x43048734	0x24	src\build\aware_client\runtime_config.o	#SHT_PROGBITS,SHF_ALLOC|SHF_MERGE|SHF_STRINGS,1
	0x43048734		.L.str.15
.rodata.str1.1	0x43048758	0x2e	src\build\aware_client\runtime_config.o	#SHT_PROGBITS,SHF_ALLOC|SHF_MERGE|SHF_STRINGS,1
	0x43048758		.L.str.17
.rodata.str1.1	0x43048786	0x1c	src\build\aware_client\runtime_config.o	#SHT_PROGBITS,SHF_ALLOC|SHF_MERGE|SHF_STRINGS,1
	0x43048786		.L.str.22
.rodata.str1.1	0x430487a2	0x1a	src\build\aware_client\runtime_config.o	#SHT_PROGBITS,SHF_ALLOC|SHF_MERGE|SHF_STRINGS,1
	0x430487a2		.L.str.25
.rodata.str1.1	0x430487bc	0x1a	src\build\aware_client\runtime_config.o	#SHT_PROGBITS,SHF_ALLOC|SHF_MERGE|SHF_STRINGS,1
	0x430487bc		.L.str.28
.rodata.str1.1	0x430487d6	0x1c	src\build\aware_client\runtime_config.o	#SHT_PROGBITS,SHF_ALLOC|SHF_MERGE|SHF_STRINGS,1
	0x430487d6		.L.str.31
.rodata.str1.1	0x430487f2	0x17	src\build\aware_client\runtime_config.o	#SHT_PROGBITS,SHF_ALLOC|SHF_MERGE|SHF_STRINGS,1
	0x430487f2		.L.str.34
.rodata.str1.1	0x43048809	0x18	src\build\aware_client\runtime_config.o	#SHT_PROGBITS,SHF_ALLOC|SHF_MERGE|SHF_STRINGS,1
	0x43048809		.L.str.37
.rodata.str1.1	0x43048821	0x20	src\build\aware_client\runtime_config.o	#SHT_PROGBITS,SHF_ALLOC|SHF_MERGE|SHF_STRINGS,1
	0x43048821		.L.str.40
.rodata.str1.1	0x43048841	0x20	src\build\aware_client\runtime_config.o	#SHT_PROGBITS,SHF_ALLOC|SHF_MERGE|SHF_STRINGS,1
	0x43048841		.L.str.43
.rodata.str1.1	0x43048861	0x19	src\build\aware_client\runtime_config.o	#SHT_PROGBITS,SHF_ALLOC|SHF_MERGE|SHF_STRINGS,1
	0x43048861		.L.str.46
.rodata.str1.1	0x4304887a	0x17	src\build\aware_client\runtime_config.o	#SHT_PROGBITS,SHF_ALLOC|SHF_MERGE|SHF_STRINGS,1
	0x4304887a		.L.str.49
.rodata.str1.1	0x43048891	0x1e	src\build\aware_client\runtime_config.o	#SHT_PROGBITS,SHF_ALLOC|SHF_MERGE|SHF_STRINGS,1
	0x43048891		.L.str.52
.rodata.str1.1	0x430488af	0x1b	src\build\aware_client\runtime_config.o	#SHT_PROGBITS,SHF_ALLOC|SHF_MERGE|SHF_STRINGS,1
	0x430488af		.L.str.55
.rodata.str1.1	0x430488ca	0x22	src\build\aware_client\runtime_config.o	#SHT_PROGBITS,SHF_ALLOC|SHF_MERGE|SHF_STRINGS,1
	0x430488ca		.L.str.58
.rodata.str1.1	0x430488ec	0x1e	src\build\aware_client\runtime_config.o	#SHT_PROGBITS,SHF_ALLOC|SHF_MERGE|SHF_STRINGS,1
	0x430488ec		.L.str.61
PADDING_ALIGNMENT	0x4304890a	0x2	0x0
.rodata	0x4304890c	0x260	src\build\aware_client\runtime_config.o	#SHT_PROGBITS,SHF_ALLOC,4
	0x4304890c		runtime_config_load.xx_msg_const
	0x4304891c		runtime_config_load.xx_msg_const.18
	0x4304892c		runtime_config_load.xx_msg_const.20
	0x4304893c		runtime_config_load.xx_msg_const.21
	0x4304894c		runtime_config_load.xx_msg_const.23
	0x4304895c		runtime_config_load.xx_msg_const.24
	0x4304896c		runtime_config_load.xx_msg_const.26
	0x4304897c		runtime_config_load.xx_msg_const.27
	0x4304898c		runtime_config_load.xx_msg_const.29
	0x4304899c		runtime_config_load.xx_msg_const.30
	0x430489ac		runtime_config_load.xx_msg_const.32
	0x430489bc		runtime_config_load.xx_msg_const.33
	0x430489cc		runtime_config_load.xx_msg_const.35
	0x430489dc		runtime_config_load.xx_msg_const.36
	0x430489ec		runtime_config_load.xx_msg_const.38
	0x430489fc		runtime_config_load.xx_msg_const.39
	0x43048a0c		runtime_config_load.xx_msg_const.41
	0x43048a1c		runtime_config_load.xx_msg_const.42
	0x43048a2c		runtime_config_load.xx_msg_const.44
	0x43048a3c		runtime_config_load.xx_msg_const.45
	0x43048a4c		runtime_config_load.xx_msg_const.47
	0x43048a5c		runtime_config_load.xx_msg_const.48
	0x43048a6c		runtime_config_load.xx_msg_const.50
	0x43048a7c		runtime_config_load.xx_msg_const.51
	0x43048a8c		runtime_config_load.xx_msg_const.53
	0x43048a9c		runtime_config_load.xx_msg_const.54
	0x43048aac		runtime_config_load.xx_msg_const.56
	0x43048abc		runtime_config_load.xx_msg_const.57
	0x43048acc		runtime_config_load.xx_msg_const.59
	0x43048adc		runtime_config_load.xx_msg_const.60
	0x43048aec		runtime_config_load.xx_msg_const.62
	0x43048afc		runtime_config_load.xx_msg_const.63
	0x43048b0c		runtime_config_load.xx_msg_const.64
	0x43048b1c		runtime_config_load.xx_msg_const.65
	0x43048b2c		runtime_config_update.xx_msg_const
	0x43048b3c		runtime_config_update.xx_msg_const.66
	0x43048b4c		runtime_config_update.xx_msg_const.67
	0x43048b5c		runtime_config_update.xx_msg_const.68
.rodata.str1.1	0x43048b6c	0xf	src\build\aware_client\sensor_config.o	#SHT_PROGBITS,SHF_ALLOC|SHF_MERGE|SHF_STRINGS,1
	0x43048b6c		.L.str
.rodata.str1.1	0x43048b7b	0x7	src\build\aware_client\sensor_config.o	#SHT_PROGBITS,SHF_ALLOC|SHF_MERGE|SHF_STRINGS,1
	0x43048b7b		.L.str.1
.rodata.str1.1	0x43048b82	0xb	src\build\aware_client\sensor_config.o	#SHT_PROGBITS,SHF_ALLOC|SHF_MERGE|SHF_STRINGS,1
	0x43048b82		.L.str.2
.rodata.str1.1	0x43048b8d	0xb	src\build\aware_client\sensor_config.o	#SHT_PROGBITS,SHF_ALLOC|SHF_MERGE|SHF_STRINGS,1
	0x43048b8d		.L.str.3
.rodata.str1.1	0x43048b98	0x9	src\build\aware_client\sensor_config.o	#SHT_PROGBITS,SHF_ALLOC|SHF_MERGE|SHF_STRINGS,1
	0x43048b98		.L.str.4
.rodata.str1.1	0x43048ba1	0x2b	src\build\aware_client\sensor_config.o	#SHT_PROGBITS,SHF_ALLOC|SHF_MERGE|SHF_STRINGS,1
	0x43048ba1		.L.str.5
.rodata.str1.1	0x43048bcc	0x2d	src\build\aware_client\sensor_config.o	#SHT_PROGBITS,SHF_ALLOC|SHF_MERGE|SHF_STRINGS,1
	0x43048bcc		.L.str.7
.rodata.str1.1	0x43048bf9	0x7	src\build\aware_client\sensor_config.o	#SHT_PROGBITS,SHF_ALLOC|SHF_MERGE|SHF_STRINGS,1
	0x43048bf9		.L.str.9
.rodata.str1.1	0x43048c00	0xb	src\build\aware_client\sensor_config.o	#SHT_PROGBITS,SHF_ALLOC|SHF_MERGE|SHF_STRINGS,1
	0x43048c00		.L.str.10
.rodata.str1.1	0x43048c0b	0xb	src\build\aware_client\sensor_config.o	#SHT_PROGBITS,SHF_ALLOC|SHF_MERGE|SHF_STRINGS,1
	0x43048c0b		.L.str.11
.rodata.str1.1	0x43048c16	0x9	src\build\aware_client\sensor_config.o	#SHT_PROGBITS,SHF_ALLOC|SHF_MERGE|SHF_STRINGS,1
	0x43048c16		.L.str.12
.rodata.str1.1	0x43048c1f	0x30	src\build\aware_client\sensor_config.o	#SHT_PROGBITS,SHF_ALLOC|SHF_MERGE|SHF_STRINGS,1
	0x43048c1f		.L.str.13
.rodata.str1.1	0x43048c4f	0x7	src\build\aware_client\sensor_config.o	#SHT_PROGBITS,SHF_ALLOC|SHF_MERGE|SHF_STRINGS,1
	0x43048c4f		.L.str.16
.rodata.str1.1	0x43048c56	0xb	src\build\aware_client\sensor_config.o	#SHT_PROGBITS,SHF_ALLOC|SHF_MERGE|SHF_STRINGS,1
	0x43048c56		.L.str.17
.rodata.str1.1	0x43048c61	0xb	src\build\aware_client\sensor_config.o	#SHT_PROGBITS,SHF_ALLOC|SHF_MERGE|SHF_STRINGS,1
	0x43048c61		.L.str.18
.rodata.str1.1	0x43048c6c	0x9	src\build\aware_client\sensor_config.o	#SHT_PROGBITS,SHF_ALLOC|SHF_MERGE|SHF_STRINGS,1
	0x43048c6c		.L.str.19
.rodata.str1.1	0x43048c75	0x30	src\build\aware_client\sensor_config.o	#SHT_PROGBITS,SHF_ALLOC|SHF_MERGE|SHF_STRINGS,1
	0x43048c75		.L.str.20
.rodata.str1.1	0x43048ca5	0x7	src\build\aware_client\sensor_config.o	#SHT_PROGBITS,SHF_ALLOC|SHF_MERGE|SHF_STRINGS,1
	0x43048ca5		.L.str.23
.rodata.str1.1	0x43048cac	0xb	src\build\aware_client\sensor_config.o	#SHT_PROGBITS,SHF_ALLOC|SHF_MERGE|SHF_STRINGS,1
	0x43048cac		.L.str.24
.rodata.str1.1	0x43048cb7	0xb	src\build\aware_client\sensor_config.o	#SHT_PROGBITS,SHF_ALLOC|SHF_MERGE|SHF_STRINGS,1
	0x43048cb7		.L.str.25
.rodata.str1.1	0x43048cc2	0x9	src\build\aware_client\sensor_config.o	#SHT_PROGBITS,SHF_ALLOC|SHF_MERGE|SHF_STRINGS,1
	0x43048cc2		.L.str.26
.rodata.str1.1	0x43048ccb	0x33	src\build\aware_client\sensor_config.o	#SHT_PROGBITS,SHF_ALLOC|SHF_MERGE|SHF_STRINGS,1
	0x43048ccb		.L.str.27
.rodata.str1.1	0x43048cfe	0x2	src\build\aware_client\sensor_config.o	#SHT_PROGBITS,SHF_ALLOC|SHF_MERGE|SHF_STRINGS,1
	0x43048cfe		.L.str.30
.rodata.str1.1	0x43048d00	0x6	src\build\aware_client\sensor_config.o	#SHT_PROGBITS,SHF_ALLOC|SHF_MERGE|SHF_STRINGS,1
	0x43048d00		.L.str.31
.rodata.str1.1	0x43048d06	0x9	src\build\aware_client\sensor_config.o	#SHT_PROGBITS,SHF_ALLOC|SHF_MERGE|SHF_STRINGS,1
	0x43048d06		.L.str.32
.rodata.str1.1	0x43048d0f	0x28	src\build\aware_client\sensor_config.o	#SHT_PROGBITS,SHF_ALLOC|SHF_MERGE|SHF_STRINGS,1
	0x43048d0f		.L.str.36
.rodata.str1.1	0x43048d37	0x19	src\build\aware_client\sensor_config.o	#SHT_PROGBITS,SHF_ALLOC|SHF_MERGE|SHF_STRINGS,1
	0x43048d37		.L.str.39
.rodata.str1.1	0x43048d50	0x1b	src\build\aware_client\sensor_config.o	#SHT_PROGBITS,SHF_ALLOC|SHF_MERGE|SHF_STRINGS,1
	0x43048d50		.L.str.42
.rodata.str1.1	0x43048d6b	0x28	src\build\aware_client\sensor_config.o	#SHT_PROGBITS,SHF_ALLOC|SHF_MERGE|SHF_STRINGS,1
	0x43048d6b		.L.str.45
.rodata.str1.1	0x43048d93	0x27	src\build\aware_client\sensor_config.o	#SHT_PROGBITS,SHF_ALLOC|SHF_MERGE|SHF_STRINGS,1
	0x43048d93		.L.str.48
.rodata.str1.1	0x43048dba	0x24	src\build\aware_client\sensor_config.o	#SHT_PROGBITS,SHF_ALLOC|SHF_MERGE|SHF_STRINGS,1
	0x43048dba		.L.str.51
.rodata.str1.1	0x43048dde	0x23	src\build\aware_client\sensor_config.o	#SHT_PROGBITS,SHF_ALLOC|SHF_MERGE|SHF_STRINGS,1
	0x43048dde		.L.str.54
.rodata.str1.1	0x43048e01	0x23	src\build\aware_client\sensor_config.o	#SHT_PROGBITS,SHF_ALLOC|SHF_MERGE|SHF_STRINGS,1
	0x43048e01		.L.str.57
.rodata	0x43048e24	0x1c0	src\build\aware_client\sensor_config.o	#SHT_PROGBITS,SHF_ALLOC,4
	0x43048e24		sensor_config_load.xx_msg_const
	0x43048e34		sensor_config_load.xx_msg_const.8
	0x43048e44		sensor_config_load.xx_msg_const.14
	0x43048e54		sensor_config_load.xx_msg_const.15
	0x43048e64		sensor_config_load.xx_msg_const.21
	0x43048e74		sensor_config_load.xx_msg_const.22
	0x43048e84		sensor_config_load.xx_msg_const.28
	0x43048e94		sensor_config_load.xx_msg_const.29
	0x43048ea4		sensor_config_load.xx_msg_const.34
	0x43048eb4		sensor_config_load.xx_msg_const.35
	0x43048ec4		sensor_config_load.xx_msg_const.37
	0x43048ed4		sensor_config_load.xx_msg_const.38
	0x43048ee4		sensor_config_load.xx_msg_const.40
	0x43048ef4		sensor_config_load.xx_msg_const.41
	0x43048f04		sensor_config_load.xx_msg_const.43
	0x43048f14		sensor_config_load.xx_msg_const.44
	0x43048f24		sensor_config_load.xx_msg_const.46
	0x43048f34		sensor_config_load.xx_msg_const.47
	0x43048f44		sensor_config_load.xx_msg_const.49
	0x43048f54		sensor_config_load.xx_msg_const.50
	0x43048f64		sensor_config_load.xx_msg_const.52
	0x43048f74		sensor_config_load.xx_msg_const.53
	0x43048f84		sensor_config_load.xx_msg_const.55
	0x43048f94		sensor_config_load.xx_msg_const.56
	0x43048fa4		sensor_config_load.xx_msg_const.58
	0x43048fb4		sensor_config_load.xx_msg_const.59
	0x43048fc4		sensor_config_load.xx_msg_const.60
	0x43048fd4		sensor_config_load.xx_msg_const.61
.rodata.str1.1	0x43048fe4	0x2f	src\build\aware_client\sensor_mgr.o	#SHT_PROGBITS,SHF_ALLOC|SHF_MERGE|SHF_STRINGS,1
	0x43048fe4		.L.str
.rodata.str1.1	0x43049013	0x2d	src\build\aware_client\sensor_mgr.o	#SHT_PROGBITS,SHF_ALLOC|SHF_MERGE|SHF_STRINGS,1
	0x43049013		.L.str.2
.rodata.str1.1	0x43049040	0x31	src\build\aware_client\sensor_mgr.o	#SHT_PROGBITS,SHF_ALLOC|SHF_MERGE|SHF_STRINGS,1
	0x43049040		.L.str.4
.rodata.str1.1	0x43049071	0x2f	src\build\aware_client\sensor_mgr.o	#SHT_PROGBITS,SHF_ALLOC|SHF_MERGE|SHF_STRINGS,1
	0x43049071		.L.str.7
.rodata.str1.1	0x430490a0	0x46	src\build\aware_client\sensor_mgr.o	#SHT_PROGBITS,SHF_ALLOC|SHF_MERGE|SHF_STRINGS,1
	0x430490a0		.L.str.10
.rodata.str1.1	0x430490e6	0x53	src\build\aware_client\sensor_mgr.o	#SHT_PROGBITS,SHF_ALLOC|SHF_MERGE|SHF_STRINGS,1
	0x430490e6		.L.str.13
.rodata.str1.1	0x43049139	0x68	src\build\aware_client\sensor_mgr.o	#SHT_PROGBITS,SHF_ALLOC|SHF_MERGE|SHF_STRINGS,1
	0x43049139		.L.str.16
.rodata.str1.1	0x430491a1	0x65	src\build\aware_client\sensor_mgr.o	#SHT_PROGBITS,SHF_ALLOC|SHF_MERGE|SHF_STRINGS,1
	0x430491a1		.L.str.19
.rodata.str1.1	0x43049206	0x65	src\build\aware_client\sensor_mgr.o	#SHT_PROGBITS,SHF_ALLOC|SHF_MERGE|SHF_STRINGS,1
	0x43049206		.L.str.22
.rodata.str1.1	0x4304926b	0x60	src\build\aware_client\sensor_mgr.o	#SHT_PROGBITS,SHF_ALLOC|SHF_MERGE|SHF_STRINGS,1
	0x4304926b		.L.str.25
.rodata.str1.1	0x430492cb	0x43	src\build\aware_client\sensor_mgr.o	#SHT_PROGBITS,SHF_ALLOC|SHF_MERGE|SHF_STRINGS,1
	0x430492cb		.L.str.28
.rodata.str1.1	0x4304930e	0x4a	src\build\aware_client\sensor_mgr.o	#SHT_PROGBITS,SHF_ALLOC|SHF_MERGE|SHF_STRINGS,1
	0x4304930e		.L.str.31
.rodata.str1.1	0x43049358	0x46	src\build\aware_client\sensor_mgr.o	#SHT_PROGBITS,SHF_ALLOC|SHF_MERGE|SHF_STRINGS,1
	0x43049358		.L.str.34
.rodata.str1.1	0x4304939e	0x53	src\build\aware_client\sensor_mgr.o	#SHT_PROGBITS,SHF_ALLOC|SHF_MERGE|SHF_STRINGS,1
	0x4304939e		.L.str.37
.rodata.str1.1	0x430493f1	0x6e	src\build\aware_client\sensor_mgr.o	#SHT_PROGBITS,SHF_ALLOC|SHF_MERGE|SHF_STRINGS,1
	0x430493f1		.L.str.40
.rodata.str1.1	0x4304945f	0x6b	src\build\aware_client\sensor_mgr.o	#SHT_PROGBITS,SHF_ALLOC|SHF_MERGE|SHF_STRINGS,1
	0x4304945f		.L.str.43
.rodata.str1.1	0x430494ca	0x6b	src\build\aware_client\sensor_mgr.o	#SHT_PROGBITS,SHF_ALLOC|SHF_MERGE|SHF_STRINGS,1
	0x430494ca		.L.str.46
.rodata.str1.1	0x43049535	0x66	src\build\aware_client\sensor_mgr.o	#SHT_PROGBITS,SHF_ALLOC|SHF_MERGE|SHF_STRINGS,1
	0x43049535		.L.str.49
.rodata.str1.1	0x4304959b	0x49	src\build\aware_client\sensor_mgr.o	#SHT_PROGBITS,SHF_ALLOC|SHF_MERGE|SHF_STRINGS,1
	0x4304959b		.L.str.52
.rodata.str1.1	0x430495e4	0x4a	src\build\aware_client\sensor_mgr.o	#SHT_PROGBITS,SHF_ALLOC|SHF_MERGE|SHF_STRINGS,1
	0x430495e4		.L.str.55
.rodata.str1.1	0x4304962e	0x49	src\build\aware_client\sensor_mgr.o	#SHT_PROGBITS,SHF_ALLOC|SHF_MERGE|SHF_STRINGS,1
	0x4304962e		.L.str.58
.rodata.str1.1	0x43049677	0x56	src\build\aware_client\sensor_mgr.o	#SHT_PROGBITS,SHF_ALLOC|SHF_MERGE|SHF_STRINGS,1
	0x43049677		.L.str.61
.rodata.str1.1	0x430496cd	0x71	src\build\aware_client\sensor_mgr.o	#SHT_PROGBITS,SHF_ALLOC|SHF_MERGE|SHF_STRINGS,1
	0x430496cd		.L.str.64
.rodata.str1.1	0x4304973e	0x6e	src\build\aware_client\sensor_mgr.o	#SHT_PROGBITS,SHF_ALLOC|SHF_MERGE|SHF_STRINGS,1
	0x4304973e		.L.str.67
.rodata.str1.1	0x430497ac	0x6e	src\build\aware_client\sensor_mgr.o	#SHT_PROGBITS,SHF_ALLOC|SHF_MERGE|SHF_STRINGS,1
	0x430497ac		.L.str.70
.rodata.str1.1	0x4304981a	0x69	src\build\aware_client\sensor_mgr.o	#SHT_PROGBITS,SHF_ALLOC|SHF_MERGE|SHF_STRINGS,1
	0x4304981a		.L.str.73
.rodata.str1.1	0x43049883	0x4c	src\build\aware_client\sensor_mgr.o	#SHT_PROGBITS,SHF_ALLOC|SHF_MERGE|SHF_STRINGS,1
	0x43049883		.L.str.76
.rodata.str1.1	0x430498cf	0x4d	src\build\aware_client\sensor_mgr.o	#SHT_PROGBITS,SHF_ALLOC|SHF_MERGE|SHF_STRINGS,1
	0x430498cf		.L.str.79
.rodata.str1.1	0x4304991c	0x49	src\build\aware_client\sensor_mgr.o	#SHT_PROGBITS,SHF_ALLOC|SHF_MERGE|SHF_STRINGS,1
	0x4304991c		.L.str.82
.rodata.str1.1	0x43049965	0x44	src\build\aware_client\sensor_mgr.o	#SHT_PROGBITS,SHF_ALLOC|SHF_MERGE|SHF_STRINGS,1
	0x43049965		.L.str.84
.rodata.str1.1	0x430499a9	0x47	src\build\aware_client\sensor_mgr.o	#SHT_PROGBITS,SHF_ALLOC|SHF_MERGE|SHF_STRINGS,1
	0x430499a9		.L.str.87
.rodata.str1.1	0x430499f0	0x47	src\build\aware_client\sensor_mgr.o	#SHT_PROGBITS,SHF_ALLOC|SHF_MERGE|SHF_STRINGS,1
	0x430499f0		.L.str.90
.rodata.str1.1	0x43049a37	0x4a	src\build\aware_client\sensor_mgr.o	#SHT_PROGBITS,SHF_ALLOC|SHF_MERGE|SHF_STRINGS,1
	0x43049a37		.L.str.93
.rodata.str1.1	0x43049a81	0x4a	src\build\aware_client\sensor_mgr.o	#SHT_PROGBITS,SHF_ALLOC|SHF_MERGE|SHF_STRINGS,1
	0x43049a81		.L.str.96
.rodata.str1.1	0x43049acb	0x49	src\build\aware_client\sensor_mgr.o	#SHT_PROGBITS,SHF_ALLOC|SHF_MERGE|SHF_STRINGS,1
	0x43049acb		.L.str.99
.rodata.str1.1	0x43049b14	0x4a	src\build\aware_client\sensor_mgr.o	#SHT_PROGBITS,SHF_ALLOC|SHF_MERGE|SHF_STRINGS,1
	0x43049b14		.L.str.102
.rodata.str1.1	0x43049b5e	0x3b	src\build\aware_client\sensor_mgr.o	#SHT_PROGBITS,SHF_ALLOC|SHF_MERGE|SHF_STRINGS,1
	0x43049b5e		.L.str.105
.rodata.str1.1	0x43049b99	0x49	src\build\aware_client\sensor_mgr.o	#SHT_PROGBITS,SHF_ALLOC|SHF_MERGE|SHF_STRINGS,1
	0x43049b99		.L.str.108
.rodata.str1.1	0x43049be2	0x44	src\build\aware_client\sensor_mgr.o	#SHT_PROGBITS,SHF_ALLOC|SHF_MERGE|SHF_STRINGS,1
	0x43049be2		.L.str.110
.rodata.str1.1	0x43049c26	0x47	src\build\aware_client\sensor_mgr.o	#SHT_PROGBITS,SHF_ALLOC|SHF_MERGE|SHF_STRINGS,1
	0x43049c26		.L.str.113
.rodata.str1.1	0x43049c6d	0x47	src\build\aware_client\sensor_mgr.o	#SHT_PROGBITS,SHF_ALLOC|SHF_MERGE|SHF_STRINGS,1
	0x43049c6d		.L.str.116
.rodata.str1.1	0x43049cb4	0x4a	src\build\aware_client\sensor_mgr.o	#SHT_PROGBITS,SHF_ALLOC|SHF_MERGE|SHF_STRINGS,1
	0x43049cb4		.L.str.119
.rodata.str1.1	0x43049cfe	0x4a	src\build\aware_client\sensor_mgr.o	#SHT_PROGBITS,SHF_ALLOC|SHF_MERGE|SHF_STRINGS,1
	0x43049cfe		.L.str.122
.rodata.str1.1	0x43049d48	0x49	src\build\aware_client\sensor_mgr.o	#SHT_PROGBITS,SHF_ALLOC|SHF_MERGE|SHF_STRINGS,1
	0x43049d48		.L.str.125
.rodata.str1.1	0x43049d91	0x4a	src\build\aware_client\sensor_mgr.o	#SHT_PROGBITS,SHF_ALLOC|SHF_MERGE|SHF_STRINGS,1
	0x43049d91		.L.str.128
.rodata.str1.1	0x43049ddb	0x3b	src\build\aware_client\sensor_mgr.o	#SHT_PROGBITS,SHF_ALLOC|SHF_MERGE|SHF_STRINGS,1
	0x43049ddb		.L.str.131
.rodata.str1.1	0x43049e16	0x51	src\build\aware_client\sensor_mgr.o	#SHT_PROGBITS,SHF_ALLOC|SHF_MERGE|SHF_STRINGS,1
	0x43049e16		.L.str.134
.rodata.str1.1	0x43049e67	0x4e	src\build\aware_client\sensor_mgr.o	#SHT_PROGBITS,SHF_ALLOC|SHF_MERGE|SHF_STRINGS,1
	0x43049e67		.L.str.136
.rodata.str1.1	0x43049eb5	0x4f	src\build\aware_client\sensor_mgr.o	#SHT_PROGBITS,SHF_ALLOC|SHF_MERGE|SHF_STRINGS,1
	0x43049eb5		.L.str.139
.rodata.str1.1	0x43049f04	0x3b	src\build\aware_client\sensor_mgr.o	#SHT_PROGBITS,SHF_ALLOC|SHF_MERGE|SHF_STRINGS,1
	0x43049f04		.L.str.144
.rodata.str1.1	0x43049f3f	0x41	src\build\aware_client\sensor_mgr.o	#SHT_PROGBITS,SHF_ALLOC|SHF_MERGE|SHF_STRINGS,1
	0x43049f3f		.L.str.147
.rodata.str1.1	0x43049f80	0x4b	src\build\aware_client\sensor_mgr.o	#SHT_PROGBITS,SHF_ALLOC|SHF_MERGE|SHF_STRINGS,1
	0x43049f80		.L.str.149
.rodata.str1.1	0x43049fcb	0x4a	src\build\aware_client\sensor_mgr.o	#SHT_PROGBITS,SHF_ALLOC|SHF_MERGE|SHF_STRINGS,1
	0x43049fcb		.L.str.152
.rodata.str1.1	0x4304a015	0x29	src\build\aware_client\sensor_mgr.o	#SHT_PROGBITS,SHF_ALLOC|SHF_MERGE|SHF_STRINGS,1
	0x4304a015		.L.str.155
.rodata.str1.1	0x4304a03e	0x38	src\build\aware_client\sensor_mgr.o	#SHT_PROGBITS,SHF_ALLOC|SHF_MERGE|SHF_STRINGS,1
	0x4304a03e		.L.str.157
.rodata.str1.1	0x4304a076	0x3b	src\build\aware_client\sensor_mgr.o	#SHT_PROGBITS,SHF_ALLOC|SHF_MERGE|SHF_STRINGS,1
	0x4304a076		.L.str.160
.rodata.str1.1	0x4304a0b1	0x4f	src\build\aware_client\sensor_mgr.o	#SHT_PROGBITS,SHF_ALLOC|SHF_MERGE|SHF_STRINGS,1
	0x4304a0b1		.L.str.163
.rodata.str1.1	0x4304a100	0x57	src\build\aware_client\sensor_mgr.o	#SHT_PROGBITS,SHF_ALLOC|SHF_MERGE|SHF_STRINGS,1
	0x4304a100		.L.str.165
.rodata.str1.1	0x4304a157	0x54	src\build\aware_client\sensor_mgr.o	#SHT_PROGBITS,SHF_ALLOC|SHF_MERGE|SHF_STRINGS,1
	0x4304a157		.L.str.168
.rodata.str1.1	0x4304a1ab	0x48	src\build\aware_client\sensor_mgr.o	#SHT_PROGBITS,SHF_ALLOC|SHF_MERGE|SHF_STRINGS,1
	0x4304a1ab		.L.str.171
.rodata.str1.1	0x4304a1f3	0x53	src\build\aware_client\sensor_mgr.o	#SHT_PROGBITS,SHF_ALLOC|SHF_MERGE|SHF_STRINGS,1
	0x4304a1f3		.L.str.174
.rodata.str1.1	0x4304a246	0x55	src\build\aware_client\sensor_mgr.o	#SHT_PROGBITS,SHF_ALLOC|SHF_MERGE|SHF_STRINGS,1
	0x4304a246		.L.str.177
.rodata.str1.1	0x4304a29b	0x49	src\build\aware_client\sensor_mgr.o	#SHT_PROGBITS,SHF_ALLOC|SHF_MERGE|SHF_STRINGS,1
	0x4304a29b		.L.str.180
.rodata.str1.1	0x4304a2e4	0x4c	src\build\aware_client\sensor_mgr.o	#SHT_PROGBITS,SHF_ALLOC|SHF_MERGE|SHF_STRINGS,1
	0x4304a2e4		.L.str.183
.rodata.str1.1	0x4304a330	0x57	src\build\aware_client\sensor_mgr.o	#SHT_PROGBITS,SHF_ALLOC|SHF_MERGE|SHF_STRINGS,1
	0x4304a330		.L.str.186
.rodata.str1.1	0x4304a387	0x6a	src\build\aware_client\sensor_mgr.o	#SHT_PROGBITS,SHF_ALLOC|SHF_MERGE|SHF_STRINGS,1
	0x4304a387		.L.str.189
.rodata.str1.1	0x4304a3f1	0x54	src\build\aware_client\sensor_mgr.o	#SHT_PROGBITS,SHF_ALLOC|SHF_MERGE|SHF_STRINGS,1
	0x4304a3f1		.L.str.194
.rodata.str1.1	0x4304a445	0x54	src\build\aware_client\sensor_mgr.o	#SHT_PROGBITS,SHF_ALLOC|SHF_MERGE|SHF_STRINGS,1
	0x4304a445		.L.str.197
.rodata.str1.1	0x4304a499	0x56	src\build\aware_client\sensor_mgr.o	#SHT_PROGBITS,SHF_ALLOC|SHF_MERGE|SHF_STRINGS,1
	0x4304a499		.L.str.200
.rodata.str1.1	0x4304a4ef	0x51	src\build\aware_client\sensor_mgr.o	#SHT_PROGBITS,SHF_ALLOC|SHF_MERGE|SHF_STRINGS,1
	0x4304a4ef		.L.str.207
.rodata.str1.1	0x4304a540	0x4d	src\build\aware_client\sensor_mgr.o	#SHT_PROGBITS,SHF_ALLOC|SHF_MERGE|SHF_STRINGS,1
	0x4304a540		.L.str.210
.rodata.str1.1	0x4304a58d	0x4a	src\build\aware_client\sensor_mgr.o	#SHT_PROGBITS,SHF_ALLOC|SHF_MERGE|SHF_STRINGS,1
	0x4304a58d		.L.str.213
.rodata.str1.1	0x4304a5d7	0x4c	src\build\aware_client\sensor_mgr.o	#SHT_PROGBITS,SHF_ALLOC|SHF_MERGE|SHF_STRINGS,1
	0x4304a5d7		.L.str.216
.rodata.str1.1	0x4304a623	0x70	src\build\aware_client\sensor_mgr.o	#SHT_PROGBITS,SHF_ALLOC|SHF_MERGE|SHF_STRINGS,1
	0x4304a623		.L.str.219
.rodata.str1.1	0x4304a693	0x50	src\build\aware_client\sensor_mgr.o	#SHT_PROGBITS,SHF_ALLOC|SHF_MERGE|SHF_STRINGS,1
	0x4304a693		.L.str.228
.rodata.str1.1	0x4304a6e3	0x4e	src\build\aware_client\sensor_mgr.o	#SHT_PROGBITS,SHF_ALLOC|SHF_MERGE|SHF_STRINGS,1
	0x4304a6e3		.L.str.231
.rodata.str1.1	0x4304a731	0x36	src\build\aware_client\sensor_mgr.o	#SHT_PROGBITS,SHF_ALLOC|SHF_MERGE|SHF_STRINGS,1
	0x4304a731		.L.str.234
.rodata.str1.1	0x4304a767	0x34	src\build\aware_client\sensor_mgr.o	#SHT_PROGBITS,SHF_ALLOC|SHF_MERGE|SHF_STRINGS,1
	0x4304a767		.L.str.237
.rodata.str1.1	0x4304a79b	0x2e	src\build\aware_client\sensor_mgr.o	#SHT_PROGBITS,SHF_ALLOC|SHF_MERGE|SHF_STRINGS,1
	0x4304a79b		.L.str.240
.rodata.str1.1	0x4304a7c9	0x35	src\build\aware_client\sensor_mgr.o	#SHT_PROGBITS,SHF_ALLOC|SHF_MERGE|SHF_STRINGS,1
	0x4304a7c9		.L.str.243
.rodata.str1.1	0x4304a7fe	0x52	src\build\aware_client\sensor_mgr.o	#SHT_PROGBITS,SHF_ALLOC|SHF_MERGE|SHF_STRINGS,1
	0x4304a7fe		.L.str.246
.rodata.str1.1	0x4304a850	0x3f	src\build\aware_client\sensor_mgr.o	#SHT_PROGBITS,SHF_ALLOC|SHF_MERGE|SHF_STRINGS,1
	0x4304a850		.L.str.249
.rodata.str1.1	0x4304a88f	0x3f	src\build\aware_client\sensor_mgr.o	#SHT_PROGBITS,SHF_ALLOC|SHF_MERGE|SHF_STRINGS,1
	0x4304a88f		.L.str.252
.rodata.str1.1	0x4304a8ce	0x34	src\build\aware_client\sensor_mgr.o	#SHT_PROGBITS,SHF_ALLOC|SHF_MERGE|SHF_STRINGS,1
	0x4304a8ce		.L.str.255
.rodata.str1.1	0x4304a902	0x32	src\build\aware_client\sensor_mgr.o	#SHT_PROGBITS,SHF_ALLOC|SHF_MERGE|SHF_STRINGS,1
	0x4304a902		.L.str.258
.rodata.str1.1	0x4304a934	0x3b	src\build\aware_client\sensor_mgr.o	#SHT_PROGBITS,SHF_ALLOC|SHF_MERGE|SHF_STRINGS,1
	0x4304a934		.L.str.261
.rodata.str1.1	0x4304a96f	0x3c	src\build\aware_client\sensor_mgr.o	#SHT_PROGBITS,SHF_ALLOC|SHF_MERGE|SHF_STRINGS,1
	0x4304a96f		.L.str.264
.rodata.str1.1	0x4304a9ab	0x3e	src\build\aware_client\sensor_mgr.o	#SHT_PROGBITS,SHF_ALLOC|SHF_MERGE|SHF_STRINGS,1
	0x4304a9ab		.L.str.267
.rodata.str1.1	0x4304a9e9	0x35	src\build\aware_client\sensor_mgr.o	#SHT_PROGBITS,SHF_ALLOC|SHF_MERGE|SHF_STRINGS,1
	0x4304a9e9		.L.str.270
.rodata.str1.1	0x4304aa1e	0x37	src\build\aware_client\sensor_mgr.o	#SHT_PROGBITS,SHF_ALLOC|SHF_MERGE|SHF_STRINGS,1
	0x4304aa1e		.L.str.273
.rodata.str1.1	0x4304aa55	0x4e	src\build\aware_client\sensor_mgr.o	#SHT_PROGBITS,SHF_ALLOC|SHF_MERGE|SHF_STRINGS,1
	0x4304aa55		.L.str.276
.rodata.str1.1	0x4304aaa3	0x53	src\build\aware_client\sensor_mgr.o	#SHT_PROGBITS,SHF_ALLOC|SHF_MERGE|SHF_STRINGS,1
	0x4304aaa3		.L.str.287
.rodata.str1.1	0x4304aaf6	0x5c	src\build\aware_client\sensor_mgr.o	#SHT_PROGBITS,SHF_ALLOC|SHF_MERGE|SHF_STRINGS,1
	0x4304aaf6		.L.str.289
.rodata.str1.1	0x4304ab52	0x5f	src\build\aware_client\sensor_mgr.o	#SHT_PROGBITS,SHF_ALLOC|SHF_MERGE|SHF_STRINGS,1
	0x4304ab52		.L.str.292
.rodata.str1.1	0x4304abb1	0x5c	src\build\aware_client\sensor_mgr.o	#SHT_PROGBITS,SHF_ALLOC|SHF_MERGE|SHF_STRINGS,1
	0x4304abb1		.L.str.295
.rodata.str1.1	0x4304ac0d	0x59	src\build\aware_client\sensor_mgr.o	#SHT_PROGBITS,SHF_ALLOC|SHF_MERGE|SHF_STRINGS,1
	0x4304ac0d		.L.str.298
.rodata.str1.1	0x4304ac66	0x48	src\build\aware_client\sensor_mgr.o	#SHT_PROGBITS,SHF_ALLOC|SHF_MERGE|SHF_STRINGS,1
	0x4304ac66		.L.str.301
.rodata.str1.1	0x4304acae	0x45	src\build\aware_client\sensor_mgr.o	#SHT_PROGBITS,SHF_ALLOC|SHF_MERGE|SHF_STRINGS,1
	0x4304acae		.L.str.304
.rodata.str1.1	0x4304acf3	0x56	src\build\aware_client\sensor_mgr.o	#SHT_PROGBITS,SHF_ALLOC|SHF_MERGE|SHF_STRINGS,1
	0x4304acf3		.L.str.307
.rodata.str1.1	0x4304ad49	0x2f	src\build\aware_client\sensor_mgr.o	#SHT_PROGBITS,SHF_ALLOC|SHF_MERGE|SHF_STRINGS,1
	0x4304ad49		.L.str.310
.rodata.str1.1	0x4304ad78	0x39	src\build\aware_client\sensor_mgr.o	#SHT_PROGBITS,SHF_ALLOC|SHF_MERGE|SHF_STRINGS,1
	0x4304ad78		.L.str.313
.rodata.str1.1	0x4304adb1	0x3b	src\build\aware_client\sensor_mgr.o	#SHT_PROGBITS,SHF_ALLOC|SHF_MERGE|SHF_STRINGS,1
	0x4304adb1		.L.str.316
.rodata.str1.1	0x4304adec	0x3a	src\build\aware_client\sensor_mgr.o	#SHT_PROGBITS,SHF_ALLOC|SHF_MERGE|SHF_STRINGS,1
	0x4304adec		.L.str.319
.rodata.str1.1	0x4304ae26	0x3f	src\build\aware_client\sensor_mgr.o	#SHT_PROGBITS,SHF_ALLOC|SHF_MERGE|SHF_STRINGS,1
	0x4304ae26		.L.str.322
.rodata.str1.1	0x4304ae65	0x3e	src\build\aware_client\sensor_mgr.o	#SHT_PROGBITS,SHF_ALLOC|SHF_MERGE|SHF_STRINGS,1
	0x4304ae65		.L.str.325
.rodata.str1.1	0x4304aea3	0x3b	src\build\aware_client\sensor_mgr.o	#SHT_PROGBITS,SHF_ALLOC|SHF_MERGE|SHF_STRINGS,1
	0x4304aea3		.L.str.328
.rodata.str1.1	0x4304aede	0x35	src\build\aware_client\sensor_mgr.o	#SHT_PROGBITS,SHF_ALLOC|SHF_MERGE|SHF_STRINGS,1
	0x4304aede		.L.str.331
.rodata.str1.1	0x4304af13	0x36	src\build\aware_client\sensor_mgr.o	#SHT_PROGBITS,SHF_ALLOC|SHF_MERGE|SHF_STRINGS,1
	0x4304af13		.L.str.334
.rodata.str1.1	0x4304af49	0x30	src\build\aware_client\sensor_mgr.o	#SHT_PROGBITS,SHF_ALLOC|SHF_MERGE|SHF_STRINGS,1
	0x4304af49		.L.str.337
.rodata.str1.1	0x4304af79	0x40	src\build\aware_client\sensor_mgr.o	#SHT_PROGBITS,SHF_ALLOC|SHF_MERGE|SHF_STRINGS,1
	0x4304af79		.L.str.340
.rodata.str1.1	0x4304afb9	0x3a	src\build\aware_client\sensor_mgr.o	#SHT_PROGBITS,SHF_ALLOC|SHF_MERGE|SHF_STRINGS,1
	0x4304afb9		.L.str.343
.rodata.str1.1	0x4304aff3	0x49	src\build\aware_client\sensor_mgr.o	#SHT_PROGBITS,SHF_ALLOC|SHF_MERGE|SHF_STRINGS,1
	0x4304aff3		.L.str.346
.rodata.str1.1	0x4304b03c	0x43	src\build\aware_client\sensor_mgr.o	#SHT_PROGBITS,SHF_ALLOC|SHF_MERGE|SHF_STRINGS,1
	0x4304b03c		.L.str.349
.rodata.str1.1	0x4304b07f	0x3f	src\build\aware_client\sensor_mgr.o	#SHT_PROGBITS,SHF_ALLOC|SHF_MERGE|SHF_STRINGS,1
	0x4304b07f		.L.str.352
.rodata.str1.1	0x4304b0be	0x39	src\build\aware_client\sensor_mgr.o	#SHT_PROGBITS,SHF_ALLOC|SHF_MERGE|SHF_STRINGS,1
	0x4304b0be		.L.str.355
.rodata.str1.1	0x4304b0f7	0x5f	src\build\aware_client\sensor_mgr.o	#SHT_PROGBITS,SHF_ALLOC|SHF_MERGE|SHF_STRINGS,1
	0x4304b0f7		.L.str.358
.rodata.str1.1	0x4304b156	0x5c	src\build\aware_client\sensor_mgr.o	#SHT_PROGBITS,SHF_ALLOC|SHF_MERGE|SHF_STRINGS,1
	0x4304b156		.L.str.361
.rodata.str1.1	0x4304b1b2	0x58	src\build\aware_client\sensor_mgr.o	#SHT_PROGBITS,SHF_ALLOC|SHF_MERGE|SHF_STRINGS,1
	0x4304b1b2		.L.str.364
.rodata.str1.1	0x4304b20a	0x5b	src\build\aware_client\sensor_mgr.o	#SHT_PROGBITS,SHF_ALLOC|SHF_MERGE|SHF_STRINGS,1
	0x4304b20a		.L.str.367
.rodata.str1.1	0x4304b265	0x58	src\build\aware_client\sensor_mgr.o	#SHT_PROGBITS,SHF_ALLOC|SHF_MERGE|SHF_STRINGS,1
	0x4304b265		.L.str.370
.rodata.str1.1	0x4304b2bd	0x54	src\build\aware_client\sensor_mgr.o	#SHT_PROGBITS,SHF_ALLOC|SHF_MERGE|SHF_STRINGS,1
	0x4304b2bd		.L.str.373
.rodata.str1.1	0x4304b311	0x4a	src\build\aware_client\sensor_mgr.o	#SHT_PROGBITS,SHF_ALLOC|SHF_MERGE|SHF_STRINGS,1
	0x4304b311		.L.str.376
.rodata.str1.1	0x4304b35b	0x41	src\build\aware_client\sensor_mgr.o	#SHT_PROGBITS,SHF_ALLOC|SHF_MERGE|SHF_STRINGS,1
	0x4304b35b		.L.str.379
.rodata.str1.1	0x4304b39c	0x58	src\build\aware_client\sensor_mgr.o	#SHT_PROGBITS,SHF_ALLOC|SHF_MERGE|SHF_STRINGS,1
	0x4304b39c		.L.str.382
.rodata.str1.1	0x4304b3f4	0x36	src\build\aware_client\sensor_mgr.o	#SHT_PROGBITS,SHF_ALLOC|SHF_MERGE|SHF_STRINGS,1
	0x4304b3f4		.L.str.385
.rodata.str1.1	0x4304b42a	0x30	src\build\aware_client\sensor_mgr.o	#SHT_PROGBITS,SHF_ALLOC|SHF_MERGE|SHF_STRINGS,1
	0x4304b42a		.L.str.388
.rodata.str1.1	0x4304b45a	0x2d	src\build\aware_client\sensor_mgr.o	#SHT_PROGBITS,SHF_ALLOC|SHF_MERGE|SHF_STRINGS,1
	0x4304b45a		.L.str.391
.rodata.str1.1	0x4304b487	0x30	src\build\aware_client\sensor_mgr.o	#SHT_PROGBITS,SHF_ALLOC|SHF_MERGE|SHF_STRINGS,1
	0x4304b487		.L.str.394
.rodata.str1.1	0x4304b4b7	0x31	src\build\aware_client\sensor_mgr.o	#SHT_PROGBITS,SHF_ALLOC|SHF_MERGE|SHF_STRINGS,1
	0x4304b4b7		.L.str.397
.rodata.str1.1	0x4304b4e8	0x67	src\build\aware_client\sensor_mgr.o	#SHT_PROGBITS,SHF_ALLOC|SHF_MERGE|SHF_STRINGS,1
	0x4304b4e8		.L.str.400
.rodata.str1.1	0x4304b54f	0x46	src\build\aware_client\sensor_mgr.o	#SHT_PROGBITS,SHF_ALLOC|SHF_MERGE|SHF_STRINGS,1
	0x4304b54f		.L.str.403
.rodata.str1.1	0x4304b595	0x1e	src\build\aware_client\sensor_mgr.o	#SHT_PROGBITS,SHF_ALLOC|SHF_MERGE|SHF_STRINGS,1
	0x4304b595		.L.str.406
.rodata.str1.1	0x4304b5b3	0x28	src\build\aware_client\sensor_mgr.o	#SHT_PROGBITS,SHF_ALLOC|SHF_MERGE|SHF_STRINGS,1
	0x4304b5b3		.L.str.409
.rodata.str1.1	0x4304b5db	0x5f	src\build\aware_client\sensor_mgr.o	#SHT_PROGBITS,SHF_ALLOC|SHF_MERGE|SHF_STRINGS,1
	0x4304b5db		.L.str.411
.rodata.str1.1	0x4304b63a	0x5c	src\build\aware_client\sensor_mgr.o	#SHT_PROGBITS,SHF_ALLOC|SHF_MERGE|SHF_STRINGS,1
	0x4304b63a		.L.str.414
.rodata.str1.1	0x4304b696	0x58	src\build\aware_client\sensor_mgr.o	#SHT_PROGBITS,SHF_ALLOC|SHF_MERGE|SHF_STRINGS,1
	0x4304b696		.L.str.417
.rodata.str1.1	0x4304b6ee	0x5b	src\build\aware_client\sensor_mgr.o	#SHT_PROGBITS,SHF_ALLOC|SHF_MERGE|SHF_STRINGS,1
	0x4304b6ee		.L.str.420
.rodata.str1.1	0x4304b749	0x5e	src\build\aware_client\sensor_mgr.o	#SHT_PROGBITS,SHF_ALLOC|SHF_MERGE|SHF_STRINGS,1
	0x4304b749		.L.str.423
.rodata.str1.1	0x4304b7a7	0x54	src\build\aware_client\sensor_mgr.o	#SHT_PROGBITS,SHF_ALLOC|SHF_MERGE|SHF_STRINGS,1
	0x4304b7a7		.L.str.426
.rodata.str1.1	0x4304b7fb	0x5f	src\build\aware_client\sensor_mgr.o	#SHT_PROGBITS,SHF_ALLOC|SHF_MERGE|SHF_STRINGS,1
	0x4304b7fb		.L.str.429
.rodata.str1.1	0x4304b85a	0x5c	src\build\aware_client\sensor_mgr.o	#SHT_PROGBITS,SHF_ALLOC|SHF_MERGE|SHF_STRINGS,1
	0x4304b85a		.L.str.432
.rodata.str1.1	0x4304b8b6	0x59	src\build\aware_client\sensor_mgr.o	#SHT_PROGBITS,SHF_ALLOC|SHF_MERGE|SHF_STRINGS,1
	0x4304b8b6		.L.str.435
.rodata.str1.1	0x4304b90f	0x5b	src\build\aware_client\sensor_mgr.o	#SHT_PROGBITS,SHF_ALLOC|SHF_MERGE|SHF_STRINGS,1
	0x4304b90f		.L.str.438
.rodata.str1.1	0x4304b96a	0x58	src\build\aware_client\sensor_mgr.o	#SHT_PROGBITS,SHF_ALLOC|SHF_MERGE|SHF_STRINGS,1
	0x4304b96a		.L.str.441
.rodata.str1.1	0x4304b9c2	0x54	src\build\aware_client\sensor_mgr.o	#SHT_PROGBITS,SHF_ALLOC|SHF_MERGE|SHF_STRINGS,1
	0x4304b9c2		.L.str.444
.rodata.str1.1	0x4304ba16	0x50	src\build\aware_client\sensor_mgr.o	#SHT_PROGBITS,SHF_ALLOC|SHF_MERGE|SHF_STRINGS,1
	0x4304ba16		.L.str.447
.rodata.str1.1	0x4304ba66	0x54	src\build\aware_client\sensor_mgr.o	#SHT_PROGBITS,SHF_ALLOC|SHF_MERGE|SHF_STRINGS,1
	0x4304ba66		.L.str.450
.rodata.str1.1	0x4304baba	0x34	src\build\aware_client\sensor_mgr.o	#SHT_PROGBITS,SHF_ALLOC|SHF_MERGE|SHF_STRINGS,1
	0x4304baba		.L.str.453
.rodata.str1.1	0x4304baee	0x31	src\build\aware_client\sensor_mgr.o	#SHT_PROGBITS,SHF_ALLOC|SHF_MERGE|SHF_STRINGS,1
	0x4304baee		.L.str.456
.rodata.str1.1	0x4304bb1f	0x42	src\build\aware_client\sensor_mgr.o	#SHT_PROGBITS,SHF_ALLOC|SHF_MERGE|SHF_STRINGS,1
	0x4304bb1f		.L.str.459
.rodata.str1.1	0x4304bb61	0x36	src\build\aware_client\sensor_mgr.o	#SHT_PROGBITS,SHF_ALLOC|SHF_MERGE|SHF_STRINGS,1
	0x4304bb61		.L.str.462
.rodata.str1.1	0x4304bb97	0x35	src\build\aware_client\sensor_mgr.o	#SHT_PROGBITS,SHF_ALLOC|SHF_MERGE|SHF_STRINGS,1
	0x4304bb97		.L.str.465
.rodata.str1.1	0x4304bbcc	0x3a	src\build\aware_client\sensor_mgr.o	#SHT_PROGBITS,SHF_ALLOC|SHF_MERGE|SHF_STRINGS,1
	0x4304bbcc		.L.str.468
.rodata.str1.1	0x4304bc06	0x39	src\build\aware_client\sensor_mgr.o	#SHT_PROGBITS,SHF_ALLOC|SHF_MERGE|SHF_STRINGS,1
	0x4304bc06		.L.str.471
.rodata.str1.1	0x4304bc3f	0x38	src\build\aware_client\sensor_mgr.o	#SHT_PROGBITS,SHF_ALLOC|SHF_MERGE|SHF_STRINGS,1
	0x4304bc3f		.L.str.474
.rodata.str1.1	0x4304bc77	0x3a	src\build\aware_client\sensor_mgr.o	#SHT_PROGBITS,SHF_ALLOC|SHF_MERGE|SHF_STRINGS,1
	0x4304bc77		.L.str.477
.rodata.str1.1	0x4304bcb1	0x3d	src\build\aware_client\sensor_mgr.o	#SHT_PROGBITS,SHF_ALLOC|SHF_MERGE|SHF_STRINGS,1
	0x4304bcb1		.L.str.480
.rodata.str1.1	0x4304bcee	0x4e	src\build\aware_client\sensor_mgr.o	#SHT_PROGBITS,SHF_ALLOC|SHF_MERGE|SHF_STRINGS,1
	0x4304bcee		.L.str.483
.rodata.str1.1	0x4304bd3c	0x3d	src\build\aware_client\sensor_mgr.o	#SHT_PROGBITS,SHF_ALLOC|SHF_MERGE|SHF_STRINGS,1
	0x4304bd3c		.L.str.486
.rodata.str1.1	0x4304bd79	0x5c	src\build\aware_client\sensor_mgr.o	#SHT_PROGBITS,SHF_ALLOC|SHF_MERGE|SHF_STRINGS,1
	0x4304bd79		.L.str.489
.rodata.str1.1	0x4304bdd5	0x53	src\build\aware_client\sensor_mgr.o	#SHT_PROGBITS,SHF_ALLOC|SHF_MERGE|SHF_STRINGS,1
	0x4304bdd5		.L.str.492
.rodata.str1.1	0x4304be28	0x29	src\build\aware_client\sensor_mgr.o	#SHT_PROGBITS,SHF_ALLOC|SHF_MERGE|SHF_STRINGS,1
	0x4304be28		.L.str.495
.rodata.str1.1	0x4304be51	0x65	src\build\aware_client\sensor_mgr.o	#SHT_PROGBITS,SHF_ALLOC|SHF_MERGE|SHF_STRINGS,1
	0x4304be51		.L.str.498
PADDING_ALIGNMENT	0x4304beb6	0x2	0x0
.rodata	0x4304beb8	0x15a0	src\build\aware_client\sensor_mgr.o	#SHT_PROGBITS,SHF_ALLOC,4
	0x4304beb8		sensor_ind_callback.xx_msg_const
	0x4304bec8		sensor_ind_callback.xx_msg_const.3
	0x4304bed8		sensor_ind_callback.xx_msg_const.5
	0x4304bee8		sensor_ind_callback.xx_msg_const.6
	0x4304bef8		sensor_ind_callback.xx_msg_const.8
	0x4304bf08		sensor_ind_callback.xx_msg_const.9
	0x4304bf18		sensor_ind_callback.xx_msg_const.11
	0x4304bf28		sensor_ind_callback.xx_msg_const.12
	0x4304bf38		sensor_ind_callback.xx_msg_const.14
	0x4304bf48		sensor_ind_callback.xx_msg_const.15
	0x4304bf58		sensor_ind_callback.xx_msg_const.17
	0x4304bf68		sensor_ind_callback.xx_msg_const.18
	0x4304bf78		sensor_ind_callback.xx_msg_const.20
	0x4304bf88		sensor_ind_callback.xx_msg_const.21
	0x4304bf98		sensor_ind_callback.xx_msg_const.23
	0x4304bfa8		sensor_ind_callback.xx_msg_const.24
	0x4304bfb8		sensor_ind_callback.xx_msg_const.26
	0x4304bfc8		sensor_ind_callback.xx_msg_const.27
	0x4304bfd8		sensor_ind_callback.xx_msg_const.29
	0x4304bfe8		sensor_ind_callback.xx_msg_const.30
	0x4304bff8		sensor_ind_callback.xx_msg_const.32
	0x4304c008		sensor_ind_callback.xx_msg_const.33
	0x4304c018		sensor_ind_callback.xx_msg_const.35
	0x4304c028		sensor_ind_callback.xx_msg_const.36
	0x4304c038		sensor_ind_callback.xx_msg_const.38
	0x4304c048		sensor_ind_callback.xx_msg_const.39
	0x4304c058		sensor_ind_callback.xx_msg_const.41
	0x4304c068		sensor_ind_callback.xx_msg_const.42
	0x4304c078		sensor_ind_callback.xx_msg_const.44
	0x4304c088		sensor_ind_callback.xx_msg_const.45
	0x4304c098		sensor_ind_callback.xx_msg_const.47
	0x4304c0a8		sensor_ind_callback.xx_msg_const.48
	0x4304c0b8		sensor_ind_callback.xx_msg_const.50
	0x4304c0c8		sensor_ind_callback.xx_msg_const.51
	0x4304c0d8		sensor_ind_callback.xx_msg_const.53
	0x4304c0e8		sensor_ind_callback.xx_msg_const.54
	0x4304c0f8		sensor_ind_callback.xx_msg_const.56
	0x4304c108		sensor_ind_callback.xx_msg_const.57
	0x4304c118		sensor_ind_callback.xx_msg_const.59
	0x4304c128		sensor_ind_callback.xx_msg_const.60
	0x4304c138		sensor_ind_callback.xx_msg_const.62
	0x4304c148		sensor_ind_callback.xx_msg_const.63
	0x4304c158		sensor_ind_callback.xx_msg_const.65
	0x4304c168		sensor_ind_callback.xx_msg_const.66
	0x4304c178		sensor_ind_callback.xx_msg_const.68
	0x4304c188		sensor_ind_callback.xx_msg_const.69
	0x4304c198		sensor_ind_callback.xx_msg_const.71
	0x4304c1a8		sensor_ind_callback.xx_msg_const.72
	0x4304c1b8		sensor_ind_callback.xx_msg_const.74
	0x4304c1c8		sensor_ind_callback.xx_msg_const.75
	0x4304c1d8		sensor_ind_callback.xx_msg_const.77
	0x4304c1e8		sensor_ind_callback.xx_msg_const.78
	0x4304c1f8		sensor_ind_callback.xx_msg_const.80
	0x4304c208		sensor_ind_callback.xx_msg_const.81
	0x4304c218		sensor_state_id.xx_msg_const
	0x4304c228		sensor_state_id.xx_msg_const.83
	0x4304c238		sensor_state_id.xx_msg_const.85
	0x4304c248		sensor_state_id.xx_msg_const.86
	0x4304c258		sensor_state_id.xx_msg_const.88
	0x4304c268		sensor_state_id.xx_msg_const.89
	0x4304c278		sensor_state_id.xx_msg_const.91
	0x4304c288		sensor_state_id.xx_msg_const.92
	0x4304c298		sensor_state_id.xx_msg_const.94
	0x4304c2a8		sensor_state_id.xx_msg_const.95
	0x4304c2b8		sensor_state_id.xx_msg_const.97
	0x4304c2c8		sensor_state_id.xx_msg_const.98
	0x4304c2d8		sensor_state_id.xx_msg_const.100
	0x4304c2e8		sensor_state_id.xx_msg_const.101
	0x4304c2f8		sensor_state_id.xx_msg_const.103
	0x4304c308		sensor_state_id.xx_msg_const.104
	0x4304c318		sensor_state_id.xx_msg_const.106
	0x4304c328		sensor_state_id.xx_msg_const.107
	0x4304c338		sensor_event_id.xx_msg_const
	0x4304c348		sensor_event_id.xx_msg_const.109
	0x4304c358		sensor_event_id.xx_msg_const.111
	0x4304c368		sensor_event_id.xx_msg_const.112
	0x4304c378		sensor_event_id.xx_msg_const.114
	0x4304c388		sensor_event_id.xx_msg_const.115
	0x4304c398		sensor_event_id.xx_msg_const.117
	0x4304c3a8		sensor_event_id.xx_msg_const.118
	0x4304c3b8		sensor_event_id.xx_msg_const.120
	0x4304c3c8		sensor_event_id.xx_msg_const.121
	0x4304c3d8		sensor_event_id.xx_msg_const.123
	0x4304c3e8		sensor_event_id.xx_msg_const.124
	0x4304c3f8		sensor_event_id.xx_msg_const.126
	0x4304c408		sensor_event_id.xx_msg_const.127
	0x4304c418		sensor_event_id.xx_msg_const.129
	0x4304c428		sensor_event_id.xx_msg_const.130
	0x4304c438		sensor_event_id.xx_msg_const.132
	0x4304c448		sensor_event_id.xx_msg_const.133
	0x4304c458		check_sensor_id.xx_msg_const
	0x4304c468		check_sensor_id.xx_msg_const.135
	0x4304c478		check_sensor_id.xx_msg_const.137
	0x4304c488		check_sensor_id.xx_msg_const.138
	0x4304c498		check_sensor_id.xx_msg_const.140
	0x4304c4a8		check_sensor_id.xx_msg_const.141
	0x4304c4b8		check_sensor_id.xx_msg_const.142
	0x4304c4c8		check_sensor_id.xx_msg_const.143
	0x4304c4d8		check_sensor_id.xx_msg_const.145
	0x4304c4e8		check_sensor_id.xx_msg_const.146
	0x4304c4f8		sensor_mgr_init.xx_msg_const
	0x4304c508		sensor_mgr_init.xx_msg_const.148
	0x4304c518		sensor_mgr_init.xx_msg_const.150
	0x4304c528		sensor_mgr_init.xx_msg_const.151
	0x4304c538		sensor_mgr_init.xx_msg_const.153
	0x4304c548		sensor_mgr_init.xx_msg_const.154
	0x4304c558		sensor_mgr_release.xx_msg_const
	0x4304c568		sensor_mgr_release.xx_msg_const.156
	0x4304c578		sensor_mgr_release.xx_msg_const.158
	0x4304c588		sensor_mgr_release.xx_msg_const.159
	0x4304c598		sensor_mgr_release.xx_msg_const.161
	0x4304c5a8		sensor_mgr_release.xx_msg_const.162
	0x4304c5b8		sensor_get_data.xx_msg_const
	0x4304c5c8		sensor_get_data.xx_msg_const.164
	0x4304c5d8		sensor_get_data.xx_msg_const.166
	0x4304c5e8		sensor_get_data.xx_msg_const.167
	0x4304c5f8		sensor_get_data.xx_msg_const.169
	0x4304c608		sensor_get_data.xx_msg_const.170
	0x4304c618		sensor_get_data.xx_msg_const.172
	0x4304c628		sensor_get_data.xx_msg_const.173
	0x4304c638		sensor_get_data.xx_msg_const.175
	0x4304c648		sensor_get_data.xx_msg_const.176
	0x4304c658		sensor_get_data.xx_msg_const.178
	0x4304c668		sensor_get_data.xx_msg_const.179
	0x4304c678		sensor_get_data.xx_msg_const.181
	0x4304c688		sensor_get_data.xx_msg_const.182
	0x4304c698		sensor_get_data.xx_msg_const.184
	0x4304c6a8		sensor_get_data.xx_msg_const.185
	0x4304c6b8		sensor_get_data.xx_msg_const.187
	0x4304c6c8		sensor_get_data.xx_msg_const.188
	0x4304c6d8		sensor_get_data.xx_msg_const.190
	0x4304c6e8		sensor_get_data.xx_msg_const.191
	0x4304c6f8		sensor_get_data.xx_msg_const.192
	0x4304c708		sensor_get_data.xx_msg_const.193
	0x4304c718		sensor_get_data.xx_msg_const.195
	0x4304c728		sensor_get_data.xx_msg_const.196
	0x4304c738		sensor_get_data.xx_msg_const.198
	0x4304c748		sensor_get_data.xx_msg_const.199
	0x4304c758		sensor_get_data.xx_msg_const.201
	0x4304c768		sensor_get_data.xx_msg_const.202
	0x4304c778		sensor_get_data.xx_msg_const.203
	0x4304c788		sensor_get_data.xx_msg_const.204
	0x4304c798		sensor_get_data.xx_msg_const.205
	0x4304c7a8		sensor_get_data.xx_msg_const.206
	0x4304c7b8		sensor_get_data.xx_msg_const.208
	0x4304c7c8		sensor_get_data.xx_msg_const.209
	0x4304c7d8		sensor_get_data.xx_msg_const.211
	0x4304c7e8		sensor_get_data.xx_msg_const.212
	0x4304c7f8		sensor_get_data.xx_msg_const.214
	0x4304c808		sensor_get_data.xx_msg_const.215
	0x4304c818		sensor_get_data.xx_msg_const.217
	0x4304c828		sensor_get_data.xx_msg_const.218
	0x4304c838		sensor_get_data.xx_msg_const.220
	0x4304c848		sensor_get_data.xx_msg_const.221
	0x4304c858		sensor_get_data.xx_msg_const.222
	0x4304c868		sensor_get_data.xx_msg_const.223
	0x4304c878		sensor_get_data.xx_msg_const.224
	0x4304c888		sensor_get_data.xx_msg_const.225
	0x4304c898		sensor_get_data.xx_msg_const.226
	0x4304c8a8		sensor_get_data.xx_msg_const.227
	0x4304c8b8		sensor_get_data.xx_msg_const.229
	0x4304c8c8		sensor_get_data.xx_msg_const.230
	0x4304c8d8		sensor_get_data.xx_msg_const.232
	0x4304c8e8		sensor_get_data.xx_msg_const.233
	0x4304c8f8		sensor_get_data.xx_msg_const.235
	0x4304c908		sensor_get_data.xx_msg_const.236
	0x4304c918		sensor_get_data.xx_msg_const.238
	0x4304c928		sensor_get_data.xx_msg_const.239
	0x4304c938		sensor_get_data.xx_msg_const.241
	0x4304c948		sensor_get_data.xx_msg_const.242
	0x4304c958		sensor_get_data.xx_msg_const.244
	0x4304c968		sensor_get_data.xx_msg_const.245
	0x4304c978		sensor_get_data.xx_msg_const.247
	0x4304c988		sensor_get_data.xx_msg_const.248
	0x4304c998		sensor_get_data.xx_msg_const.250
	0x4304c9a8		sensor_get_data.xx_msg_const.251
	0x4304c9b8		sensor_get_data.xx_msg_const.253
	0x4304c9c8		sensor_get_data.xx_msg_const.254
	0x4304c9d8		sensor_get_data.xx_msg_const.256
	0x4304c9e8		sensor_get_data.xx_msg_const.257
	0x4304c9f8		sensor_get_data.xx_msg_const.259
	0x4304ca08		sensor_get_data.xx_msg_const.260
	0x4304ca18		sensor_get_data.xx_msg_const.262
	0x4304ca28		sensor_get_data.xx_msg_const.263
	0x4304ca38		sensor_get_data.xx_msg_const.265
	0x4304ca48		sensor_get_data.xx_msg_const.266
	0x4304ca58		sensor_get_data.xx_msg_const.268
	0x4304ca68		sensor_get_data.xx_msg_const.269
	0x4304ca78		sensor_get_data.xx_msg_const.271
	0x4304ca88		sensor_get_data.xx_msg_const.272
	0x4304ca98		sensor_get_data.xx_msg_const.274
	0x4304caa8		sensor_get_data.xx_msg_const.275
	0x4304cab8		sensor_get_data.xx_msg_const.277
	0x4304cac8		sensor_get_data.xx_msg_const.278
	0x4304cad8		sensor_get_data.xx_msg_const.279
	0x4304cae8		sensor_get_data.xx_msg_const.280
	0x4304caf8		sensor_get_data.xx_msg_const.281
	0x4304cb08		sensor_get_data.xx_msg_const.282
	0x4304cb18		sensor_get_data.xx_msg_const.283
	0x4304cb28		sensor_get_data.xx_msg_const.284
	0x4304cb38		sensor_get_data.xx_msg_const.285
	0x4304cb48		sensor_get_data.xx_msg_const.286
	0x4304cb58		sensor_set_config.xx_msg_const
	0x4304cb68		sensor_set_config.xx_msg_const.288
	0x4304cb78		sensor_set_config.xx_msg_const.290
	0x4304cb88		sensor_set_config.xx_msg_const.291
	0x4304cb98		sensor_set_config.xx_msg_const.293
	0x4304cba8		sensor_set_config.xx_msg_const.294
	0x4304cbb8		sensor_set_config.xx_msg_const.296
	0x4304cbc8		sensor_set_config.xx_msg_const.297
	0x4304cbd8		sensor_set_config.xx_msg_const.299
	0x4304cbe8		sensor_set_config.xx_msg_const.300
	0x4304cbf8		sensor_set_config.xx_msg_const.302
	0x4304cc08		sensor_set_config.xx_msg_const.303
	0x4304cc18		sensor_set_config.xx_msg_const.305
	0x4304cc28		sensor_set_config.xx_msg_const.306
	0x4304cc38		sensor_set_config.xx_msg_const.308
	0x4304cc48		sensor_set_config.xx_msg_const.309
	0x4304cc58		sensor_set_config.xx_msg_const.311
	0x4304cc68		sensor_set_config.xx_msg_const.312
	0x4304cc78		sensor_set_config.xx_msg_const.314
	0x4304cc88		sensor_set_config.xx_msg_const.315
	0x4304cc98		sensor_set_config.xx_msg_const.317
	0x4304cca8		sensor_set_config.xx_msg_const.318
	0x4304ccb8		sensor_set_config.xx_msg_const.320
	0x4304ccc8		sensor_set_config.xx_msg_const.321
	0x4304ccd8		sensor_set_config.xx_msg_const.323
	0x4304cce8		sensor_set_config.xx_msg_const.324
	0x4304ccf8		sensor_set_config.xx_msg_const.326
	0x4304cd08		sensor_set_config.xx_msg_const.327
	0x4304cd18		sensor_set_config.xx_msg_const.329
	0x4304cd28		sensor_set_config.xx_msg_const.330
	0x4304cd38		sensor_set_config.xx_msg_const.332
	0x4304cd48		sensor_set_config.xx_msg_const.333
	0x4304cd58		sensor_set_config.xx_msg_const.335
	0x4304cd68		sensor_set_config.xx_msg_const.336
	0x4304cd78		sensor_set_config.xx_msg_const.338
	0x4304cd88		sensor_set_config.xx_msg_const.339
	0x4304cd98		sensor_set_config.xx_msg_const.341
	0x4304cda8		sensor_set_config.xx_msg_const.342
	0x4304cdb8		sensor_set_config.xx_msg_const.344
	0x4304cdc8		sensor_set_config.xx_msg_const.345
	0x4304cdd8		sensor_set_config.xx_msg_const.347
	0x4304cde8		sensor_set_config.xx_msg_const.348
	0x4304cdf8		sensor_set_config.xx_msg_const.350
	0x4304ce08		sensor_set_config.xx_msg_const.351
	0x4304ce18		sensor_set_config.xx_msg_const.353
	0x4304ce28		sensor_set_config.xx_msg_const.354
	0x4304ce38		sensor_set_config.xx_msg_const.356
	0x4304ce48		sensor_set_config.xx_msg_const.357
	0x4304ce58		sensor_set_config.xx_msg_const.359
	0x4304ce68		sensor_set_config.xx_msg_const.360
	0x4304ce78		sensor_set_config.xx_msg_const.362
	0x4304ce88		sensor_set_config.xx_msg_const.363
	0x4304ce98		sensor_set_config.xx_msg_const.365
	0x4304cea8		sensor_set_config.xx_msg_const.366
	0x4304ceb8		sensor_set_config.xx_msg_const.368
	0x4304cec8		sensor_set_config.xx_msg_const.369
	0x4304ced8		sensor_set_config.xx_msg_const.371
	0x4304cee8		sensor_set_config.xx_msg_const.372
	0x4304cef8		sensor_set_config.xx_msg_const.374
	0x4304cf08		sensor_set_config.xx_msg_const.375
	0x4304cf18		sensor_set_config.xx_msg_const.377
	0x4304cf28		sensor_set_config.xx_msg_const.378
	0x4304cf38		sensor_set_config.xx_msg_const.380
	0x4304cf48		sensor_set_config.xx_msg_const.381
	0x4304cf58		sensor_set_config.xx_msg_const.383
	0x4304cf68		sensor_set_config.xx_msg_const.384
	0x4304cf78		sensor_set_config.xx_msg_const.386
	0x4304cf88		sensor_set_config.xx_msg_const.387
	0x4304cf98		sensor_set_config.xx_msg_const.389
	0x4304cfa8		sensor_set_config.xx_msg_const.390
	0x4304cfb8		sensor_set_config.xx_msg_const.392
	0x4304cfc8		sensor_set_config.xx_msg_const.393
	0x4304cfd8		sensor_set_config.xx_msg_const.395
	0x4304cfe8		sensor_set_config.xx_msg_const.396
	0x4304cff8		sensor_set_config.xx_msg_const.398
	0x4304d008		sensor_set_config.xx_msg_const.399
	0x4304d018		sensor_set_config.xx_msg_const.401
	0x4304d028		sensor_set_config.xx_msg_const.402
	0x4304d038		sensor_set_config.xx_msg_const.404
	0x4304d048		sensor_set_config.xx_msg_const.405
	0x4304d058		sensor_set_config.xx_msg_const.407
	0x4304d068		sensor_set_config.xx_msg_const.408
	0x4304d078		sensor_get_config.xx_msg_const
	0x4304d088		sensor_get_config.xx_msg_const.410
	0x4304d098		sensor_get_config.xx_msg_const.412
	0x4304d0a8		sensor_get_config.xx_msg_const.413
	0x4304d0b8		sensor_get_config.xx_msg_const.415
	0x4304d0c8		sensor_get_config.xx_msg_const.416
	0x4304d0d8		sensor_get_config.xx_msg_const.418
	0x4304d0e8		sensor_get_config.xx_msg_const.419
	0x4304d0f8		sensor_get_config.xx_msg_const.421
	0x4304d108		sensor_get_config.xx_msg_const.422
	0x4304d118		sensor_get_config.xx_msg_const.424
	0x4304d128		sensor_get_config.xx_msg_const.425
	0x4304d138		sensor_get_config.xx_msg_const.427
	0x4304d148		sensor_get_config.xx_msg_const.428
	0x4304d158		sensor_get_config.xx_msg_const.430
	0x4304d168		sensor_get_config.xx_msg_const.431
	0x4304d178		sensor_get_config.xx_msg_const.433
	0x4304d188		sensor_get_config.xx_msg_const.434
	0x4304d198		sensor_get_config.xx_msg_const.436
	0x4304d1a8		sensor_get_config.xx_msg_const.437
	0x4304d1b8		sensor_get_config.xx_msg_const.439
	0x4304d1c8		sensor_get_config.xx_msg_const.440
	0x4304d1d8		sensor_get_config.xx_msg_const.442
	0x4304d1e8		sensor_get_config.xx_msg_const.443
	0x4304d1f8		sensor_get_config.xx_msg_const.445
	0x4304d208		sensor_get_config.xx_msg_const.446
	0x4304d218		sensor_get_config.xx_msg_const.448
	0x4304d228		sensor_get_config.xx_msg_const.449
	0x4304d238		sensor_get_config.xx_msg_const.451
	0x4304d248		sensor_get_config.xx_msg_const.452
	0x4304d258		sensor_get_config.xx_msg_const.454
	0x4304d268		sensor_get_config.xx_msg_const.455
	0x4304d278		sensor_get_config.xx_msg_const.457
	0x4304d288		sensor_get_config.xx_msg_const.458
	0x4304d298		sensor_get_config.xx_msg_const.460
	0x4304d2a8		sensor_get_config.xx_msg_const.461
	0x4304d2b8		sensor_get_config.xx_msg_const.463
	0x4304d2c8		sensor_get_config.xx_msg_const.464
	0x4304d2d8		sensor_get_config.xx_msg_const.466
	0x4304d2e8		sensor_get_config.xx_msg_const.467
	0x4304d2f8		sensor_get_config.xx_msg_const.469
	0x4304d308		sensor_get_config.xx_msg_const.470
	0x4304d318		sensor_get_config.xx_msg_const.472
	0x4304d328		sensor_get_config.xx_msg_const.473
	0x4304d338		sensor_get_config.xx_msg_const.475
	0x4304d348		sensor_get_config.xx_msg_const.476
	0x4304d358		sensor_get_config.xx_msg_const.478
	0x4304d368		sensor_get_config.xx_msg_const.479
	0x4304d378		sensor_get_config.xx_msg_const.481
	0x4304d388		sensor_get_config.xx_msg_const.482
	0x4304d398		sensor_get_config.xx_msg_const.484
	0x4304d3a8		sensor_get_config.xx_msg_const.485
	0x4304d3b8		sensor_get_config.xx_msg_const.487
	0x4304d3c8		sensor_get_config.xx_msg_const.488
	0x4304d3d8		sensor_get_config.xx_msg_const.490
	0x4304d3e8		sensor_get_config.xx_msg_const.491
	0x4304d3f8		sensor_get_config.xx_msg_const.493
	0x4304d408		sensor_get_config.xx_msg_const.494
	0x4304d418		sensor_get_config.xx_msg_const.496
	0x4304d428		sensor_get_config.xx_msg_const.497
	0x4304d438		sensor_get_config.xx_msg_const.499
	0x4304d448		sensor_get_config.xx_msg_const.500
.rodata.str1.1	0x4304d458	0x37	src\build\aware_client\sensor_mgr_thread.o	#SHT_PROGBITS,SHF_ALLOC|SHF_MERGE|SHF_STRINGS,1
	0x4304d458		.L.str
.rodata.str1.1	0x4304d48f	0x34	src\build\aware_client\sensor_mgr_thread.o	#SHT_PROGBITS,SHF_ALLOC|SHF_MERGE|SHF_STRINGS,1
	0x4304d48f		.L.str.2
.rodata.str1.1	0x4304d4c3	0x4d	src\build\aware_client\sensor_mgr_thread.o	#SHT_PROGBITS,SHF_ALLOC|SHF_MERGE|SHF_STRINGS,1
	0x4304d4c3		.L.str.4
.rodata.str1.1	0x4304d510	0xe	src\build\aware_client\sensor_mgr_thread.o	#SHT_PROGBITS,SHF_ALLOC|SHF_MERGE|SHF_STRINGS,1
	0x4304d510		.L.str.7
.rodata.str1.1	0x4304d51e	0x47	src\build\aware_client\sensor_mgr_thread.o	#SHT_PROGBITS,SHF_ALLOC|SHF_MERGE|SHF_STRINGS,1
	0x4304d51e		.L.str.8
.rodata.str1.1	0x4304d565	0x2c	src\build\aware_client\sensor_mgr_thread.o	#SHT_PROGBITS,SHF_ALLOC|SHF_MERGE|SHF_STRINGS,1
	0x4304d565		.L.str.11
.rodata.str1.1	0x4304d591	0xb	src\build\aware_client\sensor_mgr_thread.o	#SHT_PROGBITS,SHF_ALLOC|SHF_MERGE|SHF_STRINGS,1
	0x4304d591		.L.str.14
.rodata	0x4304d59c	0x80	src\build\aware_client\sensor_mgr_thread.o	#SHT_PROGBITS,SHF_ALLOC,4
	0x4304d59c		sensor_mgr_thread_task_entry.xx_msg_const
	0x4304d5ac		sensor_mgr_thread_task_entry.xx_msg_const.3
	0x4304d5bc		sensor_mgr_thread_task_entry.xx_msg_const.5
	0x4304d5cc		sensor_mgr_thread_task_entry.xx_msg_const.6
	0x4304d5dc		sensor_mgr_thread_task_entry.xx_msg_const.9
	0x4304d5ec		sensor_mgr_thread_task_entry.xx_msg_const.10
	0x4304d5fc		sensor_mgr_thread_task_entry.xx_msg_const.12
	0x4304d60c		sensor_mgr_thread_task_entry.xx_msg_const.13
.rodata.str1.1	0x4304d61c	0xf	src\build\aware_client\transport_config.o	#SHT_PROGBITS,SHF_ALLOC|SHF_MERGE|SHF_STRINGS,1
	0x4304d61c		.L.str
.rodata.str1.1	0x4304d62b	0x7	src\build\aware_client\transport_config.o	#SHT_PROGBITS,SHF_ALLOC|SHF_MERGE|SHF_STRINGS,1
	0x4304d62b		.L.str.4
.rodata.str1.1	0x4304d632	0x7	src\build\aware_client\transport_config.o	#SHT_PROGBITS,SHF_ALLOC|SHF_MERGE|SHF_STRINGS,1
	0x4304d632		.L.str.5
.rodata.str1.1	0x4304d639	0x7	src\build\aware_client\transport_config.o	#SHT_PROGBITS,SHF_ALLOC|SHF_MERGE|SHF_STRINGS,1
	0x4304d639		.L.str.6
.rodata.str1.1	0x4304d640	0x9	src\build\aware_client\transport_config.o	#SHT_PROGBITS,SHF_ALLOC|SHF_MERGE|SHF_STRINGS,1
	0x4304d640		.L.str.7
.rodata.str1.1	0x4304d649	0x20	src\build\aware_client\transport_config.o	#SHT_PROGBITS,SHF_ALLOC|SHF_MERGE|SHF_STRINGS,1
	0x4304d649		.L.str.8
.rodata.str1.1	0x4304d669	0x30	src\build\aware_client\transport_config.o	#SHT_PROGBITS,SHF_ALLOC|SHF_MERGE|SHF_STRINGS,1
	0x4304d669		.L.str.10
.rodata.str1.1	0x4304d699	0x21	src\build\aware_client\transport_config.o	#SHT_PROGBITS,SHF_ALLOC|SHF_MERGE|SHF_STRINGS,1
	0x4304d699		.L.str.15
.rodata.str1.1	0x4304d6ba	0x18	src\build\aware_client\transport_config.o	#SHT_PROGBITS,SHF_ALLOC|SHF_MERGE|SHF_STRINGS,1
	0x4304d6ba		.L.str.18
.rodata.str1.1	0x4304d6d2	0x22	src\build\aware_client\transport_config.o	#SHT_PROGBITS,SHF_ALLOC|SHF_MERGE|SHF_STRINGS,1
	0x4304d6d2		.L.str.21
.rodata.str1.1	0x4304d6f4	0x1b	src\build\aware_client\transport_config.o	#SHT_PROGBITS,SHF_ALLOC|SHF_MERGE|SHF_STRINGS,1
	0x4304d6f4		.L.str.24
.rodata.str1.1	0x4304d70f	0x1f	src\build\aware_client\transport_config.o	#SHT_PROGBITS,SHF_ALLOC|SHF_MERGE|SHF_STRINGS,1
	0x4304d70f		.L.str.27
.rodata.str1.1	0x4304d72e	0x25	src\build\aware_client\transport_config.o	#SHT_PROGBITS,SHF_ALLOC|SHF_MERGE|SHF_STRINGS,1
	0x4304d72e		.L.str.30
.rodata.str1.1	0x4304d753	0x14	src\build\aware_client\transport_config.o	#SHT_PROGBITS,SHF_ALLOC|SHF_MERGE|SHF_STRINGS,1
	0x4304d753		.L.str.33
PADDING_ALIGNMENT	0x4304d767	0x1	0x0
.rodata	0x4304d768	0x140	src\build\aware_client\transport_config.o	#SHT_PROGBITS,SHF_ALLOC,4
	0x4304d768		transport_config_load.xx_msg_const
	0x4304d778		transport_config_load.xx_msg_const.11
	0x4304d788		transport_config_load.xx_msg_const.13
	0x4304d798		transport_config_load.xx_msg_const.14
	0x4304d7a8		transport_config_load.xx_msg_const.16
	0x4304d7b8		transport_config_load.xx_msg_const.17
	0x4304d7c8		transport_config_load.xx_msg_const.19
	0x4304d7d8		transport_config_load.xx_msg_const.20
	0x4304d7e8		transport_config_load.xx_msg_const.22
	0x4304d7f8		transport_config_load.xx_msg_const.23
	0x4304d808		transport_config_load.xx_msg_const.25
	0x4304d818		transport_config_load.xx_msg_const.26
	0x4304d828		transport_config_load.xx_msg_const.28
	0x4304d838		transport_config_load.xx_msg_const.29
	0x4304d848		transport_config_load.xx_msg_const.31
	0x4304d858		transport_config_load.xx_msg_const.32
	0x4304d868		transport_config_load.xx_msg_const.34
	0x4304d878		transport_config_load.xx_msg_const.35
	0x4304d888		transport_config_load.xx_msg_const.36
	0x4304d898		transport_config_load.xx_msg_const.37
.rodata.str1.1	0x4304d8a8	0xf	src\build\aware_client\version_config.o	#SHT_PROGBITS,SHF_ALLOC|SHF_MERGE|SHF_STRINGS,1
	0x4304d8a8		.L.str
.rodata.str1.1	0x4304d8b7	0x4	src\build\aware_client\version_config.o	#SHT_PROGBITS,SHF_ALLOC|SHF_MERGE|SHF_STRINGS,1
	0x4304d8b7		.L.str.1
.rodata.str1.1	0x4304d8bb	0x4	src\build\aware_client\version_config.o	#SHT_PROGBITS,SHF_ALLOC|SHF_MERGE|SHF_STRINGS,1
	0x4304d8bb		.L.str.2
.rodata.str1.1	0x4304d8bf	0x4	src\build\aware_client\version_config.o	#SHT_PROGBITS,SHF_ALLOC|SHF_MERGE|SHF_STRINGS,1
	0x4304d8bf		.L.str.3
.rodata.str1.1	0x4304d8c3	0x5	src\build\aware_client\version_config.o	#SHT_PROGBITS,SHF_ALLOC|SHF_MERGE|SHF_STRINGS,1
	0x4304d8c3		.L.str.4
.rodata.str1.1	0x4304d8c8	0x5	src\build\aware_client\version_config.o	#SHT_PROGBITS,SHF_ALLOC|SHF_MERGE|SHF_STRINGS,1
	0x4304d8c8		.L.str.5
.rodata.str1.1	0x4304d8cd	0x5	src\build\aware_client\version_config.o	#SHT_PROGBITS,SHF_ALLOC|SHF_MERGE|SHF_STRINGS,1
	0x4304d8cd		.L.str.6
.rodata.str1.1	0x4304d8d2	0x5	src\build\aware_client\version_config.o	#SHT_PROGBITS,SHF_ALLOC|SHF_MERGE|SHF_STRINGS,1
	0x4304d8d2		.L.str.7
.rodata.str1.1	0x4304d8d7	0x5	src\build\aware_client\version_config.o	#SHT_PROGBITS,SHF_ALLOC|SHF_MERGE|SHF_STRINGS,1
	0x4304d8d7		.L.str.8
.rodata.str1.1	0x4304d8dc	0x5	src\build\aware_client\version_config.o	#SHT_PROGBITS,SHF_ALLOC|SHF_MERGE|SHF_STRINGS,1
	0x4304d8dc		.L.str.9
.rodata.str1.1	0x4304d8e1	0x5	src\build\aware_client\version_config.o	#SHT_PROGBITS,SHF_ALLOC|SHF_MERGE|SHF_STRINGS,1
	0x4304d8e1		.L.str.10
.rodata.str1.1	0x4304d8e6	0x9	src\build\aware_client\version_config.o	#SHT_PROGBITS,SHF_ALLOC|SHF_MERGE|SHF_STRINGS,1
	0x4304d8e6		.L.str.11
.rodata.str1.1	0x4304d8ef	0x9	src\build\aware_client\version_config.o	#SHT_PROGBITS,SHF_ALLOC|SHF_MERGE|SHF_STRINGS,1
	0x4304d8ef		.L.str.12
.rodata.str1.1	0x4304d8f8	0xa	src\build\aware_client\version_config.o	#SHT_PROGBITS,SHF_ALLOC|SHF_MERGE|SHF_STRINGS,1
	0x4304d8f8		.L.str.13
.rodata.str1.1	0x4304d902	0xa	src\build\aware_client\version_config.o	#SHT_PROGBITS,SHF_ALLOC|SHF_MERGE|SHF_STRINGS,1
	0x4304d902		.L.str.14
.rodata.str1.1	0x4304d90c	0x22	src\build\aware_client\version_config.o	#SHT_PROGBITS,SHF_ALLOC|SHF_MERGE|SHF_STRINGS,1
	0x4304d90c		.L.str.15
.rodata.str1.1	0x4304d92e	0x2e	src\build\aware_client\version_config.o	#SHT_PROGBITS,SHF_ALLOC|SHF_MERGE|SHF_STRINGS,1
	0x4304d92e		.L.str.17
.rodata.str1.1	0x4304d95c	0x2b	src\build\aware_client\version_config.o	#SHT_PROGBITS,SHF_ALLOC|SHF_MERGE|SHF_STRINGS,1
	0x4304d95c		.L.str.22
.rodata.str1.1	0x4304d987	0x2a	src\build\aware_client\version_config.o	#SHT_PROGBITS,SHF_ALLOC|SHF_MERGE|SHF_STRINGS,1
	0x4304d987		.L.str.25
.rodata.str1.1	0x4304d9b1	0x2b	src\build\aware_client\version_config.o	#SHT_PROGBITS,SHF_ALLOC|SHF_MERGE|SHF_STRINGS,1
	0x4304d9b1		.L.str.28
.rodata.str1.1	0x4304d9dc	0x25	src\build\aware_client\version_config.o	#SHT_PROGBITS,SHF_ALLOC|SHF_MERGE|SHF_STRINGS,1
	0x4304d9dc		.L.str.31
.rodata.str1.1	0x4304da01	0x21	src\build\aware_client\version_config.o	#SHT_PROGBITS,SHF_ALLOC|SHF_MERGE|SHF_STRINGS,1
	0x4304da01		.L.str.34
.rodata.str1.1	0x4304da22	0x1e	src\build\aware_client\version_config.o	#SHT_PROGBITS,SHF_ALLOC|SHF_MERGE|SHF_STRINGS,1
	0x4304da22		.L.str.37
.rodata.str1.1	0x4304da40	0x1f	src\build\aware_client\version_config.o	#SHT_PROGBITS,SHF_ALLOC|SHF_MERGE|SHF_STRINGS,1
	0x4304da40		.L.str.40
.rodata.str1.1	0x4304da5f	0x1d	src\build\aware_client\version_config.o	#SHT_PROGBITS,SHF_ALLOC|SHF_MERGE|SHF_STRINGS,1
	0x4304da5f		.L.str.43
.rodata.str1.1	0x4304da7c	0x19	src\build\aware_client\version_config.o	#SHT_PROGBITS,SHF_ALLOC|SHF_MERGE|SHF_STRINGS,1
	0x4304da7c		.L.str.46
.rodata.str1.1	0x4304da95	0x20	src\build\aware_client\version_config.o	#SHT_PROGBITS,SHF_ALLOC|SHF_MERGE|SHF_STRINGS,1
	0x4304da95		.L.str.49
.rodata.str1.1	0x4304dab5	0x2c	src\build\aware_client\version_config.o	#SHT_PROGBITS,SHF_ALLOC|SHF_MERGE|SHF_STRINGS,1
	0x4304dab5		.L.str.52
.rodata.str1.1	0x4304dae1	0x20	src\build\aware_client\version_config.o	#SHT_PROGBITS,SHF_ALLOC|SHF_MERGE|SHF_STRINGS,1
	0x4304dae1		.L.str.55
.rodata.str1.1	0x4304db01	0x17	src\build\aware_client\version_config.o	#SHT_PROGBITS,SHF_ALLOC|SHF_MERGE|SHF_STRINGS,1
	0x4304db01		.L.str.58
.rodata.str1.1	0x4304db18	0x28	src\build\aware_client\version_config.o	#SHT_PROGBITS,SHF_ALLOC|SHF_MERGE|SHF_STRINGS,1
	0x4304db18		.L.str.61
.rodata	0x4304db40	0x220	src\build\aware_client\version_config.o	#SHT_PROGBITS,SHF_ALLOC,4
	0x4304db40		version_config_load.xx_msg_const
	0x4304db50		version_config_load.xx_msg_const.18
	0x4304db60		version_config_load.xx_msg_const.20
	0x4304db70		version_config_load.xx_msg_const.21
	0x4304db80		version_config_load.xx_msg_const.23
	0x4304db90		version_config_load.xx_msg_const.24
	0x4304dba0		version_config_load.xx_msg_const.26
	0x4304dbb0		version_config_load.xx_msg_const.27
	0x4304dbc0		version_config_load.xx_msg_const.29
	0x4304dbd0		version_config_load.xx_msg_const.30
	0x4304dbe0		version_config_load.xx_msg_const.32
	0x4304dbf0		version_config_load.xx_msg_const.33
	0x4304dc00		version_config_load.xx_msg_const.35
	0x4304dc10		version_config_load.xx_msg_const.36
	0x4304dc20		version_config_load.xx_msg_const.38
	0x4304dc30		version_config_load.xx_msg_const.39
	0x4304dc40		version_config_load.xx_msg_const.41
	0x4304dc50		version_config_load.xx_msg_const.42
	0x4304dc60		version_config_load.xx_msg_const.44
	0x4304dc70		version_config_load.xx_msg_const.45
	0x4304dc80		version_config_load.xx_msg_const.47
	0x4304dc90		version_config_load.xx_msg_const.48
	0x4304dca0		version_config_load.xx_msg_const.50
	0x4304dcb0		version_config_load.xx_msg_const.51
	0x4304dcc0		version_config_load.xx_msg_const.53
	0x4304dcd0		version_config_load.xx_msg_const.54
	0x4304dce0		version_config_load.xx_msg_const.56
	0x4304dcf0		version_config_load.xx_msg_const.57
	0x4304dd00		version_config_load.xx_msg_const.59
	0x4304dd10		version_config_load.xx_msg_const.60
	0x4304dd20		version_config_load.xx_msg_const.62
	0x4304dd30		version_config_load.xx_msg_const.63
	0x4304dd40		version_config_load.xx_msg_const.64
	0x4304dd50		version_config_load.xx_msg_const.65
.rodata.str1.1	0x4304dd60	0x12	common\libs\timer_dam_lib.lib(qapi_timer_user.o)	#SHT_PROGBITS,SHF_ALLOC|SHF_MERGE|SHF_STRINGS,1
	0x4304dd60		.L.str
.rodata.cst32	0x4304dd72	0x20	C:\Users\2166772\Downloads\snapdragon_sd_llvm_arm.win.4.0_installer_41720.103-16-22_11_46_50\Snapdragon_SD_LLVM_ARM_WIN_4_0_Installer_41720_1\Snapdragon-llvm-4.0.17-windows64\armv7m-none-eabi\libc\lib/libc.a(malloc.o)	#SHT_PROGBITS,SHF_ALLOC|SHF_MERGE,1
	0x4304dd72		a_ctz_64.debruijn32
PADDING_ALIGNMENT	0x4304dd92	0x6	0x0
.rodata.cst16	0x4304dd98	0x30	C:\Users\2166772\Downloads\snapdragon_sd_llvm_arm.win.4.0_installer_41720.103-16-22_11_46_50\Snapdragon_SD_LLVM_ARM_WIN_4_0_Installer_41720_1\Snapdragon-llvm-4.0.17-windows64\armv7m-none-eabi\libc\lib/libc.a(pow.o)	#SHT_PROGBITS,SHF_ALLOC|SHF_MERGE,8
	0x4304dd98		bp
	0x4304dd98		$d
	0x4304dda8		dp_l
	0x4304ddb8		dp_h
.rodata.str1.1	0x4304ddc8	0x7	C:\Users\2166772\Downloads\snapdragon_sd_llvm_arm.win.4.0_installer_41720.103-16-22_11_46_50\Snapdragon_SD_LLVM_ARM_WIN_4_0_Installer_41720_1\Snapdragon-llvm-4.0.17-windows64\armv7m-none-eabi\libc\lib/libc.a(vfprintf.o)	#SHT_PROGBITS,SHF_ALLOC|SHF_MERGE|SHF_STRINGS,1
.rodata.str1.1	0x4304ddcf	0xa	C:\Users\2166772\Downloads\snapdragon_sd_llvm_arm.win.4.0_installer_41720.103-16-22_11_46_50\Snapdragon_SD_LLVM_ARM_WIN_4_0_Installer_41720_1\Snapdragon-llvm-4.0.17-windows64\armv7m-none-eabi\libc\lib/libc.a(vfprintf.o)	#SHT_PROGBITS,SHF_ALLOC|SHF_MERGE|SHF_STRINGS,1
.rodata.states	0x4304ddd9	0x1d0	C:\Users\2166772\Downloads\snapdragon_sd_llvm_arm.win.4.0_installer_41720.103-16-22_11_46_50\Snapdragon_SD_LLVM_ARM_WIN_4_0_Installer_41720_1\Snapdragon-llvm-4.0.17-windows64\armv7m-none-eabi\libc\lib/libc.a(vfprintf.o)	#SHT_PROGBITS,SHF_ALLOC,1
	0x4304ddd9		states
.rodata.cst16	0x4304dfa9	0x10	C:\Users\2166772\Downloads\snapdragon_sd_llvm_arm.win.4.0_installer_41720.103-16-22_11_46_50\Snapdragon_SD_LLVM_ARM_WIN_4_0_Installer_41720_1\Snapdragon-llvm-4.0.17-windows64\armv7m-none-eabi\libc\lib/libc.a(vfprintf.o)	#SHT_PROGBITS,SHF_ALLOC|SHF_MERGE,1
	0x4304dfa9		xdigits
PADDING_ALIGNMENT	0x4304dfb9	0x3	0x0
.rodata.str1.4	0x4304dfbc	0x14	C:\Users\2166772\Downloads\snapdragon_sd_llvm_arm.win.4.0_installer_41720.103-16-22_11_46_50\Snapdragon_SD_LLVM_ARM_WIN_4_0_Installer_41720_1\Snapdragon-llvm-4.0.17-windows64\armv7m-none-eabi\libc\lib/libc.a(vfprintf.o)	#SHT_PROGBITS,SHF_ALLOC|SHF_MERGE|SHF_STRINGS,4
	0x4304dfbc		$d
.rodata..Lvsnprintf_full.f	0x4304dfd0	0x90	C:\Users\2166772\Downloads\snapdragon_sd_llvm_arm.win.4.0_installer_41720.103-16-22_11_46_50\Snapdragon_SD_LLVM_ARM_WIN_4_0_Installer_41720_1\Snapdragon-llvm-4.0.17-windows64\armv7m-none-eabi\libc\lib/libc.a(vsnprintf.o)	#SHT_PROGBITS,SHF_ALLOC,8
	0x4304dfd0		$d
.rodata.str1.1	0x4304e060	0x58	C:\Users\2166772\Downloads\snapdragon_sd_llvm_arm.win.4.0_installer_41720.103-16-22_11_46_50\Snapdragon_SD_LLVM_ARM_WIN_4_0_Installer_41720_1\Snapdragon-llvm-4.0.17-windows64\armv7m-none-eabi\libc\lib/libc.a(strerror.o)	#SHT_PROGBITS,SHF_ALLOC|SHF_MERGE|SHF_STRINGS,1
	0x4304e060		errid
.rodata.errmsg	0x4304e0b8	0x70c	C:\Users\2166772\Downloads\snapdragon_sd_llvm_arm.win.4.0_installer_41720.103-16-22_11_46_50\Snapdragon_SD_LLVM_ARM_WIN_4_0_Installer_41720_1\Snapdragon-llvm-4.0.17-windows64\armv7m-none-eabi\libc\lib/libc.a(strerror.o)	#SHT_PROGBITS,SHF_ALLOC,1
	0x4304e0b8		errmsg
.rodata.str1.1	0x4304e7c4	0x9	C:\Users\2166772\Downloads\snapdragon_sd_llvm_arm.win.4.0_installer_41720.103-16-22_11_46_50\Snapdragon_SD_LLVM_ARM_WIN_4_0_Installer_41720_1\Snapdragon-llvm-4.0.17-windows64\armv7m-none-eabi\libc\lib/libc.a(floatscan.o)	#SHT_PROGBITS,SHF_ALLOC|SHF_MERGE|SHF_STRINGS,1
.rodata.str1.1	0x4304e7cd	0x4	C:\Users\2166772\Downloads\snapdragon_sd_llvm_arm.win.4.0_installer_41720.103-16-22_11_46_50\Snapdragon_SD_LLVM_ARM_WIN_4_0_Installer_41720_1\Snapdragon-llvm-4.0.17-windows64\armv7m-none-eabi\libc\lib/libc.a(floatscan.o)	#SHT_PROGBITS,SHF_ALLOC|SHF_MERGE|SHF_STRINGS,1
PADDING_ALIGNMENT	0x4304e7d1	0x3	0x0
.rodata.cst8	0x4304e7d4	0x8	C:\Users\2166772\Downloads\snapdragon_sd_llvm_arm.win.4.0_installer_41720.103-16-22_11_46_50\Snapdragon_SD_LLVM_ARM_WIN_4_0_Installer_41720_1\Snapdragon-llvm-4.0.17-windows64\armv7m-none-eabi\libc\lib/libc.a(floatscan.o)	#SHT_PROGBITS,SHF_ALLOC|SHF_MERGE,4
	0x4304e7d4		decfloat.th
	0x4304e7d4		$d
.rodata.cst32	0x4304e7dc	0x20	C:\Users\2166772\Downloads\snapdragon_sd_llvm_arm.win.4.0_installer_41720.103-16-22_11_46_50\Snapdragon_SD_LLVM_ARM_WIN_4_0_Installer_41720_1\Snapdragon-llvm-4.0.17-windows64\armv7m-none-eabi\libc\lib/libc.a(floatscan.o)	#SHT_PROGBITS,SHF_ALLOC|SHF_MERGE,4
	0x4304e7dc		decfloat.p10s
	0x4304e7dc		$d
.rodata.table	0x4304e7fc	0x101	C:\Users\2166772\Downloads\snapdragon_sd_llvm_arm.win.4.0_installer_41720.103-16-22_11_46_50\Snapdragon_SD_LLVM_ARM_WIN_4_0_Installer_41720_1\Snapdragon-llvm-4.0.17-windows64\armv7m-none-eabi\libc\lib/libc.a(intscan.o)	#SHT_PROGBITS,SHF_ALLOC,1
	0x4304e7fc		table
.rodata..L.str	0x4304e8fd	0x9	C:\Users\2166772\Downloads\snapdragon_sd_llvm_arm.win.4.0_installer_41720.103-16-22_11_46_50\Snapdragon_SD_LLVM_ARM_WIN_4_0_Installer_41720_1\Snapdragon-llvm-4.0.17-windows64\armv7m-none-eabi\libc\lib/libc.a(intscan.o)	#SHT_PROGBITS,SHF_ALLOC,1
	Image$$ER_RO$$Limit(0x4304e906) = .( 0x4304e906 );
Image$$ER_RO$$Length(0x4e906) = Image$$ER_RO$$Limit( 0x4304e906 ) - Image$$ER_RO$$Base( 0x43000000 );

ER_RW	0x4304e910	0x680 # Offset: 0x4e970, LMA: 0x4304e910
	Image$$ER_RW$$Base(0x4304e910) = .( 0x4304e910 );
KEEP (*(.data .data.* ))
.data	0x4304e910	0x10	src\build\aware_client\app_utils_log.o	#SHT_PROGBITS,SHF_ALLOC|SHF_WRITE,4
	0x4304e910		LOG_PREPEND
	0x4304e914		LOG_PREPEND_ACTIVE
	0x4304e918		LOG_QAPI_PREPEND_ACTIVE
	0x4304e91c		LOG_PREPEND_INACTIVE
.data	0x4304e920	0x8	src\build\aware_client\cJSON.o	#SHT_PROGBITS,SHF_ALLOC|SHF_WRITE,4
	0x4304e920		cJSON_malloc
	0x4304e924		cJSON_free
.data	0x4304e928	0x4	src\build\aware_client\data_mgr_utils.o	#SHT_PROGBITS,SHF_ALLOC|SHF_WRITE,4
	0x4304e928		__stack_chk_guard
.data	0x4304e92c	0x1	src\build\aware_client\fota_dam_download.o	#SHT_PROGBITS,SHF_ALLOC|SHF_WRITE,1
	0x4304e92c		http_netctl_lib_status
PADDING_ALIGNMENT	0x4304e92d	0x3	0x0
.data	0x4304e930	0x204	src\build\aware_client\gnss_worker_utils.o	#SHT_PROGBITS,SHF_ALLOC|SHF_WRITE,16
	0x4304e930		_GnssWorkerStateArr
	0x4304eb10		POWER_HIGH_STR
	0x4304eb14		POWER_MED_STR
	0x4304eb18		POWER_LOW_STR
	0x4304eb1c		POWER_INVALID_STR
	0x4304eb20		ACCURACY_HIGH_STR
	0x4304eb24		ACCURACY_MED_STR
	0x4304eb28		ACCURACY_LOW_STR
	0x4304eb2c		ACCURACY_UNKNOWN_STR
	0x4304eb30		ACCURACY_INVALID_STR
PADDING_ALIGNMENT	0x4304eb34	0xc	0x0
.data	0x4304eb40	0x14	src\build\aware_client\qapi_loc_wrapper.o	#SHT_PROGBITS,SHF_ALLOC|SHF_WRITE,16
	0x4304eb40		_MutexResponse
	0x4304eb44		_SignalResponse
	0x4304eb48		_SignalCollectiveResponse
	0x4304eb4c		_ClientId
	0x4304eb50		_SingleshotSessionId
PADDING_ALIGNMENT	0x4304eb54	0x4	0x0
.data.mal	0x4304eb58	0x410	C:\Users\2166772\Downloads\snapdragon_sd_llvm_arm.win.4.0_installer_41720.103-16-22_11_46_50\Snapdragon_SD_LLVM_ARM_WIN_4_0_Installer_41720_1\Snapdragon-llvm-4.0.17-windows64\armv7m-none-eabi\libc\lib/libc.a(malloc.o)	#SHT_PROGBITS,SHF_ALLOC|SHF_WRITE,8
	0x4304eb58		mal
	0x4304eb58		$d
.data..L_MergedGlobals	0x4304ef68	0xc	C:\Users\2166772\Downloads\snapdragon_sd_llvm_arm.win.4.0_installer_41720.103-16-22_11_46_50\Snapdragon_SD_LLVM_ARM_WIN_4_0_Installer_41720_1\Snapdragon-llvm-4.0.17-windows64\armv7m-none-eabi\libc\lib/libc.a(malloc.o)	#SHT_PROGBITS,SHF_ALLOC|SHF_WRITE,4
	0x4304ef68		$d
	0x4304ef68		expand_heap.end
	0x4304ef6c		expand_heap.heap_lock
.data.__progname	0x4304ef74	0x4	C:\Users\2166772\Downloads\snapdragon_sd_llvm_arm.win.4.0_installer_41720.103-16-22_11_46_50\Snapdragon_SD_LLVM_ARM_WIN_4_0_Installer_41720_1\Snapdragon-llvm-4.0.17-windows64\armv7m-none-eabi\libc\lib/libc.a(libc.o)	#SHT_PROGBITS,SHF_ALLOC|SHF_WRITE,4
	0x4304ef74		$d
	0x4304ef74		__progname
	0x4304ef74		program_invocation_short_name
.data.__progname_full	0x4304ef78	0x4	C:\Users\2166772\Downloads\snapdragon_sd_llvm_arm.win.4.0_installer_41720.103-16-22_11_46_50\Snapdragon_SD_LLVM_ARM_WIN_4_0_Installer_41720_1\Snapdragon-llvm-4.0.17-windows64\armv7m-none-eabi\libc\lib/libc.a(libc.o)	#SHT_PROGBITS,SHF_ALLOC|SHF_WRITE,4
	0x4304ef78		$d
	0x4304ef78		__progname_full
	0x4304ef78		program_invocation_name
.data.__expand_heap.brk	0x4304ef7c	0x4	C:\Users\2166772\Downloads\snapdragon_sd_llvm_arm.win.4.0_installer_41720.103-16-22_11_46_50\Snapdragon_SD_LLVM_ARM_WIN_4_0_Installer_41720_1\Snapdragon-llvm-4.0.17-windows64\armv7m-none-eabi\libc\lib/libc.a(expand_heap.o)	#SHT_PROGBITS,SHF_ALLOC|SHF_WRITE,4
	0x4304ef7c		__expand_heap.brk
	0x4304ef7c		$d
.data.__heap_base	0x4304ef80	0x4	C:\Users\2166772\Downloads\snapdragon_sd_llvm_arm.win.4.0_installer_41720.103-16-22_11_46_50\Snapdragon_SD_LLVM_ARM_WIN_4_0_Installer_41720_1\Snapdragon-llvm-4.0.17-windows64\armv7m-none-eabi\libc\lib/libc.a(__brk.o)	#SHT_PROGBITS,SHF_ALLOC|SHF_WRITE,4
	0x4304ef80		$d
	0x4304ef80		__heap_base
.data.__heap_limit	0x4304ef84	0x4	C:\Users\2166772\Downloads\snapdragon_sd_llvm_arm.win.4.0_installer_41720.103-16-22_11_46_50\Snapdragon_SD_LLVM_ARM_WIN_4_0_Installer_41720_1\Snapdragon-llvm-4.0.17-windows64\armv7m-none-eabi\libc\lib/libc.a(__brk.o)	#SHT_PROGBITS,SHF_ALLOC|SHF_WRITE,4
	0x4304ef84		$d
	0x4304ef84		__heap_limit
.data.dummy_file	0x4304ef88	0x4	C:\Users\2166772\Downloads\snapdragon_sd_llvm_arm.win.4.0_installer_41720.103-16-22_11_46_50\Snapdragon_SD_LLVM_ARM_WIN_4_0_Installer_41720_1\Snapdragon-llvm-4.0.17-windows64\armv7m-none-eabi\libc\lib/libc.a(__stdio_exit.o)	#SHT_PROGBITS,SHF_ALLOC|SHF_WRITE,4
	0x4304ef88		dummy_file
	0x4304ef88		$d
	0x4304ef88		__stdin_used
	0x4304ef88		__stdout_used
	0x4304ef88		__stderr_used
.data.ofl_head	0x4304ef8c	0x4	C:\Users\2166772\Downloads\snapdragon_sd_llvm_arm.win.4.0_installer_41720.103-16-22_11_46_50\Snapdragon_SD_LLVM_ARM_WIN_4_0_Installer_41720_1\Snapdragon-llvm-4.0.17-windows64\armv7m-none-eabi\libc\lib/libc.a(ofl.o)	#SHT_PROGBITS,SHF_ALLOC|SHF_WRITE,4
	0x4304ef8c		ofl_head
	0x4304ef8c		$d
	Image$$ER_RW$$Limit(0x4304ef90) = .( 0x4304ef90 );
Image$$ER_RO$$Length(0x4e910) = Image$$ER_RW$$Base( 0x4304e910 ) - Image$$ER_RO$$Base( 0x43000000 );
Image$$ER_RW$$Length(0x680) = Image$$ER_RW$$Limit( 0x4304ef90 ) - Image$$ER_RW$$Base( 0x4304e910 );

ER_ZI	0x4304ef90	0x3e690 # Offset: 0x4eff0, LMA: 0x4304ef90
	Image$$ER_ZI$$Base(0x4304ef90) = .( 0x4304ef90 );
*(.bss* .bss.* .common COMMON )
	0x4304ef90	0x1f8	src\build\aware_client\aware_app.o	#SHT_NOBITS,SHF_ALLOC|SHF_WRITE,16
	0x4304ef90		app_ctx
	0x4304f188	0x50	src\build\aware_client\aware_main_thread.o	#SHT_NOBITS,SHF_ALLOC|SHF_WRITE,16
	0x4304f188		location
	0x4304f1d8	0x10	src\build\aware_client\data_mgr.o	#SHT_NOBITS,SHF_ALLOC|SHF_WRITE,16
	0x4304f1d8		coap_local_ip
	0x4304f1e8	0x4	src\build\aware_client\data_mgr_coap.o	#SHT_NOBITS,SHF_ALLOC|SHF_WRITE,16
	0x4304f1e8		coap_signal_handle
	0x4304f1ec	0xd0	src\build\aware_client\data_mgr_coap.o	#SHT_NOBITS,SHF_ALLOC|SHF_WRITE,16
	0x4304f1ec		coap_url_info
	0x4304f2bc	0x4	src\build\aware_client\data_mgr_thread.o	#SHT_NOBITS,SHF_ALLOC|SHF_WRITE,16
	0x4304f2bc		data_mgr_dss_signal_handle
	0x4304f2c0	0x4	src\build\aware_client\fota_dam_download.o	#SHT_NOBITS,SHF_ALLOC|SHF_WRITE,16
	0x4304f2c0		http_release_handle
	0x4304f2c4	0x4	src\build\aware_client\sensor_mgr.o	#SHT_NOBITS,SHF_ALLOC|SHF_WRITE,16
	0x4304f2c4		sensor_handle
	0x4304f2c8	0x4	src\build\aware_client\sensor_mgr_thread.o	#SHT_NOBITS,SHF_ALLOC|SHF_WRITE,16
	0x4304f2c8		sensor_mgr_signal
	0x4304f2cc	0x1000	common\libs\timer_dam_lib.lib(qapi_timer_user.o)	#SHT_NOBITS,SHF_ALLOC|SHF_WRITE,16
	0x4304f2cc		timer_client_stack
	0x430502cc	0x4	common\libs\timer_dam_lib.lib(qapi_timer_user.o)	#SHT_NOBITS,SHF_ALLOC|SHF_WRITE,16
	0x430502cc		timer_client_module_thread
	0x430502d0	0x4	common\libs\timer_dam_lib.lib(qapi_timer_user.o)	#SHT_NOBITS,SHF_ALLOC|SHF_WRITE,16
	0x430502d0		timer_thread_state
	0x430502d4	0x4	common\libs\timer_dam_lib.lib(qapi_timer_user.o)	#SHT_NOBITS,SHF_ALLOC|SHF_WRITE,16
	0x430502d4		timer_user_handle
	0x430502d8	0x4	common\libs\txm_lib.lib(txm_module_thread_shell_entry.o)	#SHT_NOBITS,SHF_ALLOC|SHF_WRITE,16
	0x430502d8		_txm_module_entry_info
	0x430502dc	0x4	common\libs\txm_lib.lib(txm_module_thread_shell_entry.o)	#SHT_NOBITS,SHF_ALLOC|SHF_WRITE,16
	0x430502dc		_txm_module_kernel_call_dispatcher
	0x430502e0	0x40	C:\Users\2166772\Downloads\snapdragon_sd_llvm_arm.win.4.0_installer_41720.103-16-22_11_46_50\Snapdragon_SD_LLVM_ARM_WIN_4_0_Installer_41720_1\Snapdragon-llvm-4.0.17-windows64\armv7m-none-eabi\libc\lib/libc.a(libc.o)	#SHT_NOBITS,SHF_ALLOC|SHF_WRITE,16
	0x430502e0		__libc
.bss	0x43050320	0x4c	src\build\aware_client\app_thread.o	#SHT_NOBITS,SHF_ALLOC|SHF_WRITE,4
	0x43050320		isModuleInit
	0x43050324		threadPool
.bss	0x4305036c	0x3c008	src\build\aware_client\app_utils_mem.o	#SHT_NOBITS,SHF_ALLOC|SHF_WRITE,4
	0x4305036c		freeMemoryLocation
	0x4308c36c		isInitialised
	0x4308c370		bytePoolLocation
.bss	0x4308c374	0x8	src\build\aware_client\aware_main_thread.o	#SHT_NOBITS,SHF_ALLOC|SHF_WRITE,4
	0x4308c374		periodic_checkin_timer
	0x4308c378		periodic_checkin_counter
.bss	0x4308c37c	0x20	src\build\aware_client\aware_psm.o	#SHT_NOBITS,SHF_ALLOC|SHF_WRITE,4
	0x4308c37c		psm_inited
	0x4308c380		aware_psm_ctx
.bss	0x4308c39c	0x8	src\build\aware_client\aware_utils.o	#SHT_NOBITS,SHF_ALLOC|SHF_WRITE,4
	0x4308c39c		strtok2.nxt
	0x4308c3a0		strtok2.size
.bss	0x4308c3a4	0x4	src\build\aware_client\cJSON.o	#SHT_NOBITS,SHF_ALLOC|SHF_WRITE,4
	0x4308c3a4		ep
.bss	0x4308c3a8	0x8	src\build\aware_client\data_mgr.o	#SHT_NOBITS,SHF_ALLOC|SHF_WRITE,4
	0x4308c3a8		retry_counter
	0x4308c3ac		coap_session_handle
.bss	0x4308c3b0	0x14	src\build\aware_client\data_mgr_coap.o	#SHT_NOBITS,SHF_ALLOC|SHF_WRITE,4
	0x4308c3b0		received_sigs
	0x4308c3b4		cert_Buf
	0x4308c3b8		cert_Size
	0x4308c3bc		key_Buf
	0x4308c3c0		key_Size
PADDING_ALIGNMENT	0x4308c3c4	0x4	0x0
.bss	0x4308c3c8	0x98	src\build\aware_client\data_mgr_device_info.o	#SHT_NOBITS,SHF_ALLOC|SHF_WRITE,8
	0x4308c3c8		device_info_hndl
	0x4308c3d0		device_resp
.bss	0x4308c460	0x10	src\build\aware_client\data_mgr_queue.o	#SHT_NOBITS,SHF_ALLOC|SHF_WRITE,4
	0x4308c460		data_mgr_pub_queue
.bss	0x4308c470	0xe	src\build\aware_client\data_mgr_thread.o	#SHT_NOBITS,SHF_ALLOC|SHF_WRITE,4
	0x4308c470		data_mgr_dss_handle
	0x4308c474		datacall_status
	0x4308c478		_DataMgrMutex
	0x4308c47c		fleet_route_array_index
PADDING_ALIGNMENT	0x4308c47e	0x2	0x0
.bss	0x4308c480	0x2c	src\build\aware_client\fota_dam_download.o	#SHT_NOBITS,SHF_ALLOC|SHF_WRITE,16
	0x4308c480		http_handle
	0x4308c490		file_opened
	0x4308c494		dl_file_handle
	0x4308c498		http_session_policy
PADDING_ALIGNMENT	0x4308c4ac	0x4	0x0
.bss	0x4308c4b0	0xf0	src\build\aware_client\gnss_worker_sm.o	#SHT_NOBITS,SHF_ALLOC|SHF_WRITE,8
	0x4308c4b0		_StateData
.bss	0x4308c5a0	0xc	src\build\aware_client\gnss_worker_thread.o	#SHT_NOBITS,SHF_ALLOC|SHF_WRITE,4
	0x4308c5a0		_BestAvailLocationOutPtr
	0x4308c5a4		_GnssWorkerMutex
	0x4308c5a8		_GnssWorkerSingleshotSignal
.bss	0x4308c5ac	0xc	src\build\aware_client\gnss_worker_utils.o	#SHT_NOBITS,SHF_ALLOC|SHF_WRITE,4
	0x4308c5ac		gIsDefaultAppPriorityGnss
	0x4308c5b0		gIsWwanSleepCbSet
	0x4308c5b4		gDeviceInfoHandle
PADDING_ALIGNMENT	0x4308c5b8	0x8	0x0
.bss	0x4308c5c0	0x1050	src\build\aware_client\qapi_loc_wrapper.o	#SHT_NOBITS,SHF_ALLOC|SHF_WRITE,16
	0x4308c5c0		_UserBuffer
	0x4308d5c0		_TrackingSessionId
	0x4308d5c4		_BestAvailSessionId
	0x4308d5c8		_MotionTrackingSessionId
	0x4308d5cc		_GeofenceIdArray
	0x4308d5d0		_LocClientOptions
	0x4308d5dc		_LocationCallbacks
.bss	0x4308d610	0xc	src\build\aware_client\sensor_mgr.o	#SHT_NOBITS,SHF_ALLOC|SHF_WRITE,4
	0x4308d610		sample_dimensions_available
	0x4308d614		sensor_value
	0x4308d618		samples_available_to_read
.bss.qapi_timer_user_initialized	0x4308d61c	0x4	common\libs\timer_dam_lib.lib(qapi_timer_user.o)	#SHT_NOBITS,SHF_ALLOC|SHF_WRITE,4
	0x4308d61c		qapi_timer_user_initialized
	Image$$ER_ZI$$Limit(0x4308d620) = .( 0x4308d620 );
Image$$ER_ZI$$ZI$$Length(0x3e690) = Image$$ER_ZI$$Limit( 0x4308d620 ) - Image$$ER_ZI$$Base( 0x4304ef90 );

.debug	0x0	0x0 # Offset: 0x0

.line	0x0	0x0 # Offset: 0x0

.debug_srcinfo	0x0	0x0 # Offset: 0x0

.debug_sfnames	0x0	0x0 # Offset: 0x0

.debug_aranges	0x0	0x0 # Offset: 0x0

.debug_pubnames	0x4eff0	0x704 # Offset: 0x4eff0
*(.debug_pubnames )
.debug_pubnames	0x4eff0	0x30	common\libs\qapi_psm_lib.lib(qapi_psm_user.o)	#SHT_PROGBITS,,1
.debug_pubnames	0x4f020	0x18a	common\libs\timer_dam_lib.lib(qapi_timer_user.o)	#SHT_PROGBITS,,1
.debug_pubnames	0x4f1aa	0x9b	common\libs\txm_lib.lib(txm_module_thread_shell_entry.o)	#SHT_PROGBITS,,1
.debug_pubnames	0x4f245	0x40	common\libs\txm_lib.lib(txm_module_callback_request_thread_entry.o)	#SHT_PROGBITS,,1
.debug_pubnames	0x4f285	0x30	common\libs\txm_lib.lib(txm_module_system_call11.o)	#SHT_PROGBITS,,1
.debug_pubnames	0x4f2b5	0x30	common\libs\txm_lib.lib(txm_module_system_call12.o)	#SHT_PROGBITS,,1
.debug_pubnames	0x4f2e5	0x2c	common\libs\txm_lib.lib(txm_byte_pool_create.o)	#SHT_PROGBITS,,1
.debug_pubnames	0x4f311	0x29	common\libs\txm_lib.lib(txm_byte_allocate.o)	#SHT_PROGBITS,,1
.debug_pubnames	0x4f33a	0x28	common\libs\txm_lib.lib(txm_byte_release.o)	#SHT_PROGBITS,,1
.debug_pubnames	0x4f362	0x2e	common\libs\txm_lib.lib(txm_event_flags_create.o)	#SHT_PROGBITS,,1
.debug_pubnames	0x4f390	0x2e	common\libs\txm_lib.lib(txm_event_flags_delete.o)	#SHT_PROGBITS,,1
.debug_pubnames	0x4f3be	0x2b	common\libs\txm_lib.lib(txm_event_flags_get.o)	#SHT_PROGBITS,,1
.debug_pubnames	0x4f3e9	0x30	common\libs\txm_lib.lib(txm_event_flags_info_get.o)	#SHT_PROGBITS,,1
.debug_pubnames	0x4f419	0x2b	common\libs\txm_lib.lib(txm_event_flags_set.o)	#SHT_PROGBITS,,1
.debug_pubnames	0x4f444	0x32	common\libs\txm_lib.lib(txm_module_object_allocate.o)	#SHT_PROGBITS,,1
.debug_pubnames	0x4f476	0x34	common\libs\txm_lib.lib(txm_module_object_deallocate.o)	#SHT_PROGBITS,,1
.debug_pubnames	0x4f4aa	0x38	common\libs\txm_lib.lib(txm_module_thread_system_suspend.o)	#SHT_PROGBITS,,1
.debug_pubnames	0x4f4e2	0x28	common\libs\txm_lib.lib(txm_mutex_create.o)	#SHT_PROGBITS,,1
.debug_pubnames	0x4f50a	0x28	common\libs\txm_lib.lib(txm_mutex_delete.o)	#SHT_PROGBITS,,1
.debug_pubnames	0x4f532	0x25	common\libs\txm_lib.lib(txm_mutex_get.o)	#SHT_PROGBITS,,1
.debug_pubnames	0x4f557	0x25	common\libs\txm_lib.lib(txm_mutex_put.o)	#SHT_PROGBITS,,1
.debug_pubnames	0x4f57c	0x29	common\libs\txm_lib.lib(txm_queue_receive.o)	#SHT_PROGBITS,,1
.debug_pubnames	0x4f5a5	0x29	common\libs\txm_lib.lib(txm_thread_create.o)	#SHT_PROGBITS,,1
.debug_pubnames	0x4f5ce	0x29	common\libs\txm_lib.lib(txm_thread_delete.o)	#SHT_PROGBITS,,1
.debug_pubnames	0x4f5f7	0x2a	common\libs\txm_lib.lib(txm_thread_identify.o)	#SHT_PROGBITS,,1
.debug_pubnames	0x4f621	0x34	common\libs\txm_lib.lib(txm_thread_preemption_change.o)	#SHT_PROGBITS,,1
.debug_pubnames	0x4f655	0x29	common\libs\txm_lib.lib(txm_thread_resume.o)	#SHT_PROGBITS,,1
.debug_pubnames	0x4f67e	0x27	common\libs\txm_lib.lib(txm_thread_sleep.o)	#SHT_PROGBITS,,1
.debug_pubnames	0x4f6a5	0x2c	common\libs\txm_lib.lib(txm_thread_terminate.o)	#SHT_PROGBITS,,1
.debug_pubnames	0x4f6d1	0x23	common\libs\txm_lib.lib(txm_time_get.o)	#SHT_PROGBITS,,1

.debug_info	0x4f6f4	0xa44a # Offset: 0x4f6f4
*(.debug_info .gnu.linkonce.wi.* )
.debug_info	0x4f6f4	0x10f	common\libs\qapi_psm_lib.lib(qapi_psm_user.o)	#SHT_PROGBITS,,1
.debug_info	0x4f803	0xb8b	common\libs\timer_dam_lib.lib(qapi_timer_user.o)	#SHT_PROGBITS,,1
.debug_info	0x5038e	0xd81	common\libs\txm_lib.lib(txm_module_thread_shell_entry.o)	#SHT_PROGBITS,,1
.debug_info	0x5110f	0xfde	common\libs\txm_lib.lib(txm_module_callback_request_thread_entry.o)	#SHT_PROGBITS,,1
.debug_info	0x520ed	0x136	common\libs\txm_lib.lib(txm_module_system_call11.o)	#SHT_PROGBITS,,1
.debug_info	0x52223	0x145	common\libs\txm_lib.lib(txm_module_system_call12.o)	#SHT_PROGBITS,,1
.debug_info	0x52368	0x6f6	common\libs\txm_lib.lib(txm_byte_pool_create.o)	#SHT_PROGBITS,,1
.debug_info	0x52a5e	0x6ec	common\libs\txm_lib.lib(txm_byte_allocate.o)	#SHT_PROGBITS,,1
.debug_info	0x5314a	0x7e	common\libs\txm_lib.lib(txm_byte_release.o)	#SHT_PROGBITS,,1
.debug_info	0x531c8	0x691	common\libs\txm_lib.lib(txm_event_flags_create.o)	#SHT_PROGBITS,,1
.debug_info	0x53859	0x673	common\libs\txm_lib.lib(txm_event_flags_delete.o)	#SHT_PROGBITS,,1
.debug_info	0x53ecc	0x6d3	common\libs\txm_lib.lib(txm_event_flags_get.o)	#SHT_PROGBITS,,1
.debug_info	0x5459f	0x6f1	common\libs\txm_lib.lib(txm_event_flags_info_get.o)	#SHT_PROGBITS,,1
.debug_info	0x54c90	0x691	common\libs\txm_lib.lib(txm_event_flags_set.o)	#SHT_PROGBITS,,1
.debug_info	0x55321	0x92	common\libs\txm_lib.lib(txm_module_object_allocate.o)	#SHT_PROGBITS,,1
.debug_info	0x553b3	0x7e	common\libs\txm_lib.lib(txm_module_object_deallocate.o)	#SHT_PROGBITS,,1
.debug_info	0x55431	0x5a1	common\libs\txm_lib.lib(txm_module_thread_system_suspend.o)	#SHT_PROGBITS,,1
.debug_info	0x559d2	0x5fe	common\libs\txm_lib.lib(txm_mutex_create.o)	#SHT_PROGBITS,,1
.debug_info	0x55fd0	0x5b2	common\libs\txm_lib.lib(txm_mutex_delete.o)	#SHT_PROGBITS,,1
.debug_info	0x56582	0x5c1	common\libs\txm_lib.lib(txm_mutex_get.o)	#SHT_PROGBITS,,1
.debug_info	0x56b43	0x5b2	common\libs\txm_lib.lib(txm_mutex_put.o)	#SHT_PROGBITS,,1
.debug_info	0x570f5	0x6e1	common\libs\txm_lib.lib(txm_queue_receive.o)	#SHT_PROGBITS,,1
.debug_info	0x577d6	0x656	common\libs\txm_lib.lib(txm_thread_create.o)	#SHT_PROGBITS,,1
.debug_info	0x57e2c	0x5a1	common\libs\txm_lib.lib(txm_thread_delete.o)	#SHT_PROGBITS,,1
.debug_info	0x583cd	0x592	common\libs\txm_lib.lib(txm_thread_identify.o)	#SHT_PROGBITS,,1
.debug_info	0x5895f	0x5c4	common\libs\txm_lib.lib(txm_thread_preemption_change.o)	#SHT_PROGBITS,,1
.debug_info	0x58f23	0x5a1	common\libs\txm_lib.lib(txm_thread_resume.o)	#SHT_PROGBITS,,1
.debug_info	0x594c4	0x7d	common\libs\txm_lib.lib(txm_thread_sleep.o)	#SHT_PROGBITS,,1
.debug_info	0x59541	0x5a1	common\libs\txm_lib.lib(txm_thread_terminate.o)	#SHT_PROGBITS,,1
.debug_info	0x59ae2	0x5c	common\libs\txm_lib.lib(txm_time_get.o)	#SHT_PROGBITS,,1

.debug_abbrev	0x59b3e	0x16b0 # Offset: 0x59b3e
*(.debug_abbrev )
.debug_abbrev	0x59b3e	0xa2	common\libs\qapi_psm_lib.lib(qapi_psm_user.o)	#SHT_PROGBITS,,1
.debug_abbrev	0x59be0	0x19a	common\libs\timer_dam_lib.lib(qapi_timer_user.o)	#SHT_PROGBITS,,1
.debug_abbrev	0x59d7a	0x103	common\libs\txm_lib.lib(txm_module_thread_shell_entry.o)	#SHT_PROGBITS,,1
.debug_abbrev	0x59e7d	0xfa	common\libs\txm_lib.lib(txm_module_callback_request_thread_entry.o)	#SHT_PROGBITS,,1
.debug_abbrev	0x59f77	0x8d	common\libs\txm_lib.lib(txm_module_system_call11.o)	#SHT_PROGBITS,,1
.debug_abbrev	0x5a004	0x8d	common\libs\txm_lib.lib(txm_module_system_call12.o)	#SHT_PROGBITS,,1
.debug_abbrev	0x5a091	0xdd	common\libs\txm_lib.lib(txm_byte_pool_create.o)	#SHT_PROGBITS,,1
.debug_abbrev	0x5a16e	0xdd	common\libs\txm_lib.lib(txm_byte_allocate.o)	#SHT_PROGBITS,,1
.debug_abbrev	0x5a24b	0x64	common\libs\txm_lib.lib(txm_byte_release.o)	#SHT_PROGBITS,,1
.debug_abbrev	0x5a2af	0xcc	common\libs\txm_lib.lib(txm_event_flags_create.o)	#SHT_PROGBITS,,1
.debug_abbrev	0x5a37b	0xcc	common\libs\txm_lib.lib(txm_event_flags_delete.o)	#SHT_PROGBITS,,1
.debug_abbrev	0x5a447	0xdd	common\libs\txm_lib.lib(txm_event_flags_get.o)	#SHT_PROGBITS,,1
.debug_abbrev	0x5a524	0xdd	common\libs\txm_lib.lib(txm_event_flags_info_get.o)	#SHT_PROGBITS,,1
.debug_abbrev	0x5a601	0xcc	common\libs\txm_lib.lib(txm_event_flags_set.o)	#SHT_PROGBITS,,1
.debug_abbrev	0x5a6cd	0x6b	common\libs\txm_lib.lib(txm_module_object_allocate.o)	#SHT_PROGBITS,,1
.debug_abbrev	0x5a738	0x64	common\libs\txm_lib.lib(txm_module_object_deallocate.o)	#SHT_PROGBITS,,1
.debug_abbrev	0x5a79c	0xcc	common\libs\txm_lib.lib(txm_module_thread_system_suspend.o)	#SHT_PROGBITS,,1
.debug_abbrev	0x5a868	0xdd	common\libs\txm_lib.lib(txm_mutex_create.o)	#SHT_PROGBITS,,1
.debug_abbrev	0x5a945	0xcc	common\libs\txm_lib.lib(txm_mutex_delete.o)	#SHT_PROGBITS,,1
.debug_abbrev	0x5aa11	0xcc	common\libs\txm_lib.lib(txm_mutex_get.o)	#SHT_PROGBITS,,1
.debug_abbrev	0x5aadd	0xcc	common\libs\txm_lib.lib(txm_mutex_put.o)	#SHT_PROGBITS,,1
.debug_abbrev	0x5aba9	0xcc	common\libs\txm_lib.lib(txm_queue_receive.o)	#SHT_PROGBITS,,1
.debug_abbrev	0x5ac75	0xdd	common\libs\txm_lib.lib(txm_thread_create.o)	#SHT_PROGBITS,,1
.debug_abbrev	0x5ad52	0xcc	common\libs\txm_lib.lib(txm_thread_delete.o)	#SHT_PROGBITS,,1
.debug_abbrev	0x5ae1e	0xbd	common\libs\txm_lib.lib(txm_thread_identify.o)	#SHT_PROGBITS,,1
.debug_abbrev	0x5aedb	0xcc	common\libs\txm_lib.lib(txm_thread_preemption_change.o)	#SHT_PROGBITS,,1
.debug_abbrev	0x5afa7	0xcc	common\libs\txm_lib.lib(txm_thread_resume.o)	#SHT_PROGBITS,,1
.debug_abbrev	0x5b073	0x5f	common\libs\txm_lib.lib(txm_thread_sleep.o)	#SHT_PROGBITS,,1
.debug_abbrev	0x5b0d2	0xcc	common\libs\txm_lib.lib(txm_thread_terminate.o)	#SHT_PROGBITS,,1
.debug_abbrev	0x5b19e	0x50	common\libs\txm_lib.lib(txm_time_get.o)	#SHT_PROGBITS,,1

.debug_line	0x5b1ee	0x304c # Offset: 0x5b1ee
*(.debug_line )
.debug_line	0x5b1ee	0x1c1	common\libs\qapi_psm_lib.lib(qapi_psm_user.o)	#SHT_PROGBITS,,1
.debug_line	0x5b3af	0x4b0	common\libs\timer_dam_lib.lib(qapi_timer_user.o)	#SHT_PROGBITS,,1
.debug_line	0x5b85f	0x1e3	common\libs\txm_lib.lib(txm_module_thread_shell_entry.o)	#SHT_PROGBITS,,1
.debug_line	0x5ba42	0x275	common\libs\txm_lib.lib(txm_module_callback_request_thread_entry.o)	#SHT_PROGBITS,,1
.debug_line	0x5bcb7	0x174	common\libs\txm_lib.lib(txm_module_system_call11.o)	#SHT_PROGBITS,,1
.debug_line	0x5be2b	0x175	common\libs\txm_lib.lib(txm_module_system_call12.o)	#SHT_PROGBITS,,1
.debug_line	0x5bfa0	0x17b	common\libs\txm_lib.lib(txm_byte_pool_create.o)	#SHT_PROGBITS,,1
.debug_line	0x5c11b	0x176	common\libs\txm_lib.lib(txm_byte_allocate.o)	#SHT_PROGBITS,,1
.debug_line	0x5c291	0x162	common\libs\txm_lib.lib(txm_byte_release.o)	#SHT_PROGBITS,,1
.debug_line	0x5c3f3	0x16e	common\libs\txm_lib.lib(txm_event_flags_create.o)	#SHT_PROGBITS,,1
.debug_line	0x5c561	0x174	common\libs\txm_lib.lib(txm_event_flags_delete.o)	#SHT_PROGBITS,,1
.debug_line	0x5c6d5	0x17a	common\libs\txm_lib.lib(txm_event_flags_get.o)	#SHT_PROGBITS,,1
.debug_line	0x5c84f	0x188	common\libs\txm_lib.lib(txm_event_flags_info_get.o)	#SHT_PROGBITS,,1
.debug_line	0x5c9d7	0x16b	common\libs\txm_lib.lib(txm_event_flags_set.o)	#SHT_PROGBITS,,1
.debug_line	0x5cb42	0x16c	common\libs\txm_lib.lib(txm_module_object_allocate.o)	#SHT_PROGBITS,,1
.debug_line	0x5ccae	0x16e	common\libs\txm_lib.lib(txm_module_object_deallocate.o)	#SHT_PROGBITS,,1
.debug_line	0x5ce1c	0x17e	common\libs\txm_lib.lib(txm_module_thread_system_suspend.o)	#SHT_PROGBITS,,1
.debug_line	0x5cf9a	0x175	common\libs\txm_lib.lib(txm_mutex_create.o)	#SHT_PROGBITS,,1
.debug_line	0x5d10f	0x16e	common\libs\txm_lib.lib(txm_mutex_delete.o)	#SHT_PROGBITS,,1
.debug_line	0x5d27d	0x16b	common\libs\txm_lib.lib(txm_mutex_get.o)	#SHT_PROGBITS,,1
.debug_line	0x5d3e8	0x16b	common\libs\txm_lib.lib(txm_mutex_put.o)	#SHT_PROGBITS,,1
.debug_line	0x5d553	0x169	common\libs\txm_lib.lib(txm_queue_receive.o)	#SHT_PROGBITS,,1
.debug_line	0x5d6bc	0x189	common\libs\txm_lib.lib(txm_thread_create.o)	#SHT_PROGBITS,,1
.debug_line	0x5d845	0x16f	common\libs\txm_lib.lib(txm_thread_delete.o)	#SHT_PROGBITS,,1
.debug_line	0x5d9b4	0x171	common\libs\txm_lib.lib(txm_thread_identify.o)	#SHT_PROGBITS,,1
.debug_line	0x5db25	0x174	common\libs\txm_lib.lib(txm_thread_preemption_change.o)	#SHT_PROGBITS,,1
.debug_line	0x5dc99	0x16f	common\libs\txm_lib.lib(txm_thread_resume.o)	#SHT_PROGBITS,,1
.debug_line	0x5de08	0x162	common\libs\txm_lib.lib(txm_thread_sleep.o)	#SHT_PROGBITS,,1
.debug_line	0x5df6a	0x172	common\libs\txm_lib.lib(txm_thread_terminate.o)	#SHT_PROGBITS,,1
.debug_line	0x5e0dc	0x15e	common\libs\txm_lib.lib(txm_time_get.o)	#SHT_PROGBITS,,1

.debug_frame	0x5e23a	0x56c # Offset: 0x5e23a
*(.debug_frame )
.debug_frame	0x5e23a	0x20	common\libs\qapi_psm_lib.lib(qapi_psm_user.o)	#SHT_PROGBITS,,4
.debug_frame	0x5e25a	0x138	common\libs\timer_dam_lib.lib(qapi_timer_user.o)	#SHT_PROGBITS,,4
.debug_frame	0x5e392	0x4c	common\libs\txm_lib.lib(txm_module_thread_shell_entry.o)	#SHT_PROGBITS,,4
.debug_frame	0x5e3de	0x3c	common\libs\txm_lib.lib(txm_module_callback_request_thread_entry.o)	#SHT_PROGBITS,,4
.debug_frame	0x5e41a	0x2c	common\libs\txm_lib.lib(txm_module_system_call11.o)	#SHT_PROGBITS,,4
.debug_frame	0x5e446	0x2c	common\libs\txm_lib.lib(txm_module_system_call12.o)	#SHT_PROGBITS,,4
.debug_frame	0x5e472	0x28	common\libs\txm_lib.lib(txm_byte_pool_create.o)	#SHT_PROGBITS,,4
.debug_frame	0x5e49a	0x28	common\libs\txm_lib.lib(txm_byte_allocate.o)	#SHT_PROGBITS,,4
.debug_frame	0x5e4c2	0x20	common\libs\txm_lib.lib(txm_byte_release.o)	#SHT_PROGBITS,,4
.debug_frame	0x5e4e2	0x20	common\libs\txm_lib.lib(txm_event_flags_create.o)	#SHT_PROGBITS,,4
.debug_frame	0x5e502	0x20	common\libs\txm_lib.lib(txm_event_flags_delete.o)	#SHT_PROGBITS,,4
.debug_frame	0x5e522	0x28	common\libs\txm_lib.lib(txm_event_flags_get.o)	#SHT_PROGBITS,,4
.debug_frame	0x5e54a	0x28	common\libs\txm_lib.lib(txm_event_flags_info_get.o)	#SHT_PROGBITS,,4
.debug_frame	0x5e572	0x20	common\libs\txm_lib.lib(txm_event_flags_set.o)	#SHT_PROGBITS,,4
.debug_frame	0x5e592	0x20	common\libs\txm_lib.lib(txm_module_object_allocate.o)	#SHT_PROGBITS,,4
.debug_frame	0x5e5b2	0x20	common\libs\txm_lib.lib(txm_module_object_deallocate.o)	#SHT_PROGBITS,,4
.debug_frame	0x5e5d2	0x20	common\libs\txm_lib.lib(txm_module_thread_system_suspend.o)	#SHT_PROGBITS,,4
.debug_frame	0x5e5f2	0x28	common\libs\txm_lib.lib(txm_mutex_create.o)	#SHT_PROGBITS,,4
.debug_frame	0x5e61a	0x20	common\libs\txm_lib.lib(txm_mutex_delete.o)	#SHT_PROGBITS,,4
.debug_frame	0x5e63a	0x20	common\libs\txm_lib.lib(txm_mutex_get.o)	#SHT_PROGBITS,,4
.debug_frame	0x5e65a	0x20	common\libs\txm_lib.lib(txm_mutex_put.o)	#SHT_PROGBITS,,4
.debug_frame	0x5e67a	0x20	common\libs\txm_lib.lib(txm_queue_receive.o)	#SHT_PROGBITS,,4
.debug_frame	0x5e69a	0x2c	common\libs\txm_lib.lib(txm_thread_create.o)	#SHT_PROGBITS,,4
.debug_frame	0x5e6c6	0x20	common\libs\txm_lib.lib(txm_thread_delete.o)	#SHT_PROGBITS,,4
.debug_frame	0x5e6e6	0x20	common\libs\txm_lib.lib(txm_thread_identify.o)	#SHT_PROGBITS,,4
.debug_frame	0x5e706	0x20	common\libs\txm_lib.lib(txm_thread_preemption_change.o)	#SHT_PROGBITS,,4
.debug_frame	0x5e726	0x20	common\libs\txm_lib.lib(txm_thread_resume.o)	#SHT_PROGBITS,,4
.debug_frame	0x5e746	0x20	common\libs\txm_lib.lib(txm_thread_sleep.o)	#SHT_PROGBITS,,4
.debug_frame	0x5e766	0x20	common\libs\txm_lib.lib(txm_thread_terminate.o)	#SHT_PROGBITS,,4
.debug_frame	0x5e786	0x20	common\libs\txm_lib.lib(txm_time_get.o)	#SHT_PROGBITS,,4

.debug_str	0x5e7a6	0x3e9b # Offset: 0x5e7a6
*(.debug_str )
.debug_str	0x5e7a6	0x3c	common\libs\qapi_psm_lib.lib(qapi_psm_user.o)	#SHT_PROGBITS,SHF_MERGE|SHF_STRINGS,1
	0x0		
.debug_str	0x5e7e2	0x82	common\libs\qapi_psm_lib.lib(qapi_psm_user.o)	#SHT_PROGBITS,SHF_MERGE|SHF_STRINGS,1
	0x3c		
.debug_str	0x5e864	0x66	common\libs\qapi_psm_lib.lib(qapi_psm_user.o)	#SHT_PROGBITS,SHF_MERGE|SHF_STRINGS,1
	0xbe		
.debug_str	0x5e8ca	0xa	common\libs\qapi_psm_lib.lib(qapi_psm_user.o)	#SHT_PROGBITS,SHF_MERGE|SHF_STRINGS,1
	0x124		
.debug_str	0x5e8d4	0x4	common\libs\qapi_psm_lib.lib(qapi_psm_user.o)	#SHT_PROGBITS,SHF_MERGE|SHF_STRINGS,1
	0x12e		
.debug_str	0x5e8d8	0x7	common\libs\qapi_psm_lib.lib(qapi_psm_user.o)	#SHT_PROGBITS,SHF_MERGE|SHF_STRINGS,1
	0x132		
.debug_str	0x5e8df	0x7	common\libs\qapi_psm_lib.lib(qapi_psm_user.o)	#SHT_PROGBITS,SHF_MERGE|SHF_STRINGS,1
	0x139		
.debug_str	0x5e8e6	0x14	common\libs\qapi_psm_lib.lib(qapi_psm_user.o)	#SHT_PROGBITS,SHF_MERGE|SHF_STRINGS,1
	0x140		
.debug_str	0x5e8fa	0x13	common\libs\qapi_psm_lib.lib(qapi_psm_user.o)	#SHT_PROGBITS,SHF_MERGE|SHF_STRINGS,1
	0x154		
.debug_str	0x5e90d	0x1a	common\libs\qapi_psm_lib.lib(qapi_psm_user.o)	#SHT_PROGBITS,SHF_MERGE|SHF_STRINGS,1
	0x167		
.debug_str	0x5e927	0x6	common\libs\qapi_psm_lib.lib(qapi_psm_user.o)	#SHT_PROGBITS,SHF_MERGE|SHF_STRINGS,1
	0x181		
.debug_str	0x5e92d	0xd	common\libs\qapi_psm_lib.lib(qapi_psm_user.o)	#SHT_PROGBITS,SHF_MERGE|SHF_STRINGS,1
	0x187		
.debug_str	0x5e93a	0x5	common\libs\qapi_psm_lib.lib(qapi_psm_user.o)	#SHT_PROGBITS,SHF_MERGE|SHF_STRINGS,1
	0x194		
.debug_str	0x5e93f	0x7	common\libs\qapi_psm_lib.lib(qapi_psm_user.o)	#SHT_PROGBITS,SHF_MERGE|SHF_STRINGS,1
	0x199		
.debug_str	0x5e946	0xa	common\libs\qapi_psm_lib.lib(qapi_psm_user.o)	#SHT_PROGBITS,SHF_MERGE|SHF_STRINGS,1
	0x1a0		
.debug_str	0x5e950	0xa	common\libs\qapi_psm_lib.lib(qapi_psm_user.o)	#SHT_PROGBITS,SHF_MERGE|SHF_STRINGS,1
	0x1aa		
.debug_str	0x5e95a	0xa	common\libs\qapi_psm_lib.lib(qapi_psm_user.o)	#SHT_PROGBITS,SHF_MERGE|SHF_STRINGS,1
	0x1b4		
.debug_str	0x5e964	0xa	common\libs\qapi_psm_lib.lib(qapi_psm_user.o)	#SHT_PROGBITS,SHF_MERGE|SHF_STRINGS,1
	0x1be		
.debug_str	0x5e96e	0xc	common\libs\qapi_psm_lib.lib(qapi_psm_user.o)	#SHT_PROGBITS,SHF_MERGE|SHF_STRINGS,1
	0x1c8		
.debug_str	0x5e97a	0x8b	common\libs\timer_dam_lib.lib(qapi_timer_user.o)	#SHT_PROGBITS,SHF_MERGE|SHF_STRINGS,1
	0x1d4		
.debug_str	0x5ea05	0x1c	common\libs\timer_dam_lib.lib(qapi_timer_user.o)	#SHT_PROGBITS,SHF_MERGE|SHF_STRINGS,1
	0x25f		
.debug_str	0x5ea21	0x9	common\libs\timer_dam_lib.lib(qapi_timer_user.o)	#SHT_PROGBITS,SHF_MERGE|SHF_STRINGS,1
	0x27b		
.debug_str	0x5ea2a	0xe	common\libs\timer_dam_lib.lib(qapi_timer_user.o)	#SHT_PROGBITS,SHF_MERGE|SHF_STRINGS,1
	0x284		
.debug_str	0x5ea38	0x13	common\libs\timer_dam_lib.lib(qapi_timer_user.o)	#SHT_PROGBITS,SHF_MERGE|SHF_STRINGS,1
	0x292		
.debug_str	0x5ea4b	0x13	common\libs\timer_dam_lib.lib(qapi_timer_user.o)	#SHT_PROGBITS,SHF_MERGE|SHF_STRINGS,1
	0x2a5		
.debug_str	0x5ea5e	0x14	common\libs\timer_dam_lib.lib(qapi_timer_user.o)	#SHT_PROGBITS,SHF_MERGE|SHF_STRINGS,1
	0x2b8		
.debug_str	0x5ea72	0x15	common\libs\timer_dam_lib.lib(qapi_timer_user.o)	#SHT_PROGBITS,SHF_MERGE|SHF_STRINGS,1
	0x2cc		
.debug_str	0x5ea87	0x18	common\libs\timer_dam_lib.lib(qapi_timer_user.o)	#SHT_PROGBITS,SHF_MERGE|SHF_STRINGS,1
	0x2e1		
.debug_str	0x5ea9f	0x15	common\libs\timer_dam_lib.lib(qapi_timer_user.o)	#SHT_PROGBITS,SHF_MERGE|SHF_STRINGS,1
	0x2f9		
.debug_str	0x5eab4	0x12	common\libs\timer_dam_lib.lib(qapi_timer_user.o)	#SHT_PROGBITS,SHF_MERGE|SHF_STRINGS,1
	0x30e		
.debug_str	0x5eac6	0x1a	common\libs\timer_dam_lib.lib(qapi_timer_user.o)	#SHT_PROGBITS,SHF_MERGE|SHF_STRINGS,1
	0x320		
.debug_str	0x5eae0	0x1f	common\libs\timer_dam_lib.lib(qapi_timer_user.o)	#SHT_PROGBITS,SHF_MERGE|SHF_STRINGS,1
	0x33a		
.debug_str	0x5eaff	0x1b	common\libs\timer_dam_lib.lib(qapi_timer_user.o)	#SHT_PROGBITS,SHF_MERGE|SHF_STRINGS,1
	0x359		
.debug_str	0x5eb1a	0xd	common\libs\timer_dam_lib.lib(qapi_timer_user.o)	#SHT_PROGBITS,SHF_MERGE|SHF_STRINGS,1
	0x374		
.debug_str	0x5eb27	0x12	common\libs\timer_dam_lib.lib(qapi_timer_user.o)	#SHT_PROGBITS,SHF_MERGE|SHF_STRINGS,1
	0x381		
.debug_str	0x5eb39	0x6	common\libs\timer_dam_lib.lib(qapi_timer_user.o)	#SHT_PROGBITS,SHF_MERGE|SHF_STRINGS,1
	0x393		
.debug_str	0x5eb3f	0x14	common\libs\timer_dam_lib.lib(qapi_timer_user.o)	#SHT_PROGBITS,SHF_MERGE|SHF_STRINGS,1
	0x399		
.debug_str	0x5eb53	0x14	common\libs\timer_dam_lib.lib(qapi_timer_user.o)	#SHT_PROGBITS,SHF_MERGE|SHF_STRINGS,1
	0x3ad		
.debug_str	0x5eb67	0x16	common\libs\timer_dam_lib.lib(qapi_timer_user.o)	#SHT_PROGBITS,SHF_MERGE|SHF_STRINGS,1
	0x3c1		
.debug_str	0x5eb7d	0x14	common\libs\timer_dam_lib.lib(qapi_timer_user.o)	#SHT_PROGBITS,SHF_MERGE|SHF_STRINGS,1
	0x3d7		
.debug_str	0x5eb91	0x15	common\libs\timer_dam_lib.lib(qapi_timer_user.o)	#SHT_PROGBITS,SHF_MERGE|SHF_STRINGS,1
	0x3eb		
.debug_str	0x5eba6	0x15	common\libs\timer_dam_lib.lib(qapi_timer_user.o)	#SHT_PROGBITS,SHF_MERGE|SHF_STRINGS,1
	0x400		
.debug_str	0x5ebbb	0x19	common\libs\timer_dam_lib.lib(qapi_timer_user.o)	#SHT_PROGBITS,SHF_MERGE|SHF_STRINGS,1
	0x415		
.debug_str	0x5ebd4	0x15	common\libs\timer_dam_lib.lib(qapi_timer_user.o)	#SHT_PROGBITS,SHF_MERGE|SHF_STRINGS,1
	0x42e		
.debug_str	0x5ebe9	0x19	common\libs\timer_dam_lib.lib(qapi_timer_user.o)	#SHT_PROGBITS,SHF_MERGE|SHF_STRINGS,1
	0x443		
.debug_str	0x5ec02	0xf	common\libs\timer_dam_lib.lib(qapi_timer_user.o)	#SHT_PROGBITS,SHF_MERGE|SHF_STRINGS,1
	0x45c		
.debug_str	0x5ec11	0x5	common\libs\timer_dam_lib.lib(qapi_timer_user.o)	#SHT_PROGBITS,SHF_MERGE|SHF_STRINGS,1
	0x46b		
.debug_str	0x5ec16	0x5	common\libs\timer_dam_lib.lib(qapi_timer_user.o)	#SHT_PROGBITS,SHF_MERGE|SHF_STRINGS,1
	0x470		
.debug_str	0x5ec1b	0x13	common\libs\timer_dam_lib.lib(qapi_timer_user.o)	#SHT_PROGBITS,SHF_MERGE|SHF_STRINGS,1
	0x475		
.debug_str	0x5ec2e	0x10	common\libs\timer_dam_lib.lib(qapi_timer_user.o)	#SHT_PROGBITS,SHF_MERGE|SHF_STRINGS,1
	0x488		
.debug_str	0x5ec3e	0x1a	common\libs\timer_dam_lib.lib(qapi_timer_user.o)	#SHT_PROGBITS,SHF_MERGE|SHF_STRINGS,1
	0x498		
.debug_str	0x5ec58	0x15	common\libs\timer_dam_lib.lib(qapi_timer_user.o)	#SHT_PROGBITS,SHF_MERGE|SHF_STRINGS,1
	0x4b2		
.debug_str	0x5ec6d	0x1c	common\libs\timer_dam_lib.lib(qapi_timer_user.o)	#SHT_PROGBITS,SHF_MERGE|SHF_STRINGS,1
	0x4c7		
.debug_str	0x5ec89	0x12	common\libs\timer_dam_lib.lib(qapi_timer_user.o)	#SHT_PROGBITS,SHF_MERGE|SHF_STRINGS,1
	0x4e3		
.debug_str	0x5ec9b	0x10	common\libs\timer_dam_lib.lib(qapi_timer_user.o)	#SHT_PROGBITS,SHF_MERGE|SHF_STRINGS,1
	0x4f5		
.debug_str	0x5ecab	0x1a	common\libs\timer_dam_lib.lib(qapi_timer_user.o)	#SHT_PROGBITS,SHF_MERGE|SHF_STRINGS,1
	0x505		
.debug_str	0x5ecc5	0x10	common\libs\timer_dam_lib.lib(qapi_timer_user.o)	#SHT_PROGBITS,SHF_MERGE|SHF_STRINGS,1
	0x51f		
.debug_str	0x5ecd5	0x22	common\libs\timer_dam_lib.lib(qapi_timer_user.o)	#SHT_PROGBITS,SHF_MERGE|SHF_STRINGS,1
	0x52f		
.debug_str	0x5ecf7	0x26	common\libs\timer_dam_lib.lib(qapi_timer_user.o)	#SHT_PROGBITS,SHF_MERGE|SHF_STRINGS,1
	0x551		
.debug_str	0x5ed1d	0x23	common\libs\timer_dam_lib.lib(qapi_timer_user.o)	#SHT_PROGBITS,SHF_MERGE|SHF_STRINGS,1
	0x577		
.debug_str	0x5ed40	0x20	common\libs\timer_dam_lib.lib(qapi_timer_user.o)	#SHT_PROGBITS,SHF_MERGE|SHF_STRINGS,1
	0x59a		
.debug_str	0x5ed60	0x1e	common\libs\timer_dam_lib.lib(qapi_timer_user.o)	#SHT_PROGBITS,SHF_MERGE|SHF_STRINGS,1
	0x5ba		
.debug_str	0x5ed7e	0x22	common\libs\timer_dam_lib.lib(qapi_timer_user.o)	#SHT_PROGBITS,SHF_MERGE|SHF_STRINGS,1
	0x5d8		
.debug_str	0x5eda0	0x1c	common\libs\timer_dam_lib.lib(qapi_timer_user.o)	#SHT_PROGBITS,SHF_MERGE|SHF_STRINGS,1
	0x5fa		
.debug_str	0x5edbc	0x19	common\libs\timer_dam_lib.lib(qapi_timer_user.o)	#SHT_PROGBITS,SHF_MERGE|SHF_STRINGS,1
	0x616		
.debug_str	0x5edd5	0x12	common\libs\timer_dam_lib.lib(qapi_timer_user.o)	#SHT_PROGBITS,SHF_MERGE|SHF_STRINGS,1
	0x62f		
.debug_str	0x5ede7	0x1a	common\libs\timer_dam_lib.lib(qapi_timer_user.o)	#SHT_PROGBITS,SHF_MERGE|SHF_STRINGS,1
	0x641		
.debug_str	0x5ee01	0x20	common\libs\timer_dam_lib.lib(qapi_timer_user.o)	#SHT_PROGBITS,SHF_MERGE|SHF_STRINGS,1
	0x65b		
.debug_str	0x5ee21	0x19	common\libs\timer_dam_lib.lib(qapi_timer_user.o)	#SHT_PROGBITS,SHF_MERGE|SHF_STRINGS,1
	0x67b		
.debug_str	0x5ee3a	0x1d	common\libs\timer_dam_lib.lib(qapi_timer_user.o)	#SHT_PROGBITS,SHF_MERGE|SHF_STRINGS,1
	0x694		
.debug_str	0x5ee57	0x17	common\libs\timer_dam_lib.lib(qapi_timer_user.o)	#SHT_PROGBITS,SHF_MERGE|SHF_STRINGS,1
	0x6b1		
.debug_str	0x5ee6e	0x22	common\libs\timer_dam_lib.lib(qapi_timer_user.o)	#SHT_PROGBITS,SHF_MERGE|SHF_STRINGS,1
	0x6c8		
.debug_str	0x5ee90	0x19	common\libs\timer_dam_lib.lib(qapi_timer_user.o)	#SHT_PROGBITS,SHF_MERGE|SHF_STRINGS,1
	0x6ea		
.debug_str	0x5eea9	0x19	common\libs\timer_dam_lib.lib(qapi_timer_user.o)	#SHT_PROGBITS,SHF_MERGE|SHF_STRINGS,1
	0x703		
.debug_str	0x5eec2	0x17	common\libs\timer_dam_lib.lib(qapi_timer_user.o)	#SHT_PROGBITS,SHF_MERGE|SHF_STRINGS,1
	0x71c		
.debug_str	0x5eed9	0x1b	common\libs\timer_dam_lib.lib(qapi_timer_user.o)	#SHT_PROGBITS,SHF_MERGE|SHF_STRINGS,1
	0x733		
.debug_str	0x5eef4	0x15	common\libs\timer_dam_lib.lib(qapi_timer_user.o)	#SHT_PROGBITS,SHF_MERGE|SHF_STRINGS,1
	0x74e		
.debug_str	0x5ef09	0x1e	common\libs\timer_dam_lib.lib(qapi_timer_user.o)	#SHT_PROGBITS,SHF_MERGE|SHF_STRINGS,1
	0x763		
.debug_str	0x5ef27	0x20	common\libs\timer_dam_lib.lib(qapi_timer_user.o)	#SHT_PROGBITS,SHF_MERGE|SHF_STRINGS,1
	0x781		
.debug_str	0x5ef47	0x23	common\libs\timer_dam_lib.lib(qapi_timer_user.o)	#SHT_PROGBITS,SHF_MERGE|SHF_STRINGS,1
	0x7a1		
.debug_str	0x5ef6a	0x1b	common\libs\timer_dam_lib.lib(qapi_timer_user.o)	#SHT_PROGBITS,SHF_MERGE|SHF_STRINGS,1
	0x7c4		
.debug_str	0x5ef85	0x24	common\libs\timer_dam_lib.lib(qapi_timer_user.o)	#SHT_PROGBITS,SHF_MERGE|SHF_STRINGS,1
	0x7df		
.debug_str	0x5efa9	0x22	common\libs\timer_dam_lib.lib(qapi_timer_user.o)	#SHT_PROGBITS,SHF_MERGE|SHF_STRINGS,1
	0x803		
.debug_str	0x5efcb	0x23	common\libs\timer_dam_lib.lib(qapi_timer_user.o)	#SHT_PROGBITS,SHF_MERGE|SHF_STRINGS,1
	0x825		
.debug_str	0x5efee	0x1b	common\libs\timer_dam_lib.lib(qapi_timer_user.o)	#SHT_PROGBITS,SHF_MERGE|SHF_STRINGS,1
	0x848		
.debug_str	0x5f009	0x1d	common\libs\timer_dam_lib.lib(qapi_timer_user.o)	#SHT_PROGBITS,SHF_MERGE|SHF_STRINGS,1
	0x863		
.debug_str	0x5f026	0x1b	common\libs\timer_dam_lib.lib(qapi_timer_user.o)	#SHT_PROGBITS,SHF_MERGE|SHF_STRINGS,1
	0x880		
.debug_str	0x5f041	0x1c	common\libs\timer_dam_lib.lib(qapi_timer_user.o)	#SHT_PROGBITS,SHF_MERGE|SHF_STRINGS,1
	0x89b		
.debug_str	0x5f05d	0x1a	common\libs\timer_dam_lib.lib(qapi_timer_user.o)	#SHT_PROGBITS,SHF_MERGE|SHF_STRINGS,1
	0x8b7		
.debug_str	0x5f077	0x1d	common\libs\timer_dam_lib.lib(qapi_timer_user.o)	#SHT_PROGBITS,SHF_MERGE|SHF_STRINGS,1
	0x8d1		
.debug_str	0x5f094	0x18	common\libs\timer_dam_lib.lib(qapi_timer_user.o)	#SHT_PROGBITS,SHF_MERGE|SHF_STRINGS,1
	0x8ee		
.debug_str	0x5f0ac	0x21	common\libs\timer_dam_lib.lib(qapi_timer_user.o)	#SHT_PROGBITS,SHF_MERGE|SHF_STRINGS,1
	0x906		
.debug_str	0x5f0cd	0x1b	common\libs\timer_dam_lib.lib(qapi_timer_user.o)	#SHT_PROGBITS,SHF_MERGE|SHF_STRINGS,1
	0x927		
.debug_str	0x5f0e8	0x1c	common\libs\timer_dam_lib.lib(qapi_timer_user.o)	#SHT_PROGBITS,SHF_MERGE|SHF_STRINGS,1
	0x942		
.debug_str	0x5f104	0x1b	common\libs\timer_dam_lib.lib(qapi_timer_user.o)	#SHT_PROGBITS,SHF_MERGE|SHF_STRINGS,1
	0x95e		
.debug_str	0x5f11f	0xc	common\libs\timer_dam_lib.lib(qapi_timer_user.o)	#SHT_PROGBITS,SHF_MERGE|SHF_STRINGS,1
	0x979		
.debug_str	0x5f12b	0xe	common\libs\timer_dam_lib.lib(qapi_timer_user.o)	#SHT_PROGBITS,SHF_MERGE|SHF_STRINGS,1
	0x985		
.debug_str	0x5f139	0x19	common\libs\timer_dam_lib.lib(qapi_timer_user.o)	#SHT_PROGBITS,SHF_MERGE|SHF_STRINGS,1
	0x993		
.debug_str	0x5f152	0xf	common\libs\timer_dam_lib.lib(qapi_timer_user.o)	#SHT_PROGBITS,SHF_MERGE|SHF_STRINGS,1
	0x9ac		
.debug_str	0x5f161	0x11	common\libs\timer_dam_lib.lib(qapi_timer_user.o)	#SHT_PROGBITS,SHF_MERGE|SHF_STRINGS,1
	0x9bb		
.debug_str	0x5f172	0x1b	common\libs\timer_dam_lib.lib(qapi_timer_user.o)	#SHT_PROGBITS,SHF_MERGE|SHF_STRINGS,1
	0x9cc		
.debug_str	0x5f18d	0x19	common\libs\timer_dam_lib.lib(qapi_timer_user.o)	#SHT_PROGBITS,SHF_MERGE|SHF_STRINGS,1
	0x9e7		
.debug_str	0x5f1a6	0x19	common\libs\timer_dam_lib.lib(qapi_timer_user.o)	#SHT_PROGBITS,SHF_MERGE|SHF_STRINGS,1
	0xa00		
.debug_str	0x5f1bf	0x16	common\libs\timer_dam_lib.lib(qapi_timer_user.o)	#SHT_PROGBITS,SHF_MERGE|SHF_STRINGS,1
	0xa19		
.debug_str	0x5f1d5	0x1a	common\libs\timer_dam_lib.lib(qapi_timer_user.o)	#SHT_PROGBITS,SHF_MERGE|SHF_STRINGS,1
	0xa2f		
.debug_str	0x5f1ef	0x22	common\libs\timer_dam_lib.lib(qapi_timer_user.o)	#SHT_PROGBITS,SHF_MERGE|SHF_STRINGS,1
	0xa49		
.debug_str	0x5f211	0x14	common\libs\timer_dam_lib.lib(qapi_timer_user.o)	#SHT_PROGBITS,SHF_MERGE|SHF_STRINGS,1
	0xa6b		
.debug_str	0x5f225	0x18	common\libs\timer_dam_lib.lib(qapi_timer_user.o)	#SHT_PROGBITS,SHF_MERGE|SHF_STRINGS,1
	0xa7f		
.debug_str	0x5f23d	0x10	common\libs\timer_dam_lib.lib(qapi_timer_user.o)	#SHT_PROGBITS,SHF_MERGE|SHF_STRINGS,1
	0xa97		
.debug_str	0x5f24d	0x1c	common\libs\timer_dam_lib.lib(qapi_timer_user.o)	#SHT_PROGBITS,SHF_MERGE|SHF_STRINGS,1
	0xaa7		
.debug_str	0x5f269	0x1e	common\libs\timer_dam_lib.lib(qapi_timer_user.o)	#SHT_PROGBITS,SHF_MERGE|SHF_STRINGS,1
	0xac3		
.debug_str	0x5f287	0x4	common\libs\timer_dam_lib.lib(qapi_timer_user.o)	#SHT_PROGBITS,SHF_MERGE|SHF_STRINGS,1
	0xae1		
.debug_str	0x5f28b	0x9	common\libs\timer_dam_lib.lib(qapi_timer_user.o)	#SHT_PROGBITS,SHF_MERGE|SHF_STRINGS,1
	0xae5		
.debug_str	0x5f294	0x15	common\libs\timer_dam_lib.lib(qapi_timer_user.o)	#SHT_PROGBITS,SHF_MERGE|SHF_STRINGS,1
	0xaee		
.debug_str	0x5f2a9	0x17	common\libs\timer_dam_lib.lib(qapi_timer_user.o)	#SHT_PROGBITS,SHF_MERGE|SHF_STRINGS,1
	0xb03		
.debug_str	0x5f2c0	0x1a	common\libs\timer_dam_lib.lib(qapi_timer_user.o)	#SHT_PROGBITS,SHF_MERGE|SHF_STRINGS,1
	0xb1a		
.debug_str	0x5f2da	0x15	common\libs\timer_dam_lib.lib(qapi_timer_user.o)	#SHT_PROGBITS,SHF_MERGE|SHF_STRINGS,1
	0xb34		
.debug_str	0x5f2ef	0x11	common\libs\timer_dam_lib.lib(qapi_timer_user.o)	#SHT_PROGBITS,SHF_MERGE|SHF_STRINGS,1
	0xb49		
.debug_str	0x5f300	0xa	common\libs\timer_dam_lib.lib(qapi_timer_user.o)	#SHT_PROGBITS,SHF_MERGE|SHF_STRINGS,1
	0xb5a		
.debug_str	0x5f30a	0x13	common\libs\timer_dam_lib.lib(qapi_timer_user.o)	#SHT_PROGBITS,SHF_MERGE|SHF_STRINGS,1
	0xb64		
.debug_str	0x5f31d	0xe	common\libs\timer_dam_lib.lib(qapi_timer_user.o)	#SHT_PROGBITS,SHF_MERGE|SHF_STRINGS,1
	0xb77		
.debug_str	0x5f32b	0x6	common\libs\timer_dam_lib.lib(qapi_timer_user.o)	#SHT_PROGBITS,SHF_MERGE|SHF_STRINGS,1
	0xb85		
.debug_str	0x5f331	0x12	common\libs\timer_dam_lib.lib(qapi_timer_user.o)	#SHT_PROGBITS,SHF_MERGE|SHF_STRINGS,1
	0xb8b		
.debug_str	0x5f343	0x13	common\libs\timer_dam_lib.lib(qapi_timer_user.o)	#SHT_PROGBITS,SHF_MERGE|SHF_STRINGS,1
	0xb9d		
.debug_str	0x5f356	0x1a	common\libs\timer_dam_lib.lib(qapi_timer_user.o)	#SHT_PROGBITS,SHF_MERGE|SHF_STRINGS,1
	0xbb0		
.debug_str	0x5f370	0x21	common\libs\timer_dam_lib.lib(qapi_timer_user.o)	#SHT_PROGBITS,SHF_MERGE|SHF_STRINGS,1
	0xbca		
.debug_str	0x5f391	0x19	common\libs\timer_dam_lib.lib(qapi_timer_user.o)	#SHT_PROGBITS,SHF_MERGE|SHF_STRINGS,1
	0xbeb		
.debug_str	0x5f3aa	0x1f	common\libs\timer_dam_lib.lib(qapi_timer_user.o)	#SHT_PROGBITS,SHF_MERGE|SHF_STRINGS,1
	0xc04		
.debug_str	0x5f3c9	0x15	common\libs\timer_dam_lib.lib(qapi_timer_user.o)	#SHT_PROGBITS,SHF_MERGE|SHF_STRINGS,1
	0xc23		
.debug_str	0x5f3de	0x15	common\libs\timer_dam_lib.lib(qapi_timer_user.o)	#SHT_PROGBITS,SHF_MERGE|SHF_STRINGS,1
	0xc38		
.debug_str	0x5f3f3	0x15	common\libs\timer_dam_lib.lib(qapi_timer_user.o)	#SHT_PROGBITS,SHF_MERGE|SHF_STRINGS,1
	0xc4d		
.debug_str	0x5f408	0x14	common\libs\timer_dam_lib.lib(qapi_timer_user.o)	#SHT_PROGBITS,SHF_MERGE|SHF_STRINGS,1
	0xc62		
.debug_str	0x5f41c	0x14	common\libs\timer_dam_lib.lib(qapi_timer_user.o)	#SHT_PROGBITS,SHF_MERGE|SHF_STRINGS,1
	0xc76		
.debug_str	0x5f430	0x15	common\libs\timer_dam_lib.lib(qapi_timer_user.o)	#SHT_PROGBITS,SHF_MERGE|SHF_STRINGS,1
	0xc8a		
.debug_str	0x5f445	0x14	common\libs\timer_dam_lib.lib(qapi_timer_user.o)	#SHT_PROGBITS,SHF_MERGE|SHF_STRINGS,1
	0xc9f		
.debug_str	0x5f459	0x21	common\libs\timer_dam_lib.lib(qapi_timer_user.o)	#SHT_PROGBITS,SHF_MERGE|SHF_STRINGS,1
	0xcb3		
.debug_str	0x5f47a	0x25	common\libs\timer_dam_lib.lib(qapi_timer_user.o)	#SHT_PROGBITS,SHF_MERGE|SHF_STRINGS,1
	0xcd4		
.debug_str	0x5f49f	0x26	common\libs\timer_dam_lib.lib(qapi_timer_user.o)	#SHT_PROGBITS,SHF_MERGE|SHF_STRINGS,1
	0xcf9		
.debug_str	0x5f4c5	0x1a	common\libs\timer_dam_lib.lib(qapi_timer_user.o)	#SHT_PROGBITS,SHF_MERGE|SHF_STRINGS,1
	0xd1f		
.debug_str	0x5f4df	0x10	common\libs\timer_dam_lib.lib(qapi_timer_user.o)	#SHT_PROGBITS,SHF_MERGE|SHF_STRINGS,1
	0xd39		
.debug_str	0x5f4ef	0x10	common\libs\timer_dam_lib.lib(qapi_timer_user.o)	#SHT_PROGBITS,SHF_MERGE|SHF_STRINGS,1
	0xd49		
.debug_str	0x5f4ff	0xf	common\libs\timer_dam_lib.lib(qapi_timer_user.o)	#SHT_PROGBITS,SHF_MERGE|SHF_STRINGS,1
	0xd59		
.debug_str	0x5f50e	0x11	common\libs\timer_dam_lib.lib(qapi_timer_user.o)	#SHT_PROGBITS,SHF_MERGE|SHF_STRINGS,1
	0xd68		
.debug_str	0x5f51f	0x8	common\libs\timer_dam_lib.lib(qapi_timer_user.o)	#SHT_PROGBITS,SHF_MERGE|SHF_STRINGS,1
	0xd79		
.debug_str	0x5f527	0xe	common\libs\timer_dam_lib.lib(qapi_timer_user.o)	#SHT_PROGBITS,SHF_MERGE|SHF_STRINGS,1
	0xd81		
.debug_str	0x5f535	0x10	common\libs\timer_dam_lib.lib(qapi_timer_user.o)	#SHT_PROGBITS,SHF_MERGE|SHF_STRINGS,1
	0xd8f		
.debug_str	0x5f545	0x16	common\libs\timer_dam_lib.lib(qapi_timer_user.o)	#SHT_PROGBITS,SHF_MERGE|SHF_STRINGS,1
	0xd9f		
.debug_str	0x5f55b	0x18	common\libs\timer_dam_lib.lib(qapi_timer_user.o)	#SHT_PROGBITS,SHF_MERGE|SHF_STRINGS,1
	0xdb5		
.debug_str	0x5f573	0x15	common\libs\timer_dam_lib.lib(qapi_timer_user.o)	#SHT_PROGBITS,SHF_MERGE|SHF_STRINGS,1
	0xdcd		
.debug_str	0x5f588	0xf	common\libs\timer_dam_lib.lib(qapi_timer_user.o)	#SHT_PROGBITS,SHF_MERGE|SHF_STRINGS,1
	0xde2		
.debug_str	0x5f597	0xf	common\libs\timer_dam_lib.lib(qapi_timer_user.o)	#SHT_PROGBITS,SHF_MERGE|SHF_STRINGS,1
	0xdf1		
.debug_str	0x5f5a6	0x1a	common\libs\timer_dam_lib.lib(qapi_timer_user.o)	#SHT_PROGBITS,SHF_MERGE|SHF_STRINGS,1
	0xe00		
.debug_str	0x5f5c0	0x11	common\libs\timer_dam_lib.lib(qapi_timer_user.o)	#SHT_PROGBITS,SHF_MERGE|SHF_STRINGS,1
	0xe1a		
.debug_str	0x5f5d1	0x11	common\libs\timer_dam_lib.lib(qapi_timer_user.o)	#SHT_PROGBITS,SHF_MERGE|SHF_STRINGS,1
	0xe2b		
.debug_str	0x5f5e2	0x10	common\libs\timer_dam_lib.lib(qapi_timer_user.o)	#SHT_PROGBITS,SHF_MERGE|SHF_STRINGS,1
	0xe3c		
.debug_str	0x5f5f2	0xe	common\libs\timer_dam_lib.lib(qapi_timer_user.o)	#SHT_PROGBITS,SHF_MERGE|SHF_STRINGS,1
	0xe4c		
.debug_str	0x5f600	0xe	common\libs\timer_dam_lib.lib(qapi_timer_user.o)	#SHT_PROGBITS,SHF_MERGE|SHF_STRINGS,1
	0xe5a		
.debug_str	0x5f60e	0x9	common\libs\timer_dam_lib.lib(qapi_timer_user.o)	#SHT_PROGBITS,SHF_MERGE|SHF_STRINGS,1
	0xe68		
.debug_str	0x5f617	0x5	common\libs\timer_dam_lib.lib(qapi_timer_user.o)	#SHT_PROGBITS,SHF_MERGE|SHF_STRINGS,1
	0xe71		
.debug_str	0x5f61c	0x18	common\libs\timer_dam_lib.lib(qapi_timer_user.o)	#SHT_PROGBITS,SHF_MERGE|SHF_STRINGS,1
	0xe76		
.debug_str	0x5f634	0x4	common\libs\timer_dam_lib.lib(qapi_timer_user.o)	#SHT_PROGBITS,SHF_MERGE|SHF_STRINGS,1
	0xe8e		
.debug_str	0x5f638	0xd	common\libs\timer_dam_lib.lib(qapi_timer_user.o)	#SHT_PROGBITS,SHF_MERGE|SHF_STRINGS,1
	0xe92		
.debug_str	0x5f645	0x14	common\libs\timer_dam_lib.lib(qapi_timer_user.o)	#SHT_PROGBITS,SHF_MERGE|SHF_STRINGS,1
	0xe9f		
.debug_str	0x5f659	0xb	common\libs\timer_dam_lib.lib(qapi_timer_user.o)	#SHT_PROGBITS,SHF_MERGE|SHF_STRINGS,1
	0xeb3		
.debug_str	0x5f664	0xb	common\libs\timer_dam_lib.lib(qapi_timer_user.o)	#SHT_PROGBITS,SHF_MERGE|SHF_STRINGS,1
	0xebe		
.debug_str	0x5f66f	0x8	common\libs\timer_dam_lib.lib(qapi_timer_user.o)	#SHT_PROGBITS,SHF_MERGE|SHF_STRINGS,1
	0xec9		
.debug_str	0x5f677	0x8	common\libs\timer_dam_lib.lib(qapi_timer_user.o)	#SHT_PROGBITS,SHF_MERGE|SHF_STRINGS,1
	0xed1		
.debug_str	0x5f67f	0x14	common\libs\timer_dam_lib.lib(qapi_timer_user.o)	#SHT_PROGBITS,SHF_MERGE|SHF_STRINGS,1
	0xed9		
.debug_str	0x5f693	0xe	common\libs\timer_dam_lib.lib(qapi_timer_user.o)	#SHT_PROGBITS,SHF_MERGE|SHF_STRINGS,1
	0xeed		
.debug_str	0x5f6a1	0xf	common\libs\timer_dam_lib.lib(qapi_timer_user.o)	#SHT_PROGBITS,SHF_MERGE|SHF_STRINGS,1
	0xefb		
.debug_str	0x5f6b0	0x19	common\libs\timer_dam_lib.lib(qapi_timer_user.o)	#SHT_PROGBITS,SHF_MERGE|SHF_STRINGS,1
	0xf0a		
.debug_str	0x5f6c9	0x5	common\libs\timer_dam_lib.lib(qapi_timer_user.o)	#SHT_PROGBITS,SHF_MERGE|SHF_STRINGS,1
	0xf23		
.debug_str	0x5f6ce	0x9	common\libs\timer_dam_lib.lib(qapi_timer_user.o)	#SHT_PROGBITS,SHF_MERGE|SHF_STRINGS,1
	0xf28		
.debug_str	0x5f6d7	0x7	common\libs\timer_dam_lib.lib(qapi_timer_user.o)	#SHT_PROGBITS,SHF_MERGE|SHF_STRINGS,1
	0xf31		
.debug_str	0x5f6de	0x5	common\libs\timer_dam_lib.lib(qapi_timer_user.o)	#SHT_PROGBITS,SHF_MERGE|SHF_STRINGS,1
	0xf38		
.debug_str	0x5f6e3	0x15	common\libs\timer_dam_lib.lib(qapi_timer_user.o)	#SHT_PROGBITS,SHF_MERGE|SHF_STRINGS,1
	0xf3d		
.debug_str	0x5f6f8	0x16	common\libs\timer_dam_lib.lib(qapi_timer_user.o)	#SHT_PROGBITS,SHF_MERGE|SHF_STRINGS,1
	0xf52		
.debug_str	0x5f70e	0x14	common\libs\timer_dam_lib.lib(qapi_timer_user.o)	#SHT_PROGBITS,SHF_MERGE|SHF_STRINGS,1
	0xf68		
.debug_str	0x5f722	0xb	common\libs\timer_dam_lib.lib(qapi_timer_user.o)	#SHT_PROGBITS,SHF_MERGE|SHF_STRINGS,1
	0xf7c		
.debug_str	0x5f72d	0x15	common\libs\timer_dam_lib.lib(qapi_timer_user.o)	#SHT_PROGBITS,SHF_MERGE|SHF_STRINGS,1
	0xf87		
.debug_str	0x5f742	0x1b	common\libs\timer_dam_lib.lib(qapi_timer_user.o)	#SHT_PROGBITS,SHF_MERGE|SHF_STRINGS,1
	0xf9c		
.debug_str	0x5f75d	0xf	common\libs\timer_dam_lib.lib(qapi_timer_user.o)	#SHT_PROGBITS,SHF_MERGE|SHF_STRINGS,1
	0xfb7		
.debug_str	0x5f76c	0x8	common\libs\timer_dam_lib.lib(qapi_timer_user.o)	#SHT_PROGBITS,SHF_MERGE|SHF_STRINGS,1
	0xfc6		
.debug_str	0x5f774	0xe	common\libs\timer_dam_lib.lib(qapi_timer_user.o)	#SHT_PROGBITS,SHF_MERGE|SHF_STRINGS,1
	0xfce		
.debug_str	0x5f782	0x14	common\libs\timer_dam_lib.lib(qapi_timer_user.o)	#SHT_PROGBITS,SHF_MERGE|SHF_STRINGS,1
	0xfdc		
.debug_str	0x5f796	0x8	common\libs\timer_dam_lib.lib(qapi_timer_user.o)	#SHT_PROGBITS,SHF_MERGE|SHF_STRINGS,1
	0xff0		
.debug_str	0x5f79e	0xb	common\libs\timer_dam_lib.lib(qapi_timer_user.o)	#SHT_PROGBITS,SHF_MERGE|SHF_STRINGS,1
	0xff8		
.debug_str	0x5f7a9	0xf	common\libs\timer_dam_lib.lib(qapi_timer_user.o)	#SHT_PROGBITS,SHF_MERGE|SHF_STRINGS,1
	0x1003		
.debug_str	0x5f7b8	0xb	common\libs\timer_dam_lib.lib(qapi_timer_user.o)	#SHT_PROGBITS,SHF_MERGE|SHF_STRINGS,1
	0x1012		
.debug_str	0x5f7c3	0xa	common\libs\timer_dam_lib.lib(qapi_timer_user.o)	#SHT_PROGBITS,SHF_MERGE|SHF_STRINGS,1
	0x101d		
.debug_str	0x5f7cd	0xc	common\libs\timer_dam_lib.lib(qapi_timer_user.o)	#SHT_PROGBITS,SHF_MERGE|SHF_STRINGS,1
	0x1027		
.debug_str	0x5f7d9	0x5	common\libs\timer_dam_lib.lib(qapi_timer_user.o)	#SHT_PROGBITS,SHF_MERGE|SHF_STRINGS,1
	0x1033		
.debug_str	0x5f7de	0xf	common\libs\timer_dam_lib.lib(qapi_timer_user.o)	#SHT_PROGBITS,SHF_MERGE|SHF_STRINGS,1
	0x1038		
.debug_str	0x5f7ed	0x9	common\libs\timer_dam_lib.lib(qapi_timer_user.o)	#SHT_PROGBITS,SHF_MERGE|SHF_STRINGS,1
	0x1047		
.debug_str	0x5f7f6	0x6	common\libs\timer_dam_lib.lib(qapi_timer_user.o)	#SHT_PROGBITS,SHF_MERGE|SHF_STRINGS,1
	0x1050		
.debug_str	0x5f7fc	0x4	common\libs\timer_dam_lib.lib(qapi_timer_user.o)	#SHT_PROGBITS,SHF_MERGE|SHF_STRINGS,1
	0x1056		
.debug_str	0x5f800	0x5	common\libs\timer_dam_lib.lib(qapi_timer_user.o)	#SHT_PROGBITS,SHF_MERGE|SHF_STRINGS,1
	0x105a		
.debug_str	0x5f805	0x7	common\libs\timer_dam_lib.lib(qapi_timer_user.o)	#SHT_PROGBITS,SHF_MERGE|SHF_STRINGS,1
	0x105f		
.debug_str	0x5f80c	0x7	common\libs\timer_dam_lib.lib(qapi_timer_user.o)	#SHT_PROGBITS,SHF_MERGE|SHF_STRINGS,1
	0x1066		
.debug_str	0x5f813	0xc	common\libs\timer_dam_lib.lib(qapi_timer_user.o)	#SHT_PROGBITS,SHF_MERGE|SHF_STRINGS,1
	0x106d		
.debug_str	0x5f81f	0x16	common\libs\timer_dam_lib.lib(qapi_timer_user.o)	#SHT_PROGBITS,SHF_MERGE|SHF_STRINGS,1
	0x1079		
.debug_str	0x5f835	0x10	common\libs\timer_dam_lib.lib(qapi_timer_user.o)	#SHT_PROGBITS,SHF_MERGE|SHF_STRINGS,1
	0x108f		
.debug_str	0x5f845	0xa9	common\libs\txm_lib.lib(txm_module_thread_shell_entry.o)	#SHT_PROGBITS,SHF_MERGE|SHF_STRINGS,1
	0x109f		
.debug_str	0x5f8ee	0x17	common\libs\txm_lib.lib(txm_module_thread_shell_entry.o)	#SHT_PROGBITS,SHF_MERGE|SHF_STRINGS,1
	0x1148		
.debug_str	0x5f905	0x24	common\libs\txm_lib.lib(txm_module_thread_shell_entry.o)	#SHT_PROGBITS,SHF_MERGE|SHF_STRINGS,1
	0x115f		
.debug_str	0x5f929	0x24	common\libs\txm_lib.lib(txm_module_thread_shell_entry.o)	#SHT_PROGBITS,SHF_MERGE|SHF_STRINGS,1
	0x1183		
.debug_str	0x5f94d	0x17	common\libs\txm_lib.lib(txm_module_thread_shell_entry.o)	#SHT_PROGBITS,SHF_MERGE|SHF_STRINGS,1
	0x11a7		
.debug_str	0x5f964	0x19	common\libs\txm_lib.lib(txm_module_thread_shell_entry.o)	#SHT_PROGBITS,SHF_MERGE|SHF_STRINGS,1
	0x11be		
.debug_str	0x5f97d	0x1a	common\libs\txm_lib.lib(txm_module_thread_shell_entry.o)	#SHT_PROGBITS,SHF_MERGE|SHF_STRINGS,1
	0x11d7		
.debug_str	0x5f997	0x23	common\libs\txm_lib.lib(txm_module_thread_shell_entry.o)	#SHT_PROGBITS,SHF_MERGE|SHF_STRINGS,1
	0x11f1		
.debug_str	0x5f9ba	0x28	common\libs\txm_lib.lib(txm_module_thread_shell_entry.o)	#SHT_PROGBITS,SHF_MERGE|SHF_STRINGS,1
	0x1214		
.debug_str	0x5f9e2	0x29	common\libs\txm_lib.lib(txm_module_thread_shell_entry.o)	#SHT_PROGBITS,SHF_MERGE|SHF_STRINGS,1
	0x123c		
.debug_str	0x5fa0b	0x1f	common\libs\txm_lib.lib(txm_module_thread_shell_entry.o)	#SHT_PROGBITS,SHF_MERGE|SHF_STRINGS,1
	0x1265		
.debug_str	0x5fa2a	0x1d	common\libs\txm_lib.lib(txm_module_thread_shell_entry.o)	#SHT_PROGBITS,SHF_MERGE|SHF_STRINGS,1
	0x1284		
.debug_str	0x5fa47	0x1e	common\libs\txm_lib.lib(txm_module_thread_shell_entry.o)	#SHT_PROGBITS,SHF_MERGE|SHF_STRINGS,1
	0x12a1		
.debug_str	0x5fa65	0x28	common\libs\txm_lib.lib(txm_module_thread_shell_entry.o)	#SHT_PROGBITS,SHF_MERGE|SHF_STRINGS,1
	0x12bf		
.debug_str	0x5fa8d	0x29	common\libs\txm_lib.lib(txm_module_thread_shell_entry.o)	#SHT_PROGBITS,SHF_MERGE|SHF_STRINGS,1
	0x12e7		
.debug_str	0x5fab6	0x1f	common\libs\txm_lib.lib(txm_module_thread_shell_entry.o)	#SHT_PROGBITS,SHF_MERGE|SHF_STRINGS,1
	0x1310		
.debug_str	0x5fad5	0x1d	common\libs\txm_lib.lib(txm_module_thread_shell_entry.o)	#SHT_PROGBITS,SHF_MERGE|SHF_STRINGS,1
	0x132f		
.debug_str	0x5faf2	0x2d	common\libs\txm_lib.lib(txm_module_thread_shell_entry.o)	#SHT_PROGBITS,SHF_MERGE|SHF_STRINGS,1
	0x134c		
.debug_str	0x5fb1f	0x1e	common\libs\txm_lib.lib(txm_module_thread_shell_entry.o)	#SHT_PROGBITS,SHF_MERGE|SHF_STRINGS,1
	0x1379		
.debug_str	0x5fb3d	0x24	common\libs\txm_lib.lib(txm_module_thread_shell_entry.o)	#SHT_PROGBITS,SHF_MERGE|SHF_STRINGS,1
	0x1397		
.debug_str	0x5fb61	0x33	common\libs\txm_lib.lib(txm_module_thread_shell_entry.o)	#SHT_PROGBITS,SHF_MERGE|SHF_STRINGS,1
	0x13bb		
.debug_str	0x5fb94	0x31	common\libs\txm_lib.lib(txm_module_thread_shell_entry.o)	#SHT_PROGBITS,SHF_MERGE|SHF_STRINGS,1
	0x13ee		
.debug_str	0x5fbc5	0x31	common\libs\txm_lib.lib(txm_module_thread_shell_entry.o)	#SHT_PROGBITS,SHF_MERGE|SHF_STRINGS,1
	0x141f		
.debug_str	0x5fbf6	0x2f	common\libs\txm_lib.lib(txm_module_thread_shell_entry.o)	#SHT_PROGBITS,SHF_MERGE|SHF_STRINGS,1
	0x1450		
.debug_str	0x5fc25	0x21	common\libs\txm_lib.lib(txm_module_thread_shell_entry.o)	#SHT_PROGBITS,SHF_MERGE|SHF_STRINGS,1
	0x147f		
.debug_str	0x5fc46	0x17	common\libs\txm_lib.lib(txm_module_thread_shell_entry.o)	#SHT_PROGBITS,SHF_MERGE|SHF_STRINGS,1
	0x14a0		
.debug_str	0x5fc5d	0x22	common\libs\txm_lib.lib(txm_module_thread_shell_entry.o)	#SHT_PROGBITS,SHF_MERGE|SHF_STRINGS,1
	0x14b7		
.debug_str	0x5fc7f	0x22	common\libs\txm_lib.lib(txm_module_thread_shell_entry.o)	#SHT_PROGBITS,SHF_MERGE|SHF_STRINGS,1
	0x14d9		
.debug_str	0x5fca1	0x22	common\libs\txm_lib.lib(txm_module_thread_shell_entry.o)	#SHT_PROGBITS,SHF_MERGE|SHF_STRINGS,1
	0x14fb		
.debug_str	0x5fcc3	0x2a	common\libs\txm_lib.lib(txm_module_thread_shell_entry.o)	#SHT_PROGBITS,SHF_MERGE|SHF_STRINGS,1
	0x151d		
.debug_str	0x5fced	0x23	common\libs\txm_lib.lib(txm_module_thread_shell_entry.o)	#SHT_PROGBITS,SHF_MERGE|SHF_STRINGS,1
	0x1547		
.debug_str	0x5fd10	0x29	common\libs\txm_lib.lib(txm_module_thread_shell_entry.o)	#SHT_PROGBITS,SHF_MERGE|SHF_STRINGS,1
	0x156a		
.debug_str	0x5fd39	0x23	common\libs\txm_lib.lib(txm_module_thread_shell_entry.o)	#SHT_PROGBITS,SHF_MERGE|SHF_STRINGS,1
	0x1593		
.debug_str	0x5fd5c	0x22	common\libs\txm_lib.lib(txm_module_thread_shell_entry.o)	#SHT_PROGBITS,SHF_MERGE|SHF_STRINGS,1
	0x15b6		
.debug_str	0x5fd7e	0x28	common\libs\txm_lib.lib(txm_module_thread_shell_entry.o)	#SHT_PROGBITS,SHF_MERGE|SHF_STRINGS,1
	0x15d8		
.debug_str	0x5fda6	0x2a	common\libs\txm_lib.lib(txm_module_thread_shell_entry.o)	#SHT_PROGBITS,SHF_MERGE|SHF_STRINGS,1
	0x1600		
.debug_str	0x5fdd0	0x26	common\libs\txm_lib.lib(txm_module_thread_shell_entry.o)	#SHT_PROGBITS,SHF_MERGE|SHF_STRINGS,1
	0x162a		
.debug_str	0x5fdf6	0x26	common\libs\txm_lib.lib(txm_module_thread_shell_entry.o)	#SHT_PROGBITS,SHF_MERGE|SHF_STRINGS,1
	0x1650		
.debug_str	0x5fe1c	0x28	common\libs\txm_lib.lib(txm_module_thread_shell_entry.o)	#SHT_PROGBITS,SHF_MERGE|SHF_STRINGS,1
	0x1676		
.debug_str	0x5fe44	0x1e	common\libs\txm_lib.lib(txm_module_thread_shell_entry.o)	#SHT_PROGBITS,SHF_MERGE|SHF_STRINGS,1
	0x169e		
.debug_str	0x5fe62	0x1e	common\libs\txm_lib.lib(txm_module_thread_shell_entry.o)	#SHT_PROGBITS,SHF_MERGE|SHF_STRINGS,1
	0x16bc		
.debug_str	0x5fe80	0x1f	common\libs\txm_lib.lib(txm_module_thread_shell_entry.o)	#SHT_PROGBITS,SHF_MERGE|SHF_STRINGS,1
	0x16da		
.debug_str	0x5fe9f	0x1f	common\libs\txm_lib.lib(txm_module_thread_shell_entry.o)	#SHT_PROGBITS,SHF_MERGE|SHF_STRINGS,1
	0x16f9		
.debug_str	0x5febe	0x1f	common\libs\txm_lib.lib(txm_module_thread_shell_entry.o)	#SHT_PROGBITS,SHF_MERGE|SHF_STRINGS,1
	0x1718		
.debug_str	0x5fedd	0x1f	common\libs\txm_lib.lib(txm_module_thread_shell_entry.o)	#SHT_PROGBITS,SHF_MERGE|SHF_STRINGS,1
	0x1737		
.debug_str	0x5fefc	0x1f	common\libs\txm_lib.lib(txm_module_thread_shell_entry.o)	#SHT_PROGBITS,SHF_MERGE|SHF_STRINGS,1
	0x1756		
.debug_str	0x5ff1b	0x1f	common\libs\txm_lib.lib(txm_module_thread_shell_entry.o)	#SHT_PROGBITS,SHF_MERGE|SHF_STRINGS,1
	0x1775		
.debug_str	0x5ff3a	0x1f	common\libs\txm_lib.lib(txm_module_thread_shell_entry.o)	#SHT_PROGBITS,SHF_MERGE|SHF_STRINGS,1
	0x1794		
.debug_str	0x5ff59	0x1f	common\libs\txm_lib.lib(txm_module_thread_shell_entry.o)	#SHT_PROGBITS,SHF_MERGE|SHF_STRINGS,1
	0x17b3		
.debug_str	0x5ff78	0x1f	common\libs\txm_lib.lib(txm_module_thread_shell_entry.o)	#SHT_PROGBITS,SHF_MERGE|SHF_STRINGS,1
	0x17d2		
.debug_str	0x5ff97	0x1f	common\libs\txm_lib.lib(txm_module_thread_shell_entry.o)	#SHT_PROGBITS,SHF_MERGE|SHF_STRINGS,1
	0x17f1		
.debug_str	0x5ffb6	0x21	common\libs\txm_lib.lib(txm_module_thread_shell_entry.o)	#SHT_PROGBITS,SHF_MERGE|SHF_STRINGS,1
	0x1810		
.debug_str	0x5ffd7	0x20	common\libs\txm_lib.lib(txm_module_thread_shell_entry.o)	#SHT_PROGBITS,SHF_MERGE|SHF_STRINGS,1
	0x1831		
.debug_str	0x5fff7	0x20	common\libs\txm_lib.lib(txm_module_thread_shell_entry.o)	#SHT_PROGBITS,SHF_MERGE|SHF_STRINGS,1
	0x1851		
.debug_str	0x60017	0x20	common\libs\txm_lib.lib(txm_module_thread_shell_entry.o)	#SHT_PROGBITS,SHF_MERGE|SHF_STRINGS,1
	0x1871		
.debug_str	0x60037	0x20	common\libs\txm_lib.lib(txm_module_thread_shell_entry.o)	#SHT_PROGBITS,SHF_MERGE|SHF_STRINGS,1
	0x1891		
.debug_str	0x60057	0x1d	common\libs\txm_lib.lib(txm_module_thread_shell_entry.o)	#SHT_PROGBITS,SHF_MERGE|SHF_STRINGS,1
	0x18b1		
.debug_str	0x60074	0x1b	common\libs\txm_lib.lib(txm_module_thread_shell_entry.o)	#SHT_PROGBITS,SHF_MERGE|SHF_STRINGS,1
	0x18ce		
.debug_str	0x6008f	0x14	common\libs\txm_lib.lib(txm_module_thread_shell_entry.o)	#SHT_PROGBITS,SHF_MERGE|SHF_STRINGS,1
	0x18e9		
.debug_str	0x600a3	0x29	common\libs\txm_lib.lib(txm_module_thread_shell_entry.o)	#SHT_PROGBITS,SHF_MERGE|SHF_STRINGS,1
	0x18fd		
.debug_str	0x600cc	0x27	common\libs\txm_lib.lib(txm_module_thread_shell_entry.o)	#SHT_PROGBITS,SHF_MERGE|SHF_STRINGS,1
	0x1926		
.debug_str	0x600f3	0x26	common\libs\txm_lib.lib(txm_module_thread_shell_entry.o)	#SHT_PROGBITS,SHF_MERGE|SHF_STRINGS,1
	0x194d		
.debug_str	0x60119	0x32	common\libs\txm_lib.lib(txm_module_thread_shell_entry.o)	#SHT_PROGBITS,SHF_MERGE|SHF_STRINGS,1
	0x1973		
.debug_str	0x6014b	0x19	common\libs\txm_lib.lib(txm_module_thread_shell_entry.o)	#SHT_PROGBITS,SHF_MERGE|SHF_STRINGS,1
	0x19a5		
.debug_str	0x60164	0x18	common\libs\txm_lib.lib(txm_module_thread_shell_entry.o)	#SHT_PROGBITS,SHF_MERGE|SHF_STRINGS,1
	0x19be		
.debug_str	0x6017c	0x1e	common\libs\txm_lib.lib(txm_module_thread_shell_entry.o)	#SHT_PROGBITS,SHF_MERGE|SHF_STRINGS,1
	0x19d6		
.debug_str	0x6019a	0x1e	common\libs\txm_lib.lib(txm_module_thread_shell_entry.o)	#SHT_PROGBITS,SHF_MERGE|SHF_STRINGS,1
	0x19f4		
.debug_str	0x601b8	0x15	common\libs\txm_lib.lib(txm_module_thread_shell_entry.o)	#SHT_PROGBITS,SHF_MERGE|SHF_STRINGS,1
	0x1a12		
.debug_str	0x601cd	0x14	common\libs\txm_lib.lib(txm_module_thread_shell_entry.o)	#SHT_PROGBITS,SHF_MERGE|SHF_STRINGS,1
	0x1a27		
.debug_str	0x601e1	0x23	common\libs\txm_lib.lib(txm_module_thread_shell_entry.o)	#SHT_PROGBITS,SHF_MERGE|SHF_STRINGS,1
	0x1a3b		
.debug_str	0x60204	0x21	common\libs\txm_lib.lib(txm_module_thread_shell_entry.o)	#SHT_PROGBITS,SHF_MERGE|SHF_STRINGS,1
	0x1a5e		
.debug_str	0x60225	0x26	common\libs\txm_lib.lib(txm_module_thread_shell_entry.o)	#SHT_PROGBITS,SHF_MERGE|SHF_STRINGS,1
	0x1a7f		
.debug_str	0x6024b	0x2c	common\libs\txm_lib.lib(txm_module_thread_shell_entry.o)	#SHT_PROGBITS,SHF_MERGE|SHF_STRINGS,1
	0x1aa5		
.debug_str	0x60277	0x2b	common\libs\txm_lib.lib(txm_module_thread_shell_entry.o)	#SHT_PROGBITS,SHF_MERGE|SHF_STRINGS,1
	0x1ad1		
.debug_str	0x602a2	0xc	common\libs\txm_lib.lib(txm_module_thread_shell_entry.o)	#SHT_PROGBITS,SHF_MERGE|SHF_STRINGS,1
	0x1afc		
.debug_str	0x602ae	0xe	common\libs\txm_lib.lib(txm_module_thread_shell_entry.o)	#SHT_PROGBITS,SHF_MERGE|SHF_STRINGS,1
	0x1b08		
.debug_str	0x602bc	0x16	common\libs\txm_lib.lib(txm_module_thread_shell_entry.o)	#SHT_PROGBITS,SHF_MERGE|SHF_STRINGS,1
	0x1b16		
.debug_str	0x602d2	0x12	common\libs\txm_lib.lib(txm_module_thread_shell_entry.o)	#SHT_PROGBITS,SHF_MERGE|SHF_STRINGS,1
	0x1b2c		
.debug_str	0x602e4	0x12	common\libs\txm_lib.lib(txm_module_thread_shell_entry.o)	#SHT_PROGBITS,SHF_MERGE|SHF_STRINGS,1
	0x1b3e		
.debug_str	0x602f6	0x1b	common\libs\txm_lib.lib(txm_module_thread_shell_entry.o)	#SHT_PROGBITS,SHF_MERGE|SHF_STRINGS,1
	0x1b50		
.debug_str	0x60311	0xf	common\libs\txm_lib.lib(txm_module_thread_shell_entry.o)	#SHT_PROGBITS,SHF_MERGE|SHF_STRINGS,1
	0x1b6b		
.debug_str	0x60320	0xd	common\libs\txm_lib.lib(txm_module_thread_shell_entry.o)	#SHT_PROGBITS,SHF_MERGE|SHF_STRINGS,1
	0x1b7a		
.debug_str	0x6032d	0xe	common\libs\txm_lib.lib(txm_module_thread_shell_entry.o)	#SHT_PROGBITS,SHF_MERGE|SHF_STRINGS,1
	0x1b87		
.debug_str	0x6033b	0xf	common\libs\txm_lib.lib(txm_module_thread_shell_entry.o)	#SHT_PROGBITS,SHF_MERGE|SHF_STRINGS,1
	0x1b95		
.debug_str	0x6034a	0x19	common\libs\txm_lib.lib(txm_module_thread_shell_entry.o)	#SHT_PROGBITS,SHF_MERGE|SHF_STRINGS,1
	0x1ba4		
.debug_str	0x60363	0x19	common\libs\txm_lib.lib(txm_module_thread_shell_entry.o)	#SHT_PROGBITS,SHF_MERGE|SHF_STRINGS,1
	0x1bbd		
.debug_str	0x6037c	0x16	common\libs\txm_lib.lib(txm_module_thread_shell_entry.o)	#SHT_PROGBITS,SHF_MERGE|SHF_STRINGS,1
	0x1bd6		
.debug_str	0x60392	0x1a	common\libs\txm_lib.lib(txm_module_thread_shell_entry.o)	#SHT_PROGBITS,SHF_MERGE|SHF_STRINGS,1
	0x1bec		
.debug_str	0x603ac	0x19	common\libs\txm_lib.lib(txm_module_thread_shell_entry.o)	#SHT_PROGBITS,SHF_MERGE|SHF_STRINGS,1
	0x1c06		
.debug_str	0x603c5	0x1c	common\libs\txm_lib.lib(txm_module_thread_shell_entry.o)	#SHT_PROGBITS,SHF_MERGE|SHF_STRINGS,1
	0x1c1f		
.debug_str	0x603e1	0x10	common\libs\txm_lib.lib(txm_module_thread_shell_entry.o)	#SHT_PROGBITS,SHF_MERGE|SHF_STRINGS,1
	0x1c3b		
.debug_str	0x603f1	0x9	common\libs\txm_lib.lib(txm_module_thread_shell_entry.o)	#SHT_PROGBITS,SHF_MERGE|SHF_STRINGS,1
	0x1c4b		
.debug_str	0x603fa	0x30	common\libs\txm_lib.lib(txm_module_thread_shell_entry.o)	#SHT_PROGBITS,SHF_MERGE|SHF_STRINGS,1
	0x1c54		
.debug_str	0x6042a	0x2a	common\libs\txm_lib.lib(txm_module_thread_shell_entry.o)	#SHT_PROGBITS,SHF_MERGE|SHF_STRINGS,1
	0x1c84		
.debug_str	0x60454	0x28	common\libs\txm_lib.lib(txm_module_thread_shell_entry.o)	#SHT_PROGBITS,SHF_MERGE|SHF_STRINGS,1
	0x1cae		
.debug_str	0x6047c	0x28	common\libs\txm_lib.lib(txm_module_thread_shell_entry.o)	#SHT_PROGBITS,SHF_MERGE|SHF_STRINGS,1
	0x1cd6		
.debug_str	0x604a4	0x26	common\libs\txm_lib.lib(txm_module_thread_shell_entry.o)	#SHT_PROGBITS,SHF_MERGE|SHF_STRINGS,1
	0x1cfe		
.debug_str	0x604ca	0x2a	common\libs\txm_lib.lib(txm_module_thread_shell_entry.o)	#SHT_PROGBITS,SHF_MERGE|SHF_STRINGS,1
	0x1d24		
.debug_str	0x604f4	0x25	common\libs\txm_lib.lib(txm_module_thread_shell_entry.o)	#SHT_PROGBITS,SHF_MERGE|SHF_STRINGS,1
	0x1d4e		
.debug_str	0x60519	0x25	common\libs\txm_lib.lib(txm_module_thread_shell_entry.o)	#SHT_PROGBITS,SHF_MERGE|SHF_STRINGS,1
	0x1d73		
.debug_str	0x6053e	0x2c	common\libs\txm_lib.lib(txm_module_thread_shell_entry.o)	#SHT_PROGBITS,SHF_MERGE|SHF_STRINGS,1
	0x1d98		
.debug_str	0x6056a	0x21	common\libs\txm_lib.lib(txm_module_thread_shell_entry.o)	#SHT_PROGBITS,SHF_MERGE|SHF_STRINGS,1
	0x1dc4		
.debug_str	0x6058b	0x25	common\libs\txm_lib.lib(txm_module_thread_shell_entry.o)	#SHT_PROGBITS,SHF_MERGE|SHF_STRINGS,1
	0x1de5		
.debug_str	0x605b0	0x17	common\libs\txm_lib.lib(txm_module_thread_shell_entry.o)	#SHT_PROGBITS,SHF_MERGE|SHF_STRINGS,1
	0x1e0a		
.debug_str	0x605c7	0x23	common\libs\txm_lib.lib(txm_module_thread_shell_entry.o)	#SHT_PROGBITS,SHF_MERGE|SHF_STRINGS,1
	0x1e21		
.debug_str	0x605ea	0x26	common\libs\txm_lib.lib(txm_module_thread_shell_entry.o)	#SHT_PROGBITS,SHF_MERGE|SHF_STRINGS,1
	0x1e44		
.debug_str	0x60610	0x20	common\libs\txm_lib.lib(txm_module_thread_shell_entry.o)	#SHT_PROGBITS,SHF_MERGE|SHF_STRINGS,1
	0x1e6a		
.debug_str	0x60630	0x24	common\libs\txm_lib.lib(txm_module_thread_shell_entry.o)	#SHT_PROGBITS,SHF_MERGE|SHF_STRINGS,1
	0x1e8a		
.debug_str	0x60654	0x1b	common\libs\txm_lib.lib(txm_module_thread_shell_entry.o)	#SHT_PROGBITS,SHF_MERGE|SHF_STRINGS,1
	0x1eae		
.debug_str	0x6066f	0x14	common\libs\txm_lib.lib(txm_module_thread_shell_entry.o)	#SHT_PROGBITS,SHF_MERGE|SHF_STRINGS,1
	0x1ec9		
.debug_str	0x60683	0x2f	common\libs\txm_lib.lib(txm_module_thread_shell_entry.o)	#SHT_PROGBITS,SHF_MERGE|SHF_STRINGS,1
	0x1edd		
.debug_str	0x606b2	0x2f	common\libs\txm_lib.lib(txm_module_thread_shell_entry.o)	#SHT_PROGBITS,SHF_MERGE|SHF_STRINGS,1
	0x1f0c		
.debug_str	0x606e1	0x23	common\libs\txm_lib.lib(txm_module_thread_shell_entry.o)	#SHT_PROGBITS,SHF_MERGE|SHF_STRINGS,1
	0x1f3b		
.debug_str	0x60704	0x27	common\libs\txm_lib.lib(txm_module_thread_shell_entry.o)	#SHT_PROGBITS,SHF_MERGE|SHF_STRINGS,1
	0x1f5e		
.debug_str	0x6072b	0x29	common\libs\txm_lib.lib(txm_module_thread_shell_entry.o)	#SHT_PROGBITS,SHF_MERGE|SHF_STRINGS,1
	0x1f85		
.debug_str	0x60754	0x2a	common\libs\txm_lib.lib(txm_module_thread_shell_entry.o)	#SHT_PROGBITS,SHF_MERGE|SHF_STRINGS,1
	0x1fae		
.debug_str	0x6077e	0x35	common\libs\txm_lib.lib(txm_module_thread_shell_entry.o)	#SHT_PROGBITS,SHF_MERGE|SHF_STRINGS,1
	0x1fd8		
.debug_str	0x607b3	0x34	common\libs\txm_lib.lib(txm_module_thread_shell_entry.o)	#SHT_PROGBITS,SHF_MERGE|SHF_STRINGS,1
	0x200d		
.debug_str	0x607e7	0x26	common\libs\txm_lib.lib(txm_module_thread_shell_entry.o)	#SHT_PROGBITS,SHF_MERGE|SHF_STRINGS,1
	0x2041		
.debug_str	0x6080d	0x34	common\libs\txm_lib.lib(txm_module_thread_shell_entry.o)	#SHT_PROGBITS,SHF_MERGE|SHF_STRINGS,1
	0x2067		
.debug_str	0x60841	0x24	common\libs\txm_lib.lib(txm_module_thread_shell_entry.o)	#SHT_PROGBITS,SHF_MERGE|SHF_STRINGS,1
	0x209b		
.debug_str	0x60865	0x1d	common\libs\txm_lib.lib(txm_module_thread_shell_entry.o)	#SHT_PROGBITS,SHF_MERGE|SHF_STRINGS,1
	0x20bf		
.debug_str	0x60882	0x23	common\libs\txm_lib.lib(txm_module_thread_shell_entry.o)	#SHT_PROGBITS,SHF_MERGE|SHF_STRINGS,1
	0x20dc		
.debug_str	0x608a5	0x5	common\libs\txm_lib.lib(txm_module_thread_shell_entry.o)	#SHT_PROGBITS,SHF_MERGE|SHF_STRINGS,1
	0x20ff		
.debug_str	0x608aa	0x17	common\libs\txm_lib.lib(txm_module_thread_shell_entry.o)	#SHT_PROGBITS,SHF_MERGE|SHF_STRINGS,1
	0x2104		
.debug_str	0x608c1	0x1f	common\libs\txm_lib.lib(txm_module_thread_shell_entry.o)	#SHT_PROGBITS,SHF_MERGE|SHF_STRINGS,1
	0x211b		
.debug_str	0x608e0	0xb	common\libs\txm_lib.lib(txm_module_thread_shell_entry.o)	#SHT_PROGBITS,SHF_MERGE|SHF_STRINGS,1
	0x213a		
.debug_str	0x608eb	0xc	common\libs\txm_lib.lib(txm_module_thread_shell_entry.o)	#SHT_PROGBITS,SHF_MERGE|SHF_STRINGS,1
	0x2145		
.debug_str	0x608f7	0xb4	common\libs\txm_lib.lib(txm_module_callback_request_thread_entry.o)	#SHT_PROGBITS,SHF_MERGE|SHF_STRINGS,1
	0x2151		
.debug_str	0x609ab	0x18	common\libs\txm_lib.lib(txm_module_callback_request_thread_entry.o)	#SHT_PROGBITS,SHF_MERGE|SHF_STRINGS,1
	0x2205		
.debug_str	0x609c3	0x1a	common\libs\txm_lib.lib(txm_module_callback_request_thread_entry.o)	#SHT_PROGBITS,SHF_MERGE|SHF_STRINGS,1
	0x221d		
.debug_str	0x609dd	0x1d	common\libs\txm_lib.lib(txm_module_callback_request_thread_entry.o)	#SHT_PROGBITS,SHF_MERGE|SHF_STRINGS,1
	0x2237		
.debug_str	0x609fa	0x22	common\libs\txm_lib.lib(txm_module_callback_request_thread_entry.o)	#SHT_PROGBITS,SHF_MERGE|SHF_STRINGS,1
	0x2254		
.debug_str	0x60a1c	0x25	common\libs\txm_lib.lib(txm_module_callback_request_thread_entry.o)	#SHT_PROGBITS,SHF_MERGE|SHF_STRINGS,1
	0x2276		
.debug_str	0x60a41	0x25	common\libs\txm_lib.lib(txm_module_callback_request_thread_entry.o)	#SHT_PROGBITS,SHF_MERGE|SHF_STRINGS,1
	0x229b		
.debug_str	0x60a66	0x22	common\libs\txm_lib.lib(txm_module_callback_request_thread_entry.o)	#SHT_PROGBITS,SHF_MERGE|SHF_STRINGS,1
	0x22c0		
.debug_str	0x60a88	0x26	common\libs\txm_lib.lib(txm_module_callback_request_thread_entry.o)	#SHT_PROGBITS,SHF_MERGE|SHF_STRINGS,1
	0x22e2		
.debug_str	0x60aae	0x23	common\libs\txm_lib.lib(txm_module_callback_request_thread_entry.o)	#SHT_PROGBITS,SHF_MERGE|SHF_STRINGS,1
	0x2308		
.debug_str	0x60ad1	0x25	common\libs\txm_lib.lib(txm_module_callback_request_thread_entry.o)	#SHT_PROGBITS,SHF_MERGE|SHF_STRINGS,1
	0x232b		
.debug_str	0x60af6	0x27	common\libs\txm_lib.lib(txm_module_callback_request_thread_entry.o)	#SHT_PROGBITS,SHF_MERGE|SHF_STRINGS,1
	0x2350		
.debug_str	0x60b1d	0x1c	common\libs\txm_lib.lib(txm_module_callback_request_thread_entry.o)	#SHT_PROGBITS,SHF_MERGE|SHF_STRINGS,1
	0x2377		
.debug_str	0x60b39	0x15	common\libs\txm_lib.lib(txm_module_callback_request_thread_entry.o)	#SHT_PROGBITS,SHF_MERGE|SHF_STRINGS,1
	0x2393		
.debug_str	0x60b4e	0x10	common\libs\txm_lib.lib(txm_module_callback_request_thread_entry.o)	#SHT_PROGBITS,SHF_MERGE|SHF_STRINGS,1
	0x23a8		
.debug_str	0x60b5e	0x12	common\libs\txm_lib.lib(txm_module_callback_request_thread_entry.o)	#SHT_PROGBITS,SHF_MERGE|SHF_STRINGS,1
	0x23b8		
.debug_str	0x60b70	0x13	common\libs\txm_lib.lib(txm_module_callback_request_thread_entry.o)	#SHT_PROGBITS,SHF_MERGE|SHF_STRINGS,1
	0x23ca		
.debug_str	0x60b83	0x1d	common\libs\txm_lib.lib(txm_module_callback_request_thread_entry.o)	#SHT_PROGBITS,SHF_MERGE|SHF_STRINGS,1
	0x23dd		
.debug_str	0x60ba0	0x1d	common\libs\txm_lib.lib(txm_module_callback_request_thread_entry.o)	#SHT_PROGBITS,SHF_MERGE|SHF_STRINGS,1
	0x23fa		
.debug_str	0x60bbd	0x1a	common\libs\txm_lib.lib(txm_module_callback_request_thread_entry.o)	#SHT_PROGBITS,SHF_MERGE|SHF_STRINGS,1
	0x2417		
.debug_str	0x60bd7	0x1e	common\libs\txm_lib.lib(txm_module_callback_request_thread_entry.o)	#SHT_PROGBITS,SHF_MERGE|SHF_STRINGS,1
	0x2431		
.debug_str	0x60bf5	0x1d	common\libs\txm_lib.lib(txm_module_callback_request_thread_entry.o)	#SHT_PROGBITS,SHF_MERGE|SHF_STRINGS,1
	0x244f		
.debug_str	0x60c12	0x1f	common\libs\txm_lib.lib(txm_module_callback_request_thread_entry.o)	#SHT_PROGBITS,SHF_MERGE|SHF_STRINGS,1
	0x246c		
.debug_str	0x60c31	0x14	common\libs\txm_lib.lib(txm_module_callback_request_thread_entry.o)	#SHT_PROGBITS,SHF_MERGE|SHF_STRINGS,1
	0x248b		
.debug_str	0x60c45	0xd	common\libs\txm_lib.lib(txm_module_callback_request_thread_entry.o)	#SHT_PROGBITS,SHF_MERGE|SHF_STRINGS,1
	0x249f		
.debug_str	0x60c52	0x18	common\libs\txm_lib.lib(txm_module_callback_request_thread_entry.o)	#SHT_PROGBITS,SHF_MERGE|SHF_STRINGS,1
	0x24ac		
.debug_str	0x60c6a	0x2a	common\libs\txm_lib.lib(txm_module_callback_request_thread_entry.o)	#SHT_PROGBITS,SHF_MERGE|SHF_STRINGS,1
	0x24c4		
.debug_str	0x60c94	0x3	common\libs\txm_lib.lib(txm_module_callback_request_thread_entry.o)	#SHT_PROGBITS,SHF_MERGE|SHF_STRINGS,1
	0x24ee		
.debug_str	0x60c97	0xe	common\libs\txm_lib.lib(txm_module_callback_request_thread_entry.o)	#SHT_PROGBITS,SHF_MERGE|SHF_STRINGS,1
	0x24f1		
.debug_str	0x60ca5	0x11	common\libs\txm_lib.lib(txm_module_callback_request_thread_entry.o)	#SHT_PROGBITS,SHF_MERGE|SHF_STRINGS,1
	0x24ff		
.debug_str	0x60cb6	0xf	common\libs\txm_lib.lib(txm_module_callback_request_thread_entry.o)	#SHT_PROGBITS,SHF_MERGE|SHF_STRINGS,1
	0x2510		
.debug_str	0x60cc5	0x19	common\libs\txm_lib.lib(txm_module_callback_request_thread_entry.o)	#SHT_PROGBITS,SHF_MERGE|SHF_STRINGS,1
	0x251f		
.debug_str	0x60cde	0x12	common\libs\txm_lib.lib(txm_module_callback_request_thread_entry.o)	#SHT_PROGBITS,SHF_MERGE|SHF_STRINGS,1
	0x2538		
.debug_str	0x60cf0	0x11	common\libs\txm_lib.lib(txm_module_callback_request_thread_entry.o)	#SHT_PROGBITS,SHF_MERGE|SHF_STRINGS,1
	0x254a		
.debug_str	0x60d01	0x21	common\libs\txm_lib.lib(txm_module_callback_request_thread_entry.o)	#SHT_PROGBITS,SHF_MERGE|SHF_STRINGS,1
	0x255b		
.debug_str	0x60d22	0x2d	common\libs\txm_lib.lib(txm_module_callback_request_thread_entry.o)	#SHT_PROGBITS,SHF_MERGE|SHF_STRINGS,1
	0x257c		
.debug_str	0x60d4f	0x1a	common\libs\txm_lib.lib(txm_module_callback_request_thread_entry.o)	#SHT_PROGBITS,SHF_MERGE|SHF_STRINGS,1
	0x25a9		
.debug_str	0x60d69	0x24	common\libs\txm_lib.lib(txm_module_callback_request_thread_entry.o)	#SHT_PROGBITS,SHF_MERGE|SHF_STRINGS,1
	0x25c3		
.debug_str	0x60d8d	0x21	common\libs\txm_lib.lib(txm_module_callback_request_thread_entry.o)	#SHT_PROGBITS,SHF_MERGE|SHF_STRINGS,1
	0x25e7		
.debug_str	0x60dae	0x19	common\libs\txm_lib.lib(txm_module_callback_request_thread_entry.o)	#SHT_PROGBITS,SHF_MERGE|SHF_STRINGS,1
	0x2608		
.debug_str	0x60dc7	0x1d	common\libs\txm_lib.lib(txm_module_callback_request_thread_entry.o)	#SHT_PROGBITS,SHF_MERGE|SHF_STRINGS,1
	0x2621		
.debug_str	0x60de4	0x31	common\libs\txm_lib.lib(txm_module_callback_request_thread_entry.o)	#SHT_PROGBITS,SHF_MERGE|SHF_STRINGS,1
	0x263e		
.debug_str	0x60e15	0x24	common\libs\txm_lib.lib(txm_module_callback_request_thread_entry.o)	#SHT_PROGBITS,SHF_MERGE|SHF_STRINGS,1
	0x266f		
.debug_str	0x60e39	0x24	common\libs\txm_lib.lib(txm_module_callback_request_thread_entry.o)	#SHT_PROGBITS,SHF_MERGE|SHF_STRINGS,1
	0x2693		
.debug_str	0x60e5d	0x24	common\libs\txm_lib.lib(txm_module_callback_request_thread_entry.o)	#SHT_PROGBITS,SHF_MERGE|SHF_STRINGS,1
	0x26b7		
.debug_str	0x60e81	0x24	common\libs\txm_lib.lib(txm_module_callback_request_thread_entry.o)	#SHT_PROGBITS,SHF_MERGE|SHF_STRINGS,1
	0x26db		
.debug_str	0x60ea5	0x24	common\libs\txm_lib.lib(txm_module_callback_request_thread_entry.o)	#SHT_PROGBITS,SHF_MERGE|SHF_STRINGS,1
	0x26ff		
.debug_str	0x60ec9	0x24	common\libs\txm_lib.lib(txm_module_callback_request_thread_entry.o)	#SHT_PROGBITS,SHF_MERGE|SHF_STRINGS,1
	0x2723		
.debug_str	0x60eed	0x24	common\libs\txm_lib.lib(txm_module_callback_request_thread_entry.o)	#SHT_PROGBITS,SHF_MERGE|SHF_STRINGS,1
	0x2747		
.debug_str	0x60f11	0x24	common\libs\txm_lib.lib(txm_module_callback_request_thread_entry.o)	#SHT_PROGBITS,SHF_MERGE|SHF_STRINGS,1
	0x276b		
.debug_str	0x60f35	0x26	common\libs\txm_lib.lib(txm_module_callback_request_thread_entry.o)	#SHT_PROGBITS,SHF_MERGE|SHF_STRINGS,1
	0x278f		
.debug_str	0x60f5b	0x26	common\libs\txm_lib.lib(txm_module_callback_request_thread_entry.o)	#SHT_PROGBITS,SHF_MERGE|SHF_STRINGS,1
	0x27b5		
.debug_str	0x60f81	0x23	common\libs\txm_lib.lib(txm_module_callback_request_thread_entry.o)	#SHT_PROGBITS,SHF_MERGE|SHF_STRINGS,1
	0x27db		
.debug_str	0x60fa4	0x1c	common\libs\txm_lib.lib(txm_module_callback_request_thread_entry.o)	#SHT_PROGBITS,SHF_MERGE|SHF_STRINGS,1
	0x27fe		
.debug_str	0x60fc0	0x12	common\libs\txm_lib.lib(txm_module_callback_request_thread_entry.o)	#SHT_PROGBITS,SHF_MERGE|SHF_STRINGS,1
	0x281a		
.debug_str	0x60fd2	0x15	common\libs\txm_lib.lib(txm_module_callback_request_thread_entry.o)	#SHT_PROGBITS,SHF_MERGE|SHF_STRINGS,1
	0x282c		
.debug_str	0x60fe7	0x12	common\libs\txm_lib.lib(txm_module_callback_request_thread_entry.o)	#SHT_PROGBITS,SHF_MERGE|SHF_STRINGS,1
	0x2841		
.debug_str	0x60ff9	0xa4	common\libs\txm_lib.lib(txm_module_system_call11.o)	#SHT_PROGBITS,SHF_MERGE|SHF_STRINGS,1
	0x2853		
.debug_str	0x6109d	0x1a	common\libs\txm_lib.lib(txm_module_system_call11.o)	#SHT_PROGBITS,SHF_MERGE|SHF_STRINGS,1
	0x28f7		
.debug_str	0x610b7	0x11	common\libs\txm_lib.lib(txm_module_system_call11.o)	#SHT_PROGBITS,SHF_MERGE|SHF_STRINGS,1
	0x2911		
.debug_str	0x610c8	0x8	common\libs\txm_lib.lib(txm_module_system_call11.o)	#SHT_PROGBITS,SHF_MERGE|SHF_STRINGS,1
	0x2922		
.debug_str	0x610d0	0x8	common\libs\txm_lib.lib(txm_module_system_call11.o)	#SHT_PROGBITS,SHF_MERGE|SHF_STRINGS,1
	0x292a		
.debug_str	0x610d8	0x8	common\libs\txm_lib.lib(txm_module_system_call11.o)	#SHT_PROGBITS,SHF_MERGE|SHF_STRINGS,1
	0x2932		
.debug_str	0x610e0	0x8	common\libs\txm_lib.lib(txm_module_system_call11.o)	#SHT_PROGBITS,SHF_MERGE|SHF_STRINGS,1
	0x293a		
.debug_str	0x610e8	0x8	common\libs\txm_lib.lib(txm_module_system_call11.o)	#SHT_PROGBITS,SHF_MERGE|SHF_STRINGS,1
	0x2942		
.debug_str	0x610f0	0x8	common\libs\txm_lib.lib(txm_module_system_call11.o)	#SHT_PROGBITS,SHF_MERGE|SHF_STRINGS,1
	0x294a		
.debug_str	0x610f8	0x8	common\libs\txm_lib.lib(txm_module_system_call11.o)	#SHT_PROGBITS,SHF_MERGE|SHF_STRINGS,1
	0x2952		
.debug_str	0x61100	0x8	common\libs\txm_lib.lib(txm_module_system_call11.o)	#SHT_PROGBITS,SHF_MERGE|SHF_STRINGS,1
	0x295a		
.debug_str	0x61108	0x8	common\libs\txm_lib.lib(txm_module_system_call11.o)	#SHT_PROGBITS,SHF_MERGE|SHF_STRINGS,1
	0x2962		
.debug_str	0x61110	0x8	common\libs\txm_lib.lib(txm_module_system_call11.o)	#SHT_PROGBITS,SHF_MERGE|SHF_STRINGS,1
	0x296a		
.debug_str	0x61118	0x9	common\libs\txm_lib.lib(txm_module_system_call11.o)	#SHT_PROGBITS,SHF_MERGE|SHF_STRINGS,1
	0x2972		
.debug_str	0x61121	0x9	common\libs\txm_lib.lib(txm_module_system_call11.o)	#SHT_PROGBITS,SHF_MERGE|SHF_STRINGS,1
	0x297b		
.debug_str	0x6112a	0xd	common\libs\txm_lib.lib(txm_module_system_call11.o)	#SHT_PROGBITS,SHF_MERGE|SHF_STRINGS,1
	0x2984		
.debug_str	0x61137	0xa4	common\libs\txm_lib.lib(txm_module_system_call12.o)	#SHT_PROGBITS,SHF_MERGE|SHF_STRINGS,1
	0x2991		
.debug_str	0x611db	0x1a	common\libs\txm_lib.lib(txm_module_system_call12.o)	#SHT_PROGBITS,SHF_MERGE|SHF_STRINGS,1
	0x2a35		
.debug_str	0x611f5	0x9	common\libs\txm_lib.lib(txm_module_system_call12.o)	#SHT_PROGBITS,SHF_MERGE|SHF_STRINGS,1
	0x2a4f		
.debug_str	0x611fe	0xa0	common\libs\txm_lib.lib(txm_byte_pool_create.o)	#SHT_PROGBITS,SHF_MERGE|SHF_STRINGS,1
	0x2a58		
.debug_str	0x6129e	0x16	common\libs\txm_lib.lib(txm_byte_pool_create.o)	#SHT_PROGBITS,SHF_MERGE|SHF_STRINGS,1
	0x2af8		
.debug_str	0x612b4	0x9	common\libs\txm_lib.lib(txm_byte_pool_create.o)	#SHT_PROGBITS,SHF_MERGE|SHF_STRINGS,1
	0x2b0e		
.debug_str	0x612bd	0x10	common\libs\txm_lib.lib(txm_byte_pool_create.o)	#SHT_PROGBITS,SHF_MERGE|SHF_STRINGS,1
	0x2b17		
.debug_str	0x612cd	0x12	common\libs\txm_lib.lib(txm_byte_pool_create.o)	#SHT_PROGBITS,SHF_MERGE|SHF_STRINGS,1
	0x2b27		
.debug_str	0x612df	0x17	common\libs\txm_lib.lib(txm_byte_pool_create.o)	#SHT_PROGBITS,SHF_MERGE|SHF_STRINGS,1
	0x2b39		
.debug_str	0x612f6	0x17	common\libs\txm_lib.lib(txm_byte_pool_create.o)	#SHT_PROGBITS,SHF_MERGE|SHF_STRINGS,1
	0x2b50		
.debug_str	0x6130d	0x12	common\libs\txm_lib.lib(txm_byte_pool_create.o)	#SHT_PROGBITS,SHF_MERGE|SHF_STRINGS,1
	0x2b67		
.debug_str	0x6131f	0x14	common\libs\txm_lib.lib(txm_byte_pool_create.o)	#SHT_PROGBITS,SHF_MERGE|SHF_STRINGS,1
	0x2b79		
.debug_str	0x61333	0x13	common\libs\txm_lib.lib(txm_byte_pool_create.o)	#SHT_PROGBITS,SHF_MERGE|SHF_STRINGS,1
	0x2b8d		
.debug_str	0x61346	0x12	common\libs\txm_lib.lib(txm_byte_pool_create.o)	#SHT_PROGBITS,SHF_MERGE|SHF_STRINGS,1
	0x2ba0		
.debug_str	0x61358	0x13	common\libs\txm_lib.lib(txm_byte_pool_create.o)	#SHT_PROGBITS,SHF_MERGE|SHF_STRINGS,1
	0x2bb2		
.debug_str	0x6136b	0x1d	common\libs\txm_lib.lib(txm_byte_pool_create.o)	#SHT_PROGBITS,SHF_MERGE|SHF_STRINGS,1
	0x2bc5		
.debug_str	0x61388	0x1d	common\libs\txm_lib.lib(txm_byte_pool_create.o)	#SHT_PROGBITS,SHF_MERGE|SHF_STRINGS,1
	0x2be2		
.debug_str	0x613a5	0x1a	common\libs\txm_lib.lib(txm_byte_pool_create.o)	#SHT_PROGBITS,SHF_MERGE|SHF_STRINGS,1
	0x2bff		
.debug_str	0x613bf	0x1e	common\libs\txm_lib.lib(txm_byte_pool_create.o)	#SHT_PROGBITS,SHF_MERGE|SHF_STRINGS,1
	0x2c19		
.debug_str	0x613dd	0x14	common\libs\txm_lib.lib(txm_byte_pool_create.o)	#SHT_PROGBITS,SHF_MERGE|SHF_STRINGS,1
	0x2c37		
.debug_str	0x613f1	0xd	common\libs\txm_lib.lib(txm_byte_pool_create.o)	#SHT_PROGBITS,SHF_MERGE|SHF_STRINGS,1
	0x2c4b		
.debug_str	0x613fe	0x9	common\libs\txm_lib.lib(txm_byte_pool_create.o)	#SHT_PROGBITS,SHF_MERGE|SHF_STRINGS,1
	0x2c58		
.debug_str	0x61407	0xb	common\libs\txm_lib.lib(txm_byte_pool_create.o)	#SHT_PROGBITS,SHF_MERGE|SHF_STRINGS,1
	0x2c61		
.debug_str	0x61412	0xa	common\libs\txm_lib.lib(txm_byte_pool_create.o)	#SHT_PROGBITS,SHF_MERGE|SHF_STRINGS,1
	0x2c6c		
.debug_str	0x6141c	0x18	common\libs\txm_lib.lib(txm_byte_pool_create.o)	#SHT_PROGBITS,SHF_MERGE|SHF_STRINGS,1
	0x2c76		
.debug_str	0x61434	0x9d	common\libs\txm_lib.lib(txm_byte_allocate.o)	#SHT_PROGBITS,SHF_MERGE|SHF_STRINGS,1
	0x2c8e		
.debug_str	0x614d1	0x13	common\libs\txm_lib.lib(txm_byte_allocate.o)	#SHT_PROGBITS,SHF_MERGE|SHF_STRINGS,1
	0x2d2b		
.debug_str	0x614e4	0xb	common\libs\txm_lib.lib(txm_byte_allocate.o)	#SHT_PROGBITS,SHF_MERGE|SHF_STRINGS,1
	0x2d3e		
.debug_str	0x614ef	0xc	common\libs\txm_lib.lib(txm_byte_allocate.o)	#SHT_PROGBITS,SHF_MERGE|SHF_STRINGS,1
	0x2d49		
.debug_str	0x614fb	0xc	common\libs\txm_lib.lib(txm_byte_allocate.o)	#SHT_PROGBITS,SHF_MERGE|SHF_STRINGS,1
	0x2d55		
.debug_str	0x61507	0x9c	common\libs\txm_lib.lib(txm_byte_release.o)	#SHT_PROGBITS,SHF_MERGE|SHF_STRINGS,1
	0x2d61		
.debug_str	0x615a3	0x12	common\libs\txm_lib.lib(txm_byte_release.o)	#SHT_PROGBITS,SHF_MERGE|SHF_STRINGS,1
	0x2dfd		
.debug_str	0x615b5	0xa2	common\libs\txm_lib.lib(txm_event_flags_create.o)	#SHT_PROGBITS,SHF_MERGE|SHF_STRINGS,1
	0x2e0f		
.debug_str	0x61657	0x18	common\libs\txm_lib.lib(txm_event_flags_create.o)	#SHT_PROGBITS,SHF_MERGE|SHF_STRINGS,1
	0x2eb1		
.debug_str	0x6166f	0xa	common\libs\txm_lib.lib(txm_event_flags_create.o)	#SHT_PROGBITS,SHF_MERGE|SHF_STRINGS,1
	0x2ec9		
.debug_str	0x61679	0x19	common\libs\txm_lib.lib(txm_event_flags_create.o)	#SHT_PROGBITS,SHF_MERGE|SHF_STRINGS,1
	0x2ed3		
.debug_str	0x61692	0xa2	common\libs\txm_lib.lib(txm_event_flags_delete.o)	#SHT_PROGBITS,SHF_MERGE|SHF_STRINGS,1
	0x2eec		
.debug_str	0x61734	0x18	common\libs\txm_lib.lib(txm_event_flags_delete.o)	#SHT_PROGBITS,SHF_MERGE|SHF_STRINGS,1
	0x2f8e		
.debug_str	0x6174c	0x9f	common\libs\txm_lib.lib(txm_event_flags_get.o)	#SHT_PROGBITS,SHF_MERGE|SHF_STRINGS,1
	0x2fa6		
.debug_str	0x617eb	0x15	common\libs\txm_lib.lib(txm_event_flags_get.o)	#SHT_PROGBITS,SHF_MERGE|SHF_STRINGS,1
	0x3045		
.debug_str	0x61800	0x10	common\libs\txm_lib.lib(txm_event_flags_get.o)	#SHT_PROGBITS,SHF_MERGE|SHF_STRINGS,1
	0x305a		
.debug_str	0x61810	0xb	common\libs\txm_lib.lib(txm_event_flags_get.o)	#SHT_PROGBITS,SHF_MERGE|SHF_STRINGS,1
	0x306a		
.debug_str	0x6181b	0x11	common\libs\txm_lib.lib(txm_event_flags_get.o)	#SHT_PROGBITS,SHF_MERGE|SHF_STRINGS,1
	0x3075		
.debug_str	0x6182c	0xa4	common\libs\txm_lib.lib(txm_event_flags_info_get.o)	#SHT_PROGBITS,SHF_MERGE|SHF_STRINGS,1
	0x3086		
.debug_str	0x618d0	0x1a	common\libs\txm_lib.lib(txm_event_flags_info_get.o)	#SHT_PROGBITS,SHF_MERGE|SHF_STRINGS,1
	0x312a		
.debug_str	0x618ea	0x5	common\libs\txm_lib.lib(txm_event_flags_info_get.o)	#SHT_PROGBITS,SHF_MERGE|SHF_STRINGS,1
	0x3144		
.debug_str	0x618ef	0xe	common\libs\txm_lib.lib(txm_event_flags_info_get.o)	#SHT_PROGBITS,SHF_MERGE|SHF_STRINGS,1
	0x3149		
.debug_str	0x618fd	0x10	common\libs\txm_lib.lib(txm_event_flags_info_get.o)	#SHT_PROGBITS,SHF_MERGE|SHF_STRINGS,1
	0x3157		
.debug_str	0x6190d	0x10	common\libs\txm_lib.lib(txm_event_flags_info_get.o)	#SHT_PROGBITS,SHF_MERGE|SHF_STRINGS,1
	0x3167		
.debug_str	0x6191d	0xb	common\libs\txm_lib.lib(txm_event_flags_info_get.o)	#SHT_PROGBITS,SHF_MERGE|SHF_STRINGS,1
	0x3177		
.debug_str	0x61928	0x9f	common\libs\txm_lib.lib(txm_event_flags_set.o)	#SHT_PROGBITS,SHF_MERGE|SHF_STRINGS,1
	0x3182		
.debug_str	0x619c7	0x15	common\libs\txm_lib.lib(txm_event_flags_set.o)	#SHT_PROGBITS,SHF_MERGE|SHF_STRINGS,1
	0x3221		
.debug_str	0x619dc	0xd	common\libs\txm_lib.lib(txm_event_flags_set.o)	#SHT_PROGBITS,SHF_MERGE|SHF_STRINGS,1
	0x3236		
.debug_str	0x619e9	0xb	common\libs\txm_lib.lib(txm_event_flags_set.o)	#SHT_PROGBITS,SHF_MERGE|SHF_STRINGS,1
	0x3243		
.debug_str	0x619f4	0xa6	common\libs\txm_lib.lib(txm_module_object_allocate.o)	#SHT_PROGBITS,SHF_MERGE|SHF_STRINGS,1
	0x324e		
.debug_str	0x61a9a	0x1c	common\libs\txm_lib.lib(txm_module_object_allocate.o)	#SHT_PROGBITS,SHF_MERGE|SHF_STRINGS,1
	0x32f4		
.debug_str	0x61ab6	0xb	common\libs\txm_lib.lib(txm_module_object_allocate.o)	#SHT_PROGBITS,SHF_MERGE|SHF_STRINGS,1
	0x3310		
.debug_str	0x61ac1	0xc	common\libs\txm_lib.lib(txm_module_object_allocate.o)	#SHT_PROGBITS,SHF_MERGE|SHF_STRINGS,1
	0x331b		
.debug_str	0x61acd	0xa8	common\libs\txm_lib.lib(txm_module_object_deallocate.o)	#SHT_PROGBITS,SHF_MERGE|SHF_STRINGS,1
	0x3327		
.debug_str	0x61b75	0x1e	common\libs\txm_lib.lib(txm_module_object_deallocate.o)	#SHT_PROGBITS,SHF_MERGE|SHF_STRINGS,1
	0x33cf		
.debug_str	0x61b93	0xac	common\libs\txm_lib.lib(txm_module_thread_system_suspend.o)	#SHT_PROGBITS,SHF_MERGE|SHF_STRINGS,1
	0x33ed		
.debug_str	0x61c3f	0x22	common\libs\txm_lib.lib(txm_module_thread_system_suspend.o)	#SHT_PROGBITS,SHF_MERGE|SHF_STRINGS,1
	0x3499		
.debug_str	0x61c61	0x9c	common\libs\txm_lib.lib(txm_mutex_create.o)	#SHT_PROGBITS,SHF_MERGE|SHF_STRINGS,1
	0x34bb		
.debug_str	0x61cfd	0x12	common\libs\txm_lib.lib(txm_mutex_create.o)	#SHT_PROGBITS,SHF_MERGE|SHF_STRINGS,1
	0x3557		
.debug_str	0x61d0f	0xa	common\libs\txm_lib.lib(txm_mutex_create.o)	#SHT_PROGBITS,SHF_MERGE|SHF_STRINGS,1
	0x3569		
.debug_str	0x61d19	0x9	common\libs\txm_lib.lib(txm_mutex_create.o)	#SHT_PROGBITS,SHF_MERGE|SHF_STRINGS,1
	0x3573		
.debug_str	0x61d22	0x8	common\libs\txm_lib.lib(txm_mutex_create.o)	#SHT_PROGBITS,SHF_MERGE|SHF_STRINGS,1
	0x357c		
.debug_str	0x61d2a	0x19	common\libs\txm_lib.lib(txm_mutex_create.o)	#SHT_PROGBITS,SHF_MERGE|SHF_STRINGS,1
	0x3584		
.debug_str	0x61d43	0x9c	common\libs\txm_lib.lib(txm_mutex_delete.o)	#SHT_PROGBITS,SHF_MERGE|SHF_STRINGS,1
	0x359d		
.debug_str	0x61ddf	0x12	common\libs\txm_lib.lib(txm_mutex_delete.o)	#SHT_PROGBITS,SHF_MERGE|SHF_STRINGS,1
	0x3639		
.debug_str	0x61df1	0x99	common\libs\txm_lib.lib(txm_mutex_get.o)	#SHT_PROGBITS,SHF_MERGE|SHF_STRINGS,1
	0x364b		
.debug_str	0x61e8a	0xf	common\libs\txm_lib.lib(txm_mutex_get.o)	#SHT_PROGBITS,SHF_MERGE|SHF_STRINGS,1
	0x36e4		
.debug_str	0x61e99	0x99	common\libs\txm_lib.lib(txm_mutex_put.o)	#SHT_PROGBITS,SHF_MERGE|SHF_STRINGS,1
	0x36f3		
.debug_str	0x61f32	0xf	common\libs\txm_lib.lib(txm_mutex_put.o)	#SHT_PROGBITS,SHF_MERGE|SHF_STRINGS,1
	0x378c		
.debug_str	0x61f41	0x9d	common\libs\txm_lib.lib(txm_queue_receive.o)	#SHT_PROGBITS,SHF_MERGE|SHF_STRINGS,1
	0x379b		
.debug_str	0x61fde	0x13	common\libs\txm_lib.lib(txm_queue_receive.o)	#SHT_PROGBITS,SHF_MERGE|SHF_STRINGS,1
	0x3838		
.debug_str	0x61ff1	0xa	common\libs\txm_lib.lib(txm_queue_receive.o)	#SHT_PROGBITS,SHF_MERGE|SHF_STRINGS,1
	0x384b		
.debug_str	0x61ffb	0x10	common\libs\txm_lib.lib(txm_queue_receive.o)	#SHT_PROGBITS,SHF_MERGE|SHF_STRINGS,1
	0x3855		
.debug_str	0x6200b	0x9d	common\libs\txm_lib.lib(txm_thread_create.o)	#SHT_PROGBITS,SHF_MERGE|SHF_STRINGS,1
	0x3865		
.debug_str	0x620a8	0x13	common\libs\txm_lib.lib(txm_thread_create.o)	#SHT_PROGBITS,SHF_MERGE|SHF_STRINGS,1
	0x3902		
.debug_str	0x620bb	0xf	common\libs\txm_lib.lib(txm_thread_create.o)	#SHT_PROGBITS,SHF_MERGE|SHF_STRINGS,1
	0x3915		
.debug_str	0x620ca	0xc	common\libs\txm_lib.lib(txm_thread_create.o)	#SHT_PROGBITS,SHF_MERGE|SHF_STRINGS,1
	0x3924		
.debug_str	0x620d6	0xc	common\libs\txm_lib.lib(txm_thread_create.o)	#SHT_PROGBITS,SHF_MERGE|SHF_STRINGS,1
	0x3930		
.debug_str	0x620e2	0xb	common\libs\txm_lib.lib(txm_thread_create.o)	#SHT_PROGBITS,SHF_MERGE|SHF_STRINGS,1
	0x393c		
.debug_str	0x620ed	0x9	common\libs\txm_lib.lib(txm_thread_create.o)	#SHT_PROGBITS,SHF_MERGE|SHF_STRINGS,1
	0x3947		
.debug_str	0x620f6	0x12	common\libs\txm_lib.lib(txm_thread_create.o)	#SHT_PROGBITS,SHF_MERGE|SHF_STRINGS,1
	0x3950		
.debug_str	0x62108	0xb	common\libs\txm_lib.lib(txm_thread_create.o)	#SHT_PROGBITS,SHF_MERGE|SHF_STRINGS,1
	0x3962		
.debug_str	0x62113	0xb	common\libs\txm_lib.lib(txm_thread_create.o)	#SHT_PROGBITS,SHF_MERGE|SHF_STRINGS,1
	0x396d		
.debug_str	0x6211e	0x1a	common\libs\txm_lib.lib(txm_thread_create.o)	#SHT_PROGBITS,SHF_MERGE|SHF_STRINGS,1
	0x3978		
.debug_str	0x62138	0x9d	common\libs\txm_lib.lib(txm_thread_delete.o)	#SHT_PROGBITS,SHF_MERGE|SHF_STRINGS,1
	0x3992		
.debug_str	0x621d5	0x13	common\libs\txm_lib.lib(txm_thread_delete.o)	#SHT_PROGBITS,SHF_MERGE|SHF_STRINGS,1
	0x3a2f		
.debug_str	0x621e8	0x9f	common\libs\txm_lib.lib(txm_thread_identify.o)	#SHT_PROGBITS,SHF_MERGE|SHF_STRINGS,1
	0x3a42		
.debug_str	0x62287	0x14	common\libs\txm_lib.lib(txm_thread_identify.o)	#SHT_PROGBITS,SHF_MERGE|SHF_STRINGS,1
	0x3ae1		
.debug_str	0x6229b	0xa8	common\libs\txm_lib.lib(txm_thread_preemption_change.o)	#SHT_PROGBITS,SHF_MERGE|SHF_STRINGS,1
	0x3af5		
.debug_str	0x62343	0x1e	common\libs\txm_lib.lib(txm_thread_preemption_change.o)	#SHT_PROGBITS,SHF_MERGE|SHF_STRINGS,1
	0x3b9d		
.debug_str	0x62361	0xe	common\libs\txm_lib.lib(txm_thread_preemption_change.o)	#SHT_PROGBITS,SHF_MERGE|SHF_STRINGS,1
	0x3bbb		
.debug_str	0x6236f	0xe	common\libs\txm_lib.lib(txm_thread_preemption_change.o)	#SHT_PROGBITS,SHF_MERGE|SHF_STRINGS,1
	0x3bc9		
.debug_str	0x6237d	0x9d	common\libs\txm_lib.lib(txm_thread_resume.o)	#SHT_PROGBITS,SHF_MERGE|SHF_STRINGS,1
	0x3bd7		
.debug_str	0x6241a	0x13	common\libs\txm_lib.lib(txm_thread_resume.o)	#SHT_PROGBITS,SHF_MERGE|SHF_STRINGS,1
	0x3c74		
.debug_str	0x6242d	0x9c	common\libs\txm_lib.lib(txm_thread_sleep.o)	#SHT_PROGBITS,SHF_MERGE|SHF_STRINGS,1
	0x3c87		
.debug_str	0x624c9	0x11	common\libs\txm_lib.lib(txm_thread_sleep.o)	#SHT_PROGBITS,SHF_MERGE|SHF_STRINGS,1
	0x3d23		
.debug_str	0x624da	0xc	common\libs\txm_lib.lib(txm_thread_sleep.o)	#SHT_PROGBITS,SHF_MERGE|SHF_STRINGS,1
	0x3d34		
.debug_str	0x624e6	0xa0	common\libs\txm_lib.lib(txm_thread_terminate.o)	#SHT_PROGBITS,SHF_MERGE|SHF_STRINGS,1
	0x3d40		
.debug_str	0x62586	0x16	common\libs\txm_lib.lib(txm_thread_terminate.o)	#SHT_PROGBITS,SHF_MERGE|SHF_STRINGS,1
	0x3de0		
.debug_str	0x6259c	0x98	common\libs\txm_lib.lib(txm_time_get.o)	#SHT_PROGBITS,SHF_MERGE|SHF_STRINGS,1
	0x3df6		
.debug_str	0x62634	0xd	common\libs\txm_lib.lib(txm_time_get.o)	#SHT_PROGBITS,SHF_MERGE|SHF_STRINGS,1
	0x3e8e		

.debug_loc	0x62641	0xd17 # Offset: 0x62641
*(.debug_loc )
.debug_loc	0x62641	0x39	common\libs\qapi_psm_lib.lib(qapi_psm_user.o)	#SHT_PROGBITS,,1
.debug_loc	0x6267a	0x2f6	common\libs\timer_dam_lib.lib(qapi_timer_user.o)	#SHT_PROGBITS,,1
.debug_loc	0x62970	0x3c	common\libs\txm_lib.lib(txm_module_thread_shell_entry.o)	#SHT_PROGBITS,,1
.debug_loc	0x629ac	0xa6	common\libs\txm_lib.lib(txm_module_callback_request_thread_entry.o)	#SHT_PROGBITS,,1
.debug_loc	0x62a52	0x103	common\libs\txm_lib.lib(txm_module_system_call11.o)	#SHT_PROGBITS,,1
.debug_loc	0x62b55	0x118	common\libs\txm_lib.lib(txm_module_system_call12.o)	#SHT_PROGBITS,,1
.debug_loc	0x62c6d	0x94	common\libs\txm_lib.lib(txm_byte_pool_create.o)	#SHT_PROGBITS,,1
.debug_loc	0x62d01	0x80	common\libs\txm_lib.lib(txm_byte_allocate.o)	#SHT_PROGBITS,,1
.debug_loc	0x62d81	0x1e	common\libs\txm_lib.lib(txm_byte_release.o)	#SHT_PROGBITS,,1
.debug_loc	0x62d9f	0x5a	common\libs\txm_lib.lib(txm_event_flags_create.o)	#SHT_PROGBITS,,1
.debug_loc	0x62df9	0x1e	common\libs\txm_lib.lib(txm_event_flags_delete.o)	#SHT_PROGBITS,,1
.debug_loc	0x62e17	0x94	common\libs\txm_lib.lib(txm_event_flags_get.o)	#SHT_PROGBITS,,1
.debug_loc	0x62eab	0xa8	common\libs\txm_lib.lib(txm_event_flags_info_get.o)	#SHT_PROGBITS,,1
.debug_loc	0x62f53	0x5a	common\libs\txm_lib.lib(txm_event_flags_set.o)	#SHT_PROGBITS,,1
.debug_loc	0x62fad	0x3c	common\libs\txm_lib.lib(txm_module_object_allocate.o)	#SHT_PROGBITS,,1
.debug_loc	0x62fe9	0x1e	common\libs\txm_lib.lib(txm_module_object_deallocate.o)	#SHT_PROGBITS,,1
.debug_loc	0x63007	0x1e	common\libs\txm_lib.lib(txm_module_thread_system_suspend.o)	#SHT_PROGBITS,,1
.debug_loc	0x63025	0x80	common\libs\txm_lib.lib(txm_mutex_create.o)	#SHT_PROGBITS,,1
.debug_loc	0x630a5	0x1e	common\libs\txm_lib.lib(txm_mutex_delete.o)	#SHT_PROGBITS,,1
.debug_loc	0x630c3	0x3c	common\libs\txm_lib.lib(txm_mutex_get.o)	#SHT_PROGBITS,,1
.debug_loc	0x630ff	0x1e	common\libs\txm_lib.lib(txm_mutex_put.o)	#SHT_PROGBITS,,1
.debug_loc	0x6311d	0x5a	common\libs\txm_lib.lib(txm_queue_receive.o)	#SHT_PROGBITS,,1
.debug_loc	0x63177	0x10f	common\libs\txm_lib.lib(txm_thread_create.o)	#SHT_PROGBITS,,1
.debug_loc	0x63286	0x1e	common\libs\txm_lib.lib(txm_thread_delete.o)	#SHT_PROGBITS,,1
.debug_loc	0x632a4	0x5a	common\libs\txm_lib.lib(txm_thread_preemption_change.o)	#SHT_PROGBITS,,1
.debug_loc	0x632fe	0x1e	common\libs\txm_lib.lib(txm_thread_resume.o)	#SHT_PROGBITS,,1
.debug_loc	0x6331c	0x1e	common\libs\txm_lib.lib(txm_thread_sleep.o)	#SHT_PROGBITS,,1
.debug_loc	0x6333a	0x1e	common\libs\txm_lib.lib(txm_thread_terminate.o)	#SHT_PROGBITS,,1

.debug_macinfo	0x63358	0x1e # Offset: 0x63358
*(.debug_macinfo )
.debug_macinfo	0x63358	0x1	common\libs\qapi_psm_lib.lib(qapi_psm_user.o)	#SHT_PROGBITS,,1
.debug_macinfo	0x63359	0x1	common\libs\timer_dam_lib.lib(qapi_timer_user.o)	#SHT_PROGBITS,,1
.debug_macinfo	0x6335a	0x1	common\libs\txm_lib.lib(txm_module_thread_shell_entry.o)	#SHT_PROGBITS,,1
.debug_macinfo	0x6335b	0x1	common\libs\txm_lib.lib(txm_module_callback_request_thread_entry.o)	#SHT_PROGBITS,,1
.debug_macinfo	0x6335c	0x1	common\libs\txm_lib.lib(txm_module_system_call11.o)	#SHT_PROGBITS,,1
.debug_macinfo	0x6335d	0x1	common\libs\txm_lib.lib(txm_module_system_call12.o)	#SHT_PROGBITS,,1
.debug_macinfo	0x6335e	0x1	common\libs\txm_lib.lib(txm_byte_pool_create.o)	#SHT_PROGBITS,,1
.debug_macinfo	0x6335f	0x1	common\libs\txm_lib.lib(txm_byte_allocate.o)	#SHT_PROGBITS,,1
.debug_macinfo	0x63360	0x1	common\libs\txm_lib.lib(txm_byte_release.o)	#SHT_PROGBITS,,1
.debug_macinfo	0x63361	0x1	common\libs\txm_lib.lib(txm_event_flags_create.o)	#SHT_PROGBITS,,1
.debug_macinfo	0x63362	0x1	common\libs\txm_lib.lib(txm_event_flags_delete.o)	#SHT_PROGBITS,,1
.debug_macinfo	0x63363	0x1	common\libs\txm_lib.lib(txm_event_flags_get.o)	#SHT_PROGBITS,,1
.debug_macinfo	0x63364	0x1	common\libs\txm_lib.lib(txm_event_flags_info_get.o)	#SHT_PROGBITS,,1
.debug_macinfo	0x63365	0x1	common\libs\txm_lib.lib(txm_event_flags_set.o)	#SHT_PROGBITS,,1
.debug_macinfo	0x63366	0x1	common\libs\txm_lib.lib(txm_module_object_allocate.o)	#SHT_PROGBITS,,1
.debug_macinfo	0x63367	0x1	common\libs\txm_lib.lib(txm_module_object_deallocate.o)	#SHT_PROGBITS,,1
.debug_macinfo	0x63368	0x1	common\libs\txm_lib.lib(txm_module_thread_system_suspend.o)	#SHT_PROGBITS,,1
.debug_macinfo	0x63369	0x1	common\libs\txm_lib.lib(txm_mutex_create.o)	#SHT_PROGBITS,,1
.debug_macinfo	0x6336a	0x1	common\libs\txm_lib.lib(txm_mutex_delete.o)	#SHT_PROGBITS,,1
.debug_macinfo	0x6336b	0x1	common\libs\txm_lib.lib(txm_mutex_get.o)	#SHT_PROGBITS,,1
.debug_macinfo	0x6336c	0x1	common\libs\txm_lib.lib(txm_mutex_put.o)	#SHT_PROGBITS,,1
.debug_macinfo	0x6336d	0x1	common\libs\txm_lib.lib(txm_queue_receive.o)	#SHT_PROGBITS,,1
.debug_macinfo	0x6336e	0x1	common\libs\txm_lib.lib(txm_thread_create.o)	#SHT_PROGBITS,,1
.debug_macinfo	0x6336f	0x1	common\libs\txm_lib.lib(txm_thread_delete.o)	#SHT_PROGBITS,,1
.debug_macinfo	0x63370	0x1	common\libs\txm_lib.lib(txm_thread_identify.o)	#SHT_PROGBITS,,1
.debug_macinfo	0x63371	0x1	common\libs\txm_lib.lib(txm_thread_preemption_change.o)	#SHT_PROGBITS,,1
.debug_macinfo	0x63372	0x1	common\libs\txm_lib.lib(txm_thread_resume.o)	#SHT_PROGBITS,,1
.debug_macinfo	0x63373	0x1	common\libs\txm_lib.lib(txm_thread_sleep.o)	#SHT_PROGBITS,,1
.debug_macinfo	0x63374	0x1	common\libs\txm_lib.lib(txm_thread_terminate.o)	#SHT_PROGBITS,,1
.debug_macinfo	0x63375	0x1	common\libs\txm_lib.lib(txm_time_get.o)	#SHT_PROGBITS,,1

.debug_weaknames	0x63376	0x0 # Offset: 0x63376

.debug_funcnames	0x63376	0x0 # Offset: 0x63376

.debug_typenames	0x63376	0x0 # Offset: 0x63376

.debug_varnames	0x63376	0x0 # Offset: 0x63376

.debug_pubtypes	0x63376	0x1c01 # Offset: 0x63376
*(.debug_pubtypes )
.debug_pubtypes	0x63376	0x63	common\libs\qapi_psm_lib.lib(qapi_psm_user.o)	#SHT_PROGBITS,,1
.debug_pubtypes	0x633d9	0x2bb	common\libs\timer_dam_lib.lib(qapi_timer_user.o)	#SHT_PROGBITS,,1
.debug_pubtypes	0x63694	0x1ea	common\libs\txm_lib.lib(txm_module_thread_shell_entry.o)	#SHT_PROGBITS,,1
.debug_pubtypes	0x6387e	0x25e	common\libs\txm_lib.lib(txm_module_callback_request_thread_entry.o)	#SHT_PROGBITS,,1
.debug_pubtypes	0x63adc	0x32	common\libs\txm_lib.lib(txm_module_system_call11.o)	#SHT_PROGBITS,,1
.debug_pubtypes	0x63b0e	0x32	common\libs\txm_lib.lib(txm_module_system_call12.o)	#SHT_PROGBITS,,1
.debug_pubtypes	0x63b40	0x128	common\libs\txm_lib.lib(txm_byte_pool_create.o)	#SHT_PROGBITS,,1
.debug_pubtypes	0x63c68	0x128	common\libs\txm_lib.lib(txm_byte_allocate.o)	#SHT_PROGBITS,,1
.debug_pubtypes	0x63d90	0x4c	common\libs\txm_lib.lib(txm_byte_release.o)	#SHT_PROGBITS,,1
.debug_pubtypes	0x63ddc	0x11c	common\libs\txm_lib.lib(txm_event_flags_create.o)	#SHT_PROGBITS,,1
.debug_pubtypes	0x63ef8	0x11c	common\libs\txm_lib.lib(txm_event_flags_delete.o)	#SHT_PROGBITS,,1
.debug_pubtypes	0x64014	0x11c	common\libs\txm_lib.lib(txm_event_flags_get.o)	#SHT_PROGBITS,,1
.debug_pubtypes	0x64130	0x11c	common\libs\txm_lib.lib(txm_event_flags_info_get.o)	#SHT_PROGBITS,,1
.debug_pubtypes	0x6424c	0x11c	common\libs\txm_lib.lib(txm_event_flags_set.o)	#SHT_PROGBITS,,1
.debug_pubtypes	0x64368	0x4c	common\libs\txm_lib.lib(txm_module_object_allocate.o)	#SHT_PROGBITS,,1
.debug_pubtypes	0x643b4	0x4c	common\libs\txm_lib.lib(txm_module_object_deallocate.o)	#SHT_PROGBITS,,1
.debug_pubtypes	0x64400	0xe3	common\libs\txm_lib.lib(txm_module_thread_system_suspend.o)	#SHT_PROGBITS,,1
.debug_pubtypes	0x644e3	0xf0	common\libs\txm_lib.lib(txm_mutex_create.o)	#SHT_PROGBITS,,1
.debug_pubtypes	0x645d3	0xf0	common\libs\txm_lib.lib(txm_mutex_delete.o)	#SHT_PROGBITS,,1
.debug_pubtypes	0x646c3	0xf0	common\libs\txm_lib.lib(txm_mutex_get.o)	#SHT_PROGBITS,,1
.debug_pubtypes	0x647b3	0xf0	common\libs\txm_lib.lib(txm_mutex_put.o)	#SHT_PROGBITS,,1
.debug_pubtypes	0x648a3	0x104	common\libs\txm_lib.lib(txm_queue_receive.o)	#SHT_PROGBITS,,1
.debug_pubtypes	0x649a7	0xe3	common\libs\txm_lib.lib(txm_thread_create.o)	#SHT_PROGBITS,,1
.debug_pubtypes	0x64a8a	0xe3	common\libs\txm_lib.lib(txm_thread_delete.o)	#SHT_PROGBITS,,1
.debug_pubtypes	0x64b6d	0xe3	common\libs\txm_lib.lib(txm_thread_identify.o)	#SHT_PROGBITS,,1
.debug_pubtypes	0x64c50	0xe3	common\libs\txm_lib.lib(txm_thread_preemption_change.o)	#SHT_PROGBITS,,1
.debug_pubtypes	0x64d33	0xe3	common\libs\txm_lib.lib(txm_thread_resume.o)	#SHT_PROGBITS,,1
.debug_pubtypes	0x64e16	0x4c	common\libs\txm_lib.lib(txm_thread_sleep.o)	#SHT_PROGBITS,,1
.debug_pubtypes	0x64e62	0xe3	common\libs\txm_lib.lib(txm_thread_terminate.o)	#SHT_PROGBITS,,1
.debug_pubtypes	0x64f45	0x32	common\libs\txm_lib.lib(txm_time_get.o)	#SHT_PROGBITS,,1

.debug_ranges	0x64f77	0x78 # Offset: 0x64f77
*(.debug_ranges )
.debug_ranges	0x64f77	0x58	common\libs\timer_dam_lib.lib(qapi_timer_user.o)	#SHT_PROGBITS,,1
.debug_ranges	0x64fcf	0x20	common\libs\txm_lib.lib(txm_module_thread_shell_entry.o)	#SHT_PROGBITS,,1

.gnu.attributes	0x0	0x0 # Offset: 0x64fef, LMA: 0x0

.note.gnu.arm.ident	0x0	0x0 # Offset: 0x64fef, LMA: 0x0

.ARM.attributes	0x64fef	0x10 # Offset: 0x64fef

.comment	0x64fff	0xa2 # Offset: 0x64fff
.comment	0x64fff	0x1	C:\Users\2166772\Downloads\snapdragon_sd_llvm_arm.win.4.0_installer_41720.103-16-22_11_46_50\Snapdragon_SD_LLVM_ARM_WIN_4_0_Installer_41720_1\Snapdragon-llvm-4.0.17-windows64\armv7m-none-eabi\libc\lib/libc.a(malloc.o)	#SHT_PROGBITS,SHF_MERGE|SHF_STRINGS,1
.comment	0x65079	0x28	Linker Version	#SHT_PROGBITS,SHF_MERGE|SHF_STRINGS,1

.note.GNU-stack	0x650a1	0x0 # Offset: 0x650a1

/DISCARD/	0xb2	0x0 # Offset: 0x650a1, LMA: 0x0

.shstrtab	0x650a1	0xcc # Offset: 0x650a1

.symtab	0x65170	0x1ef20 # Offset: 0x65170

.strtab	0x84090	0x1d8fc # Offset: 0x84090
